 lwip_encoder

 Timestamp is 5753d437 (Sun Jun 05 10:26:47 2016)

 Preferred load address is 0000000180000000

 Start         Length     Name                   Class
 0001:00000000 00000073H .text$di                CODE
 0001:00000080 000492cfH .text$mn                CODE
 0001:00049350 00000902H .text$x                 CODE
 0001:00049c60 000000b6H .text$yd                CODE
 0002:00000000 00000298H .idata$5                DATA
 0002:00000298 00000008H .CRT$XCA                DATA
 0002:000002a0 00000048H .CRT$XCU                DATA
 0002:000002e8 00000008H .CRT$XCZ                DATA
 0002:000002f0 00000008H .CRT$XIA                DATA
 0002:000002f8 00000020H .CRT$XIC                DATA
 0002:00000318 00000008H .CRT$XIZ                DATA
 0002:00000320 00000008H .CRT$XPA                DATA
 0002:00000328 00000010H .CRT$XPX                DATA
 0002:00000338 00000008H .CRT$XPXA               DATA
 0002:00000340 00000008H .CRT$XPZ                DATA
 0002:00000348 00000008H .CRT$XTA                DATA
 0002:00000350 00000008H .CRT$XTZ                DATA
 0002:00000360 00015390H .rdata                  DATA
 0002:000156f0 00000078H .rdata$debug            DATA
 0002:00015768 000001ecH .rdata$r                DATA
 0002:00015958 00000008H .rtc$IAA                DATA
 0002:00015960 00000008H .rtc$IZZ                DATA
 0002:00015968 00000008H .rtc$TAA                DATA
 0002:00015970 00000008H .rtc$TZZ                DATA
 0002:00015978 000049f4H .xdata                  DATA
 0002:0001a370 0000026cH .xdata$x                DATA
 0002:0001a5dc 00000020H .didat$2                DATA
 0002:0001a5fc 00000020H .didat$3                DATA
 0002:0001a620 00000140H .didat$4                DATA
 0002:0001a760 000009dcH .didat$6                DATA
 0002:0001b140 00000140H .didat$7                DATA
 0002:0001b280 000015e6H .edata                  DATA
 0002:0001c868 00000028H .idata$2                DATA
 0002:0001c890 00000014H .idata$3                DATA
 0002:0001c8a8 00000298H .idata$4                DATA
 0002:0001cb40 000005f8H .idata$6                DATA
 0003:00000000 00001a70H .data                   DATA
 0003:00001a70 000001a9H .data$r                 DATA
 0003:00001c20 00000140H .didat$5                DATA
 0003:00001d60 000026e0H .bss                    DATA
 0004:00000000 000038f4H .pdata                  DATA
 0005:00000000 00000058H .rsrc$01                DATA
 0005:00000060 00000180H .rsrc$02                DATA

  Address         Publics by Value              Rva+Base               Lib:Object

 0000:00000000       ___safe_se_handler_count   0000000000000000     <absolute>
 0000:00000000       ___safe_se_handler_table   0000000000000000     <absolute>
 0000:00000000       __guard_fids_table         0000000000000000     <absolute>
 0000:00000000       __guard_flags              0000000000000000     <absolute>
 0000:00000000       __guard_fids_count         0000000000000000     <absolute>
 0000:00000000       __ImageBase                0000000180000000     <linker-defined>
 0001:00000130       ?New@?$Factory@VFunctionTemplate@v8@@@imp@Nan@@SA?AV?$Local@VFunctionTemplate@v8@@@v8@@P6AXAEBV?$FunctionCallbackInfo@VValue@v8@@@3@@ZV?$Local@VValue@v8@@@5@V?$Local@VSignature@v8@@@5@@Z 0000000180001130 f i init.obj
 0001:000002c0       ??1EscapableHandleScope@Nan@@QEAA@XZ 00000001800012c0 f i jpeg_worker.obj
 0001:000002c0       ??1HandleScope@Nan@@QEAA@XZ 00000001800012c0 f i init.obj
 0001:000002d0       ??0Callback@Nan@@QEAA@AEBV?$Local@VFunction@v8@@@v8@@@Z 00000001800012d0 f i init.obj
 0001:00000390       ?SetFunction@Callback@Nan@@QEAAXAEBV?$Local@VFunction@v8@@@v8@@@Z 0000000180001390 f i init.obj
 0001:00000430       png_set_filter_heuristics  0000000180001430 f i pngwrite.obj
 0001:00000430       ?_Doraise@exception@stdext@@MEBAXXZ 0000000180001430 f i jpeg_worker.obj
 0001:00000430       ??1?$Persistent@VObject@v8@@V?$NonCopyablePersistentTraits@VObject@v8@@@2@@Nan@@QEAA@XZ 0000000180001430 f i init.obj
 0001:00000430       png_set_filter_heuristics_fixed 0000000180001430 f i pngwrite.obj
 0001:00000440       ?AsyncExecute@Nan@@YAXPEAUuv_work_s@@@Z 0000000180001440 f i init.obj
 0001:00000450       ?AsyncExecuteComplete@Nan@@YAXPEAUuv_work_s@@@Z 0000000180001450 f i init.obj
 0001:00000480       ?Export@Nan@@YAXV?$Local@VObject@v8@@@v8@@PEBDP6AXAEBV?$FunctionCallbackInfo@VValue@v8@@@1@@Z@Z 0000000180001480 f i init.obj
 0001:00000570       ?encodeToJpegBuffer@@YAXAEBV?$FunctionCallbackInfo@VValue@v8@@@Nan@@@Z 0000000180001570 f   init.obj
 0001:00000740       ?encodeToPngBuffer@@YAXAEBV?$FunctionCallbackInfo@VValue@v8@@@Nan@@@Z 0000000180001740 f   init.obj
 0001:00000a80       ?encodeToGifBuffer@@YAXAEBV?$FunctionCallbackInfo@VValue@v8@@@Nan@@@Z 0000000180001a80 f   init.obj
 0001:00000cd0       ?InitAll@@YAXV?$Local@VObject@v8@@@v8@@@Z 0000000180001cd0 f   init.obj
 0001:00000d40       ??1?$CImg@E@cimg_library@@QEAA@XZ 0000000180001d40 f i jpeg_worker.obj
 0001:00000d40       ??1?$CImg@D@cimg_library@@QEAA@XZ 0000000180001d40 f i init.obj
 0001:00000d50       ??0exception@stdext@@QEAA@AEBV01@@Z 0000000180001d50 f i jpeg_worker.obj
 0001:00000d70       ??1exception@stdext@@UEAA@XZ 0000000180001d70 f i jpeg_worker.obj
 0001:00000d80       ?what@exception@stdext@@UEBAPEBDXZ 0000000180001d80 f i jpeg_worker.obj
 0001:00000da0       ??_Gexception@stdext@@UEAAPEAXI@Z 0000000180001da0 f i jpeg_worker.obj
 0001:00000da0       ??_Eexception@stdext@@UEAAPEAXI@Z 0000000180001da0 f i * CIL library *:* CIL module *
 0001:00000dd0       ?Call_@Callback@Nan@@AEBA?AV?$Local@VValue@v8@@@v8@@PEAVIsolate@4@V?$Local@VObject@v8@@@4@HQEAV34@@Z 0000000180001dd0 f i jpeg_worker.obj
 0001:00000ea0       ??0AsyncWorker@Nan@@QEAA@PEAVCallback@1@@Z 0000000180001ea0 f i jpeg_worker.obj
 0001:00000f70       ??1AsyncWorker@Nan@@UEAA@XZ 0000000180001f70 f i jpeg_worker.obj
 0001:00001030       ?WorkComplete@AsyncWorker@Nan@@UEAAXXZ 0000000180002030 f i jpeg_worker.obj
 0001:000010d0       ?SaveToPersistent@AsyncWorker@Nan@@QEAAXPEBDAEBV?$Local@VValue@v8@@@v8@@@Z 00000001800020d0 f i jpeg_worker.obj
 0001:00001190       ?Destroy@AsyncWorker@Nan@@UEAAXXZ 0000000180002190 f i jpeg_worker.obj
 0001:000011b0       ?HandleOKCallback@AsyncWorker@Nan@@MEAAXXZ 00000001800021b0 f i jpeg_worker.obj
 0001:00001210       ?HandleErrorCallback@AsyncWorker@Nan@@MEAAXXZ 0000000180002210 f i jpeg_worker.obj
 0001:000012f0       ?SetErrorMessage@AsyncWorker@Nan@@IEAAXPEBD@Z 00000001800022f0 f i jpeg_worker.obj
 0001:00001350       ??_EAsyncWorker@Nan@@UEAAPEAXI@Z 0000000180002350 f i * CIL library *:* CIL module *
 0001:00001350       ??_GAsyncWorker@Nan@@UEAAPEAXI@Z 0000000180002350 f i jpeg_worker.obj
 0001:00001380       ?_snprintf@cimg@cimg_library@@YAHQEAD_KQEBDZZ 0000000180002380 f i jpeg_worker.obj
 0001:000013a0       ?_vsnprintf@cimg@cimg_library@@YAHQEAD_KQEBDPEAD@Z 00000001800023a0 f i jpeg_worker.obj
 0001:00001420       ??0CImgException@cimg_library@@QEAA@AEBU01@@Z 0000000180002420 f i jpeg_worker.obj
 0001:00001490       ??1CImgArgumentException@cimg_library@@UEAA@XZ 0000000180002490 f i jpeg_worker.obj
 0001:00001490       ??1CImgException@cimg_library@@UEAA@XZ 0000000180002490 f i jpeg_worker.obj
 0001:00001490       ??1CImgInstanceException@cimg_library@@UEAA@XZ 0000000180002490 f i jpeg_worker.obj
 0001:00001490       ??1CImgIOException@cimg_library@@UEAA@XZ 0000000180002490 f i jpeg_worker.obj
 0001:000014c0       ?what@CImgException@cimg_library@@UEBAPEBDXZ 00000001800024c0 f i jpeg_worker.obj
 0001:000014d0       ??_GCImgException@cimg_library@@UEAAPEAXI@Z 00000001800024d0 f i jpeg_worker.obj
 0001:000014d0       ??_ECImgArgumentException@cimg_library@@UEAAPEAXI@Z 00000001800024d0 f i * CIL library *:* CIL module *
 0001:000014d0       ??_ECImgException@cimg_library@@UEAAPEAXI@Z 00000001800024d0 f i * CIL library *:* CIL module *
 0001:000014d0       ??_GCImgInstanceException@cimg_library@@UEAAPEAXI@Z 00000001800024d0 f i jpeg_worker.obj
 0001:000014d0       ??_GCImgIOException@cimg_library@@UEAAPEAXI@Z 00000001800024d0 f i jpeg_worker.obj
 0001:000014d0       ??_ECImgIOException@cimg_library@@UEAAPEAXI@Z 00000001800024d0 f i * CIL library *:* CIL module *
 0001:000014d0       ??_ECImgInstanceException@cimg_library@@UEAAPEAXI@Z 00000001800024d0 f i * CIL library *:* CIL module *
 0001:000014d0       ??_GCImgArgumentException@cimg_library@@UEAAPEAXI@Z 00000001800024d0 f i jpeg_worker.obj
 0001:00001520       ??0CImgArgumentException@cimg_library@@QEAA@QEBDZZ 0000000180002520 f i jpeg_worker.obj
 0001:00001660       ??0CImgInstanceException@cimg_library@@QEAA@QEBDZZ 0000000180002660 f i jpeg_worker.obj
 0001:000017a0       ??0CImgIOException@cimg_library@@QEAA@QEBDZZ 00000001800027a0 f i jpeg_worker.obj
 0001:000018e0       ?Mutex_attr@cimg@cimg_library@@YAAEAUMutex_info@12@XZ 00000001800028e0 f i jpeg_worker.obj
 0001:00001950       ?warn@cimg@cimg_library@@YAXQEBDZZ 0000000180002950 f i jpeg_worker.obj
 0001:00001a40       ?filenamerand@cimg@cimg_library@@YAPEBDXZ 0000000180002a40 f i jpeg_worker.obj
 0001:00001bd0       ?winformat_string@cimg@cimg_library@@YAXQEAD@Z 0000000180002bd0 f i jpeg_worker.obj
 0001:00001c40       ??0CImgArgumentException@cimg_library@@QEAA@AEBU01@@Z 0000000180002c40 f i jpeg_worker.obj
 0001:00001c40       ??0CImgInstanceException@cimg_library@@QEAA@AEBU01@@Z 0000000180002c40 f i jpeg_worker.obj
 0001:00001c40       ??0CImgIOException@cimg_library@@QEAA@AEBU01@@Z 0000000180002c40 f i jpeg_worker.obj
 0001:00001cc0       ?fclose@cimg@cimg_library@@YAHPEAU_iobuf@@@Z 0000000180002cc0 f i jpeg_worker.obj
 0001:00001d20       ?info@cimg@cimg_library@@YAXXZ 0000000180002d20 f i jpeg_worker.obj
 0001:00002630       ?temporary_path@cimg@cimg_library@@YAPEBDQEBD_N@Z 0000000180003630 f i jpeg_worker.obj
 0001:00002b50       ?programfiles_path@cimg@cimg_library@@YAPEBDQEBD_N@Z 0000000180003b50 f i jpeg_worker.obj
 0001:00002c40       ?imagemagick_path@cimg@cimg_library@@YAPEBDQEBD_N@Z 0000000180003c40 f i jpeg_worker.obj
 0001:000036b0       ?graphicsmagick_path@cimg@cimg_library@@YAPEBDQEBD_N@Z 00000001800046b0 f i jpeg_worker.obj
 0001:00004110       ?medcon_path@cimg@cimg_library@@YAPEBDQEBD_N@Z 0000000180005110 f i jpeg_worker.obj
 0001:000042e0       ?strbuffersize@cimg@cimg_library@@YAPEBDK@Z 00000001800052e0 f i jpeg_worker.obj
 0001:00004400       ?lwip_jpeg_error_exit@@YAXPEAUjpeg_common_struct@@@Z 0000000180005400 f i jpeg_worker.obj
 0001:00004420       ??_GEncodeToJpegBufferWorker@@UEAAPEAXI@Z 0000000180005420 f i jpeg_worker.obj
 0001:00004420       ??_EEncodeToJpegBufferWorker@@UEAAPEAXI@Z 0000000180005420 f i * CIL library *:* CIL module *
 0001:00004460       ?Execute@EncodeToJpegBufferWorker@@UEAAXXZ 0000000180005460 f   jpeg_worker.obj
 0001:00004b10       ?HandleOKCallback@EncodeToJpegBufferWorker@@UEAAXXZ 0000000180005b10 f   jpeg_worker.obj
 0001:00004c20       ??0?$CImg@D@cimg_library@@QEAA@IIII@Z 0000000180005c20 f i jpeg_worker.obj
 0001:00004c90       ?assign@?$CImg@D@cimg_library@@QEAAAEAU12@IIII@Z 0000000180005c90 f i jpeg_worker.obj
 0001:00004db0       ??0?$CImg@E@cimg_library@@QEAA@QEBEIIII_N@Z 0000000180005db0 f i jpeg_worker.obj
 0001:00004e00       ??_EEncodeToPngBufferWorker@@UEAAPEAXI@Z 0000000180005e00 f i * CIL library *:* CIL module *
 0001:00004e00       ??_GEncodeToPngBufferWorker@@UEAAPEAXI@Z 0000000180005e00 f i png_worker.obj
 0001:00004e40       ?Execute@EncodeToPngBufferWorker@@UEAAXXZ 0000000180005e40 f   png_worker.obj
 0001:00005a40       ?HandleOKCallback@EncodeToGifBufferWorker@@UEAAXXZ 0000000180006a40 f   gif_worker.obj
 0001:00005a40       ?HandleOKCallback@EncodeToPngBufferWorker@@UEAAXXZ 0000000180006a40 f   png_worker.obj
 0001:00005b50       ?pngWriteCB@@YAXPEAUpng_struct_def@@PEAE_K@Z 0000000180006b50 f   png_worker.obj
 0001:00005c20       ??0EncodeToGifBufferWorker@@QEAA@AEAV?$Local@VObject@v8@@@v8@@_K1HH_N2HPEAVCallback@Nan@@@Z 0000000180006c20 f   gif_worker.obj
 0001:00005d40       ??_EEncodeToGifBufferWorker@@UEAAPEAXI@Z 0000000180006d40 f i * CIL library *:* CIL module *
 0001:00005d40       ??_GEncodeToGifBufferWorker@@UEAAPEAXI@Z 0000000180006d40 f i gif_worker.obj
 0001:00005d80       ?Execute@EncodeToGifBufferWorker@@UEAAXXZ 0000000180006d80 f   gif_worker.obj
 0001:000060e0       ?gifWriteCB@@YAHPEAUGifFileType@@PEBEH@Z 00000001800070e0 f   gif_worker.obj
 0001:00006220       jpeg_mem_dest              0000000180007220 f   jdatadst.obj
 0001:000064d0       jpeg_fdct_float            00000001800074d0 f   jfdctflt.obj
 0001:00007040       jpeg_fdct_ifast            0000000180008040 f   jfdctfst.obj
 0001:00007270       jpeg_fdct_islow            0000000180008270 f   jfdctint.obj
 0001:00007560       jpeg_fdct_7x7              0000000180008560 f   jfdctint.obj
 0001:00007850       jpeg_fdct_6x6              0000000180008850 f   jfdctint.obj
 0001:00007a50       jpeg_fdct_5x5              0000000180008a50 f   jfdctint.obj
 0001:00007c40       jpeg_fdct_4x4              0000000180008c40 f   jfdctint.obj
 0001:00007da0       jpeg_fdct_3x3              0000000180008da0 f   jfdctint.obj
 0001:00007f50       jpeg_fdct_2x2              0000000180008f50 f   jfdctint.obj
 0001:00007fe0       jpeg_fdct_1x1              0000000180008fe0 f   jfdctint.obj
 0001:00008030       jpeg_fdct_9x9              0000000180009030 f   jfdctint.obj
 0001:000083d0       jpeg_fdct_10x10            00000001800093d0 f   jfdctint.obj
 0001:00008870       jpeg_fdct_11x11            0000000180009870 f   jfdctint.obj
 0001:00008e30       jpeg_fdct_12x12            0000000180009e30 f   jfdctint.obj
 0001:00009380       jpeg_fdct_13x13            000000018000a380 f   jfdctint.obj
 0001:00009a10       jpeg_fdct_14x14            000000018000aa10 f   jfdctint.obj
 0001:0000a040       jpeg_fdct_15x15            000000018000b040 f   jfdctint.obj
 0001:0000a6c0       jpeg_fdct_16x16            000000018000b6c0 f   jfdctint.obj
 0001:0000ae10       jpeg_fdct_16x8             000000018000be10 f   jfdctint.obj
 0001:0000b2f0       jpeg_fdct_14x7             000000018000c2f0 f   jfdctint.obj
 0001:0000b740       jpeg_fdct_12x6             000000018000c740 f   jfdctint.obj
 0001:0000bac0       jpeg_fdct_10x5             000000018000cac0 f   jfdctint.obj
 0001:0000bdc0       jpeg_fdct_8x4              000000018000cdc0 f   jfdctint.obj
 0001:0000c010       jpeg_fdct_6x3              000000018000d010 f   jfdctint.obj
 0001:0000c340       jpeg_fdct_4x2              000000018000d340 f   jfdctint.obj
 0001:0000c480       jpeg_fdct_2x1              000000018000d480 f   jfdctint.obj
 0001:0000c4e0       jpeg_fdct_8x16             000000018000d4e0 f   jfdctint.obj
 0001:0000caa0       jpeg_fdct_7x14             000000018000daa0 f   jfdctint.obj
 0001:0000cfe0       jpeg_fdct_6x12             000000018000dfe0 f   jfdctint.obj
 0001:0000d400       jpeg_fdct_5x10             000000018000e400 f   jfdctint.obj
 0001:0000d7c0       jpeg_fdct_4x8              000000018000e7c0 f   jfdctint.obj
 0001:0000d9e0       jpeg_fdct_3x6              000000018000e9e0 f   jfdctint.obj
 0001:0000db80       jpeg_fdct_2x4              000000018000eb80 f   jfdctint.obj
 0001:0000dcc0       jpeg_fdct_1x2              000000018000ecc0 f   jfdctint.obj
 0001:0000ebc0       jinit_memory_mgr           000000018000fbc0 f   jmemmgr.obj
 0001:0000ed20       jpeg_CreateCompress        000000018000fd20 f   jcapimin.obj
 0001:0000ee30       jpeg_finish_compress       000000018000fe30 f   jcapimin.obj
 0001:0000f910       jinit_c_coef_controller    0000000180010910 f   jccoefct.obj
 0001:00010340       jinit_color_converter      0000000180011340 f   jccolor.obj
 0001:000111b0       jinit_forward_dct          00000001800121b0 f   jcdctmgr.obj
 0001:000131f0       jinit_huff_encoder         00000001800141f0 f   jchuff.obj
 0001:00013290       jinit_compress_master      0000000180014290 f   jcinit.obj
 0001:00013500       jinit_c_main_controller    0000000180014500 f   jcmainct.obj
 0001:00014fd0       jinit_marker_writer        0000000180015fd0 f   jcmarker.obj
 0001:00015050       jpeg_calc_jpeg_dimensions  0000000180016050 f   jcmaster.obj
 0001:00016460       jinit_c_master_control     0000000180017460 f   jcmaster.obj
 0001:00016550       jpeg_add_quant_table       0000000180017550 f   jcparam.obj
 0001:000169e0       jpeg_set_defaults          00000001800179e0 f   jcparam.obj
 0001:00016b10       jpeg_default_colorspace    0000000180017b10 f   jcparam.obj
 0001:00016fd0       jpeg_set_colorspace        0000000180017fd0 f   jcparam.obj
 0001:00017b30       jinit_c_prep_controller    0000000180018b30 f   jcprepct.obj
 0001:000185c0       jinit_downsampler          00000001800195c0 f   jcsample.obj
 0001:00019e90       png_zalloc                 000000018001ae90 f   png.obj
 0001:00019f20       png_zfree                  000000018001af20 f   png.obj
 0001:00019f20       png_free                   000000018001af20 f   pngmem.obj
 0001:00019f50       png_calculate_crc          000000018001af50 f   png.obj
 0001:0001a010       png_user_version_check     000000018001b010 f   png.obj
 0001:0001a200       png_create_png_struct      000000018001b200 f   png.obj
 0001:0001a410       png_create_info_struct     000000018001b410 f   png.obj
 0001:0001a470       png_destroy_info_struct    000000018001b470 f   png.obj
 0001:0001a4f0       png_info_init_3            000000018001b4f0 f   png.obj
 0001:0001a540       png_data_freer             000000018001b540 f   png.obj
 0001:0001a5c0       png_free_data              000000018001b5c0 f   png.obj
 0001:0001aca0       png_get_io_ptr             000000018001bca0 f   png.obj
 0001:0001acb0       png_init_io                000000018001bcb0 f   png.obj
 0001:0001acc0       png_save_int_32            000000018001bcc0 f   png.obj
 0001:0001ace0       png_convert_to_rfc1123_buffer 000000018001bce0 f   png.obj
 0001:0001b120       png_convert_to_rfc1123     000000018001c120 f   png.obj
 0001:0001b180       png_get_copyright          000000018001c180 f   png.obj
 0001:0001b190       png_get_header_ver         000000018001c190 f   png.obj
 0001:0001b190       png_get_libpng_ver         000000018001c190 f   png.obj
 0001:0001b1a0       png_get_header_version     000000018001c1a0 f   png.obj
 0001:0001b1b0       png_build_grayscale_palette 000000018001c1b0 f   png.obj
 0001:0001b230       png_handle_as_unknown      000000018001c230 f   png.obj
 0001:0001b270       png_access_version_number  000000018001c270 f   png.obj
 0001:0001b280       png_zstream_error          000000018001c280 f   png.obj
 0001:0001b510       png_colorspace_sync_info   000000018001c510 f   png.obj
 0001:0001c040       png_colorspace_set_chromaticities 000000018001d040 f   png.obj
 0001:0001c210       png_colorspace_set_endpoints 000000018001d210 f   png.obj
 0001:0001c900       png_colorspace_set_sRGB    000000018001d900 f   png.obj
 0001:0001cab0       png_icc_check_header       000000018001dab0 f   png.obj
 0001:0001cdd0       png_icc_check_tag_table    000000018001ddd0 f   png.obj
 0001:0001d240       png_colorspace_set_ICC     000000018001e240 f   png.obj
 0001:0001d340       png_check_IHDR             000000018001e340 f   png.obj
 0001:0001d650       png_check_fp_number        000000018001e650 f   png.obj
 0001:0001d820       png_check_fp_string        000000018001e820 f   png.obj
 0001:0001d8e0       png_ascii_from_fp          000000018001e8e0 f   png.obj
 0001:0001ddc0       png_ascii_from_fixed       000000018001edc0 f   png.obj
 0001:0001df40       png_muldiv                 000000018001ef40 f   png.obj
 0001:0001dfd0       png_reciprocal             000000018001efd0 f   png.obj
 0001:0001e020       png_set_option             000000018001f020 f   png.obj
 0001:0001e200       png_image_free             000000018001f200 f   png.obj
 0001:0001e240       png_image_error            000000018001f240 f   png.obj
 0001:0001e2c0       png_set_bKGD               000000018001f2c0 f   pngset.obj
 0001:0001e2f0       png_set_cHRM_fixed         000000018001f2f0 f   pngset.obj
 0001:0001e3f0       png_set_cHRM_XYZ_fixed     000000018001f3f0 f   pngset.obj
 0001:0001e500       png_set_cHRM               000000018001f500 f   pngset.obj
 0001:0001e840       png_set_cHRM_XYZ           000000018001f840 f   pngset.obj
 0001:0001ebf0       png_set_gAMA_fixed         000000018001fbf0 f   pngset.obj
 0001:0001ed00       png_set_gAMA               000000018001fd00 f   pngset.obj
 0001:0001ed70       png_set_hIST               000000018001fd70 f   pngset.obj
 0001:0001ee90       png_set_IHDR               000000018001fe90 f   pngset.obj
 0001:0001ef80       png_set_oFFs               000000018001ff80 f   pngset.obj
 0001:0001efb0       png_set_pCAL               000000018001ffb0 f   pngset.obj
 0001:0001f300       png_set_sCAL_s             0000000180020300 f   pngset.obj
 0001:0001f550       png_set_sCAL               0000000180020550 f   pngset.obj
 0001:0001f610       png_set_sCAL_fixed         0000000180020610 f   pngset.obj
 0001:0001f6d0       png_set_pHYs               00000001800206d0 f   pngset.obj
 0001:0001f700       png_set_PLTE               0000000180020700 f   pngset.obj
 0001:0001f8d0       png_set_sBIT               00000001800208d0 f   pngset.obj
 0001:0001f900       png_set_sRGB               0000000180020900 f   pngset.obj
 0001:0001f9a0       png_set_sRGB_gAMA_and_cHRM 00000001800209a0 f   pngset.obj
 0001:0001fa50       png_set_iCCP               0000000180020a50 f   pngset.obj
 0001:0001fbe0       png_set_text               0000000180020be0 f   pngset.obj
 0001:0001fc40       png_set_text_2             0000000180020c40 f   pngset.obj
 0001:000200c0       png_set_tIME               00000001800210c0 f   pngset.obj
 0001:00020130       png_set_tRNS               0000000180021130 f   pngset.obj
 0001:000202c0       png_set_sPLT               00000001800212c0 f   pngset.obj
 0001:000206b0       png_set_unknown_chunks     00000001800216b0 f   pngset.obj
 0001:000208f0       png_set_unknown_chunk_location 00000001800218f0 f   pngset.obj
 0001:00020980       png_permit_mng_features    0000000180021980 f   pngset.obj
 0001:000209a0       png_set_keep_unknown_chunks 00000001800219a0 f   pngset.obj
 0001:00020c10       png_set_rows               0000000180021c10 f   pngset.obj
 0001:00020c70       png_set_compression_buffer_size 0000000180021c70 f   pngset.obj
 0001:00020d80       png_set_invalid            0000000180021d80 f   pngset.obj
 0001:00020da0       png_set_user_limits        0000000180021da0 f   pngset.obj
 0001:00020dc0       png_set_chunk_cache_max    0000000180021dc0 f   pngset.obj
 0001:00020dd0       png_set_chunk_malloc_max   0000000180021dd0 f   pngset.obj
 0001:00020de0       png_set_benign_errors      0000000180021de0 f   pngset.obj
 0001:00020e00       png_set_check_for_invalid_index 0000000180021e00 f   pngset.obj
 0001:00020e10       png_get_valid              0000000180021e10 f   pngget.obj
 0001:00020e30       png_get_rowbytes           0000000180021e30 f   pngget.obj
 0001:00020e50       png_get_rows               0000000180021e50 f   pngget.obj
 0001:00020e70       png_get_image_width        0000000180021e70 f   pngget.obj
 0001:00020e80       png_get_image_height       0000000180021e80 f   pngget.obj
 0001:00020ea0       png_get_bit_depth          0000000180021ea0 f   pngget.obj
 0001:00020ec0       png_get_color_type         0000000180021ec0 f   pngget.obj
 0001:00020ee0       png_get_filter_type        0000000180021ee0 f   pngget.obj
 0001:00020f00       png_get_interlace_type     0000000180021f00 f   pngget.obj
 0001:00020f20       png_get_compression_type   0000000180021f20 f   pngget.obj
 0001:00020f40       png_get_x_pixels_per_meter 0000000180021f40 f   pngget.obj
 0001:00020f70       png_get_y_pixels_per_meter 0000000180021f70 f   pngget.obj
 0001:00020fa0       png_get_pixels_per_meter   0000000180021fa0 f   pngget.obj
 0001:00020fd0       png_get_pixel_aspect_ratio 0000000180021fd0 f   pngget.obj
 0001:00020fe0       _matherr                   0000000180021fe0 f   LIBCMT:matherr.obj
 0001:00020fe0       png_get_pixel_aspect_ratio_fixed 0000000180021fe0 f   pngget.obj
 0001:00020ff0       png_get_x_offset_microns   0000000180021ff0 f   pngget.obj
 0001:00021020       png_get_y_offset_microns   0000000180022020 f   pngget.obj
 0001:00021050       png_get_x_offset_pixels    0000000180022050 f   pngget.obj
 0001:00021080       png_get_y_offset_pixels    0000000180022080 f   pngget.obj
 0001:000210b0       png_get_pixels_per_inch    00000001800220b0 f   pngget.obj
 0001:00021140       png_get_x_pixels_per_inch  0000000180022140 f   pngget.obj
 0001:000211c0       png_get_y_pixels_per_inch  00000001800221c0 f   pngget.obj
 0001:000212c0       png_get_x_offset_inches_fixed 00000001800222c0 f   pngget.obj
 0001:000212f0       png_get_y_offset_inches_fixed 00000001800222f0 f   pngget.obj
 0001:00021320       png_get_x_offset_inches    0000000180022320 f   pngget.obj
 0001:00021360       png_get_y_offset_inches    0000000180022360 f   pngget.obj
 0001:000213a0       png_get_pHYs_dpi           00000001800223a0 f   pngget.obj
 0001:00021460       png_get_channels           0000000180022460 f   pngget.obj
 0001:00021480       png_get_bKGD               0000000180022480 f   pngget.obj
 0001:000214b0       png_get_cHRM               00000001800224b0 f   pngget.obj
 0001:000215b0       png_get_cHRM_XYZ           00000001800225b0 f   pngget.obj
 0001:000216d0       png_get_cHRM_XYZ_fixed     00000001800226d0 f   pngget.obj
 0001:00021780       png_get_cHRM_fixed         0000000180022780 f   pngget.obj
 0001:00021810       png_get_gAMA_fixed         0000000180022810 f   pngget.obj
 0001:00021840       png_get_gAMA               0000000180022840 f   pngget.obj
 0001:00021880       png_get_sRGB               0000000180022880 f   pngget.obj
 0001:000218b0       png_get_iCCP               00000001800228b0 f   pngget.obj
 0001:00021930       png_get_sPLT               0000000180022930 f   pngget.obj
 0001:00021960       png_get_hIST               0000000180022960 f   pngget.obj
 0001:00021990       png_get_IHDR               0000000180022990 f   pngget.obj
 0001:00021a70       png_get_oFFs               0000000180022a70 f   pngget.obj
 0001:00021ac0       png_get_pCAL               0000000180022ac0 f   pngget.obj
 0001:00021bb0       png_get_sCAL_fixed         0000000180022bb0 f   pngget.obj
 0001:00021cd0       png_get_sCAL               0000000180022cd0 f   pngget.obj
 0001:00021d40       png_get_sCAL_s             0000000180022d40 f   pngget.obj
 0001:00021d80       png_get_pHYs               0000000180022d80 f   pngget.obj
 0001:00021dd0       png_get_PLTE               0000000180022dd0 f   pngget.obj
 0001:00021e00       png_get_sBIT               0000000180022e00 f   pngget.obj
 0001:00021e30       png_get_text               0000000180022e30 f   pngget.obj
 0001:00021e70       png_get_tIME               0000000180022e70 f   pngget.obj
 0001:00021ea0       png_get_tRNS               0000000180022ea0 f   pngget.obj
 0001:00021f20       png_get_unknown_chunks     0000000180022f20 f   pngget.obj
 0001:00021f50       png_get_user_chunk_ptr     0000000180022f50 f   pngget.obj
 0001:00021f60       png_get_compression_buffer_size 0000000180022f60 f   pngget.obj
 0001:00021f90       png_get_user_width_max     0000000180022f90 f   pngget.obj
 0001:00021fa0       png_get_user_height_max    0000000180022fa0 f   pngget.obj
 0001:00021fb0       png_get_chunk_cache_max    0000000180022fb0 f   pngget.obj
 0001:00021fc0       png_get_chunk_malloc_max   0000000180022fc0 f   pngget.obj
 0001:00021fd0       png_get_io_state           0000000180022fd0 f   pngget.obj
 0001:00021fe0       png_get_io_chunk_type      0000000180022fe0 f   pngget.obj
 0001:00021ff0       png_get_palette_max        0000000180022ff0 f   pngget.obj
 0001:00022010       png_set_bgr                0000000180023010 f   pngtrans.obj
 0001:00022020       png_set_swap               0000000180023020 f   pngtrans.obj
 0001:00022040       png_set_packing            0000000180023040 f   pngtrans.obj
 0001:00022060       png_set_packswap           0000000180023060 f   pngtrans.obj
 0001:00022080       png_set_shift              0000000180023080 f   pngtrans.obj
 0001:000220a0       png_set_interlace_handling 00000001800230a0 f   pngtrans.obj
 0001:000220d0       png_set_filler             00000001800230d0 f   pngtrans.obj
 0001:000221d0       png_set_add_alpha          00000001800231d0 f   pngtrans.obj
 0001:00022200       png_set_swap_alpha         0000000180023200 f   pngtrans.obj
 0001:00022210       png_set_invert_alpha       0000000180023210 f   pngtrans.obj
 0001:00022220       png_set_invert_mono        0000000180023220 f   pngtrans.obj
 0001:00022230       png_do_invert              0000000180023230 f   pngtrans.obj
 0001:00022300       png_do_packswap            0000000180023300 f   pngtrans.obj
 0001:00022380       png_do_strip_channel       0000000180023380 f   pngtrans.obj
 0001:00022540       png_do_bgr                 0000000180023540 f   pngtrans.obj
 0001:00022640       png_do_check_palette_indexes 0000000180023640 f   pngtrans.obj
 0001:000227a0       png_set_user_transform_info 00000001800237a0 f   pngtrans.obj
 0001:000227c0       png_get_user_transform_ptr 00000001800237c0 f   pngtrans.obj
 0001:000227d0       png_get_current_row_number 00000001800237d0 f   pngtrans.obj
 0001:000227e0       png_get_current_pass_number 00000001800237e0 f   pngtrans.obj
 0001:000227f0       png_destroy_png_struct     00000001800237f0 f   pngmem.obj
 0001:000228e0       png_calloc                 00000001800238e0 f   pngmem.obj
 0001:00022960       png_malloc_array           0000000180023960 f   pngmem.obj
 0001:00022a00       png_realloc_array          0000000180023a00 f   pngmem.obj
 0001:00022b00       png_malloc                 0000000180023b00 f   pngmem.obj
 0001:00022b80       png_malloc_default         0000000180023b80 f   pngmem.obj
 0001:00022bf0       png_malloc_warn            0000000180023bf0 f   pngmem.obj
 0001:00022c50       png_free_default           0000000180023c50 f   pngmem.obj
 0001:00022c70       png_set_mem_fn             0000000180023c70 f   pngmem.obj
 0001:00022c90       png_get_mem_ptr            0000000180023c90 f   pngmem.obj
 0001:00022ca0       png_error                  0000000180023ca0 f   pngerror.obj
 0001:00022cf0       png_warning                0000000180023cf0 f   pngerror.obj
 0001:00022d50       png_formatted_warning      0000000180023d50 f   pngerror.obj
 0001:00022ed0       png_benign_error           0000000180023ed0 f   pngerror.obj
 0001:00022f40       png_app_warning            0000000180023f40 f   pngerror.obj
 0001:00022fb0       png_app_error              0000000180023fb0 f   pngerror.obj
 0001:00023170       png_chunk_warning          0000000180024170 f   pngerror.obj
 0001:00023210       png_fixed_error            0000000180024210 f   pngerror.obj
 0001:000232d0       png_set_longjmp_fn         00000001800242d0 f   pngerror.obj
 0001:000233e0       png_free_jmpbuf            00000001800243e0 f   pngerror.obj
 0001:000234c0       png_longjmp                00000001800244c0 f   pngerror.obj
 0001:000234f0       png_set_error_fn           00000001800244f0 f   pngerror.obj
 0001:00023510       png_get_error_ptr          0000000180024510 f   pngerror.obj
 0001:00023520       png_safe_error             0000000180024520 f   pngerror.obj
 0001:00023620       png_safe_warning           0000000180024620 f   pngerror.obj
 0001:00023670       png_safe_execute           0000000180024670 f   pngerror.obj
 0001:00023880       png_write_info_before_PLTE 0000000180024880 f   pngwrite.obj
 0001:00023a00       png_write_info             0000000180024a00 f   pngwrite.obj
 0001:00023db0       png_write_end              0000000180024db0 f   pngwrite.obj
 0001:00023f70       png_convert_from_struct_tm 0000000180024f70 f   pngwrite.obj
 0001:00023fb0       png_convert_from_time_t    0000000180024fb0 f   pngwrite.obj
 0001:00024000       png_create_write_struct    0000000180025000 f   pngwrite.obj
 0001:00024020       png_create_write_struct_2  0000000180025020 f   pngwrite.obj
 0001:000240f0       png_write_rows             00000001800250f0 f   pngwrite.obj
 0001:000244c0       png_write_image            00000001800254c0 f   pngwrite.obj
 0001:00024650       png_write_row              0000000180025650 f   pngwrite.obj
 0001:000249d0       png_set_flush              00000001800259d0 f   pngwrite.obj
 0001:000249f0       png_write_flush            00000001800259f0 f   pngwrite.obj
 0001:00024bb0       png_destroy_write_struct   0000000180025bb0 f   pngwrite.obj
 0001:00024c00       png_set_filter             0000000180025c00 f   pngwrite.obj
 0001:00024e00       png_set_compression_level  0000000180025e00 f   pngwrite.obj
 0001:00024e10       png_set_compression_mem_level 0000000180025e10 f   pngwrite.obj
 0001:00024e20       png_set_compression_strategy 0000000180025e20 f   pngwrite.obj
 0001:00024e40       png_set_compression_window_bits 0000000180025e40 f   pngwrite.obj
 0001:00024eb0       png_set_compression_method 0000000180025eb0 f   pngwrite.obj
 0001:00024ef0       png_set_text_compression_level 0000000180025ef0 f   pngwrite.obj
 0001:00024f00       png_set_text_compression_mem_level 0000000180025f00 f   pngwrite.obj
 0001:00024f10       png_set_text_compression_strategy 0000000180025f10 f   pngwrite.obj
 0001:00024f20       png_set_text_compression_window_bits 0000000180025f20 f   pngwrite.obj
 0001:00024f90       png_set_text_compression_method 0000000180025f90 f   pngwrite.obj
 0001:00024fd0       png_set_write_status_fn    0000000180025fd0 f   pngwrite.obj
 0001:00024fe0       png_set_write_user_transform_fn 0000000180025fe0 f   pngwrite.obj
 0001:00025000       png_write_png              0000000180026000 f   pngwrite.obj
 0001:00026260       png_image_write_to_stdio   0000000180027260 f   pngwrite.obj
 0001:000263c0       png_image_write_to_file    00000001800273c0 f   pngwrite.obj
 0001:00026560       png_save_uint_32           0000000180027560 f   pngwutil.obj
 0001:00026580       png_save_uint_16           0000000180027580 f   pngwutil.obj
 0001:00026590       png_write_sig              0000000180027590 f   pngwutil.obj
 0001:000267d0       png_write_chunk_start      00000001800277d0 f   pngwutil.obj
 0001:00026800       png_write_chunk_data       0000000180027800 f   pngwutil.obj
 0001:00026860       png_write_chunk_end        0000000180027860 f   pngwutil.obj
 0001:000269c0       png_write_chunk            00000001800279c0 f   pngwutil.obj
 0001:00026f50       png_free_buffer_list       0000000180027f50 f   pngwutil.obj
 0001:00027480       png_write_IHDR             0000000180028480 f   pngwutil.obj
 0001:00027920       png_write_PLTE             0000000180028920 f   pngwutil.obj
 0001:00027ae0       png_compress_IDAT          0000000180028ae0 f   pngwutil.obj
 0001:00027da0       png_write_gAMA_fixed       0000000180028da0 f   pngwutil.obj
 0001:00027e30       png_write_sRGB             0000000180028e30 f   pngwutil.obj
 0001:00027ed0       png_write_iCCP             0000000180028ed0 f   pngwutil.obj
 0001:00028160       png_write_sPLT             0000000180029160 f   pngwutil.obj
 0001:00028450       png_write_sBIT             0000000180029450 f   pngwutil.obj
 0001:00028530       png_write_cHRM_fixed       0000000180029530 f   pngwutil.obj
 0001:000286b0       png_write_tRNS             00000001800296b0 f   pngwutil.obj
 0001:00028900       png_write_bKGD             0000000180029900 f   pngwutil.obj
 0001:00028b10       png_write_hIST             0000000180029b10 f   pngwutil.obj
 0001:00028cb0       png_write_tEXt             0000000180029cb0 f   pngwutil.obj
 0001:00028e40       png_write_zTXt             0000000180029e40 f   pngwutil.obj
 0001:00029030       png_write_iTXt             000000018002a030 f   pngwutil.obj
 0001:000293a0       png_write_oFFs             000000018002a3a0 f   pngwutil.obj
 0001:000294b0       png_write_pCAL             000000018002a4b0 f   pngwutil.obj
 0001:000299b0       png_write_sCAL_s           000000018002a9b0 f   pngwutil.obj
 0001:00029b10       png_write_pHYs             000000018002ab10 f   pngwutil.obj
 0001:00029c20       png_write_tIME             000000018002ac20 f   pngwutil.obj
 0001:00029d40       png_write_start_row        000000018002ad40 f   pngwutil.obj
 0001:00029ee0       png_write_finish_row       000000018002aee0 f   pngwutil.obj
 0001:0002a070       png_do_write_interlace     000000018002b070 f   pngwutil.obj
 0001:0002a740       png_write_find_filter      000000018002b740 f   pngwutil.obj
 0001:0002aa70       png_write_data             000000018002ba70 f   pngwio.obj
 0001:0002aac0       png_default_write_data     000000018002bac0 f   pngwio.obj
 0001:0002ab40       png_default_flush          000000018002bb40 f   pngwio.obj
 0001:0002ab60       png_set_write_fn           000000018002bb60 f   pngwio.obj
 0001:0002b1c0       png_do_write_transformations 000000018002c1c0 f   pngwtran.obj
 0001:0002b350       adler32                    000000018002c350 f   adler32.obj
 0001:0002b930       zcalloc                    000000018002c930 f   zutil.obj
 0001:0002b940       zcfree                     000000018002c940 f   zutil.obj
 0001:0002b950       deflateInit2_              000000018002c950 f   deflate.obj
 0001:0002bbb0       deflateResetKeep           000000018002cbb0 f   deflate.obj
 0001:0002bd40       deflate                    000000018002cd40 f   deflate.obj
 0001:0002c690       deflateEnd                 000000018002d690 f   deflate.obj
 0001:0002f190       _tr_stored_block           0000000180030190 f   trees.obj
 0001:0002f230       _tr_align                  0000000180030230 f   trees.obj
 0001:0002f350       _tr_flush_block            0000000180030350 f   trees.obj
 0001:0002fc10       EGifOpen                   0000000180030c10 f   egif_lib.obj
 0001:0002fd40       EGifGetGifVersion          0000000180030d40 f   egif_lib.obj
 0001:0002fe30       EGifPutScreenDesc          0000000180030e30 f   egif_lib.obj
 0001:00030080       EGifPutImageDesc           0000000180031080 f   egif_lib.obj
 0001:00030310       EGifPutLine                0000000180031310 f   egif_lib.obj
 0001:00030650       EGifPutExtensionBlock      0000000180031650 f   egif_lib.obj
 0001:00030700       EGifCloseFile              0000000180031700 f   egif_lib.obj
 0001:00030d30       EGifSpew                   0000000180031d30 f   egif_lib.obj
 0001:00030f40       GifErrorString             0000000180031f40 f   gif_err.obj
 0001:000310c0       GifMakeMapObject           00000001800320c0 f   gifalloc.obj
 0001:00031190       GifAddExtensionBlock       0000000180032190 f   gifalloc.obj
 0001:00031250       GifMakeSavedImage          0000000180032250 f   gifalloc.obj
 0001:000312d0       GifQuantizeBuffer          00000001800322d0 f   quantize.obj
 0001:00031a6c       __imp_load_node_module_register 0000000180032a6c f   node:node.exe
 0001:00031a78       __tailMerge_node_exe       0000000180032a78 f i node:node.exe
 0001:00031af1       __imp_load_uv_default_loop 0000000180032af1 f   node:node.exe
 0001:00031afd       __imp_load_?ToLocalEmpty@V8@v8@@CAXXZ 0000000180032afd f   node:node.exe
 0001:00031b09       __imp_load_?DisposeGlobal@V8@v8@@CAXPEAPEAVObject@internal@2@@Z 0000000180032b09 f   node:node.exe
 0001:00031b15       __imp_load_?GlobalizeReference@V8@v8@@CAPEAPEAVObject@internal@2@PEAVIsolate@42@PEAPEAV342@@Z 0000000180032b15 f   node:node.exe
 0001:00031b21       __imp_load_?Escape@EscapableHandleScope@v8@@AEAAPEAPEAVObject@internal@2@PEAPEAV342@@Z 0000000180032b21 f   node:node.exe
 0001:00031b2d       __imp_load_??0EscapableHandleScope@v8@@QEAA@PEAVIsolate@1@@Z 0000000180032b2d f   node:node.exe
 0001:00031b39       __imp_load_?BooleanValue@Value@v8@@QEBA_NXZ 0000000180032b39 f   node:node.exe
 0001:00031b45       __imp_load_?GetFunction@FunctionTemplate@v8@@QEAA?AV?$MaybeLocal@VFunction@v8@@@2@V?$Local@VContext@v8@@@2@@Z 0000000180032b45 f   node:node.exe
 0001:00031b51       __imp_load_?New@FunctionTemplate@v8@@SA?AV?$Local@VFunctionTemplate@v8@@@2@PEAVIsolate@2@P6AXAEBV?$FunctionCallbackInfo@VValue@v8@@@2@@ZV?$Local@VValue@v8@@@2@V?$Local@VSignature@v8@@@2@H@Z 0000000180032b51 f   node:node.exe
 0001:00031b5d       __imp_load_?NewFromUtf8@String@v8@@SA?AV?$MaybeLocal@VString@v8@@@2@PEAVIsolate@2@PEBDW4NewStringType@2@H@Z 0000000180032b5d f   node:node.exe
 0001:00031b69       __imp_load_?WriteUtf8@String@v8@@QEBAHPEADHPEAHH@Z 0000000180032b69 f   node:node.exe
 0001:00031b75       __imp_load_?Utf8Length@String@v8@@QEBAHXZ 0000000180032b75 f   node:node.exe
 0001:00031b81       __imp_load_?CreateHandle@HandleScope@v8@@KAPEAPEAVObject@internal@2@PEAVIsolate@42@PEAV342@@Z 0000000180032b81 f   node:node.exe
 0001:00031b8d       __imp_load_?CreateHandle@HandleScope@v8@@CAPEAPEAVObject@internal@2@PEAVHeapObject@42@PEAV342@@Z 0000000180032b8d f   node:node.exe
 0001:00031b99       __imp_load_??1HandleScope@v8@@QEAA@XZ 0000000180032b99 f   node:node.exe
 0001:00031ba5       __imp_load_??0HandleScope@v8@@QEAA@PEAVIsolate@1@@Z 0000000180032ba5 f   node:node.exe
 0001:00031bb1       __imp_load_?SlowGetInternalField@Object@v8@@AEAA?AV?$Local@VValue@v8@@@2@H@Z 0000000180032bb1 f   node:node.exe
 0001:00031bbd       __imp_load_?New@Object@v8@@SA?AV?$Local@VObject@v8@@@2@PEAVIsolate@2@@Z 0000000180032bbd f   node:node.exe
 0001:00031bc9       __imp_load_?SetInternalField@Object@v8@@QEAAXHV?$Local@VValue@v8@@@2@@Z 0000000180032bc9 f   node:node.exe
 0001:00031bd5       __imp_load_?Set@Object@v8@@QEAA?AV?$Maybe@_N@2@V?$Local@VContext@v8@@@2@V?$Local@VValue@v8@@@2@1@Z 0000000180032bd5 f   node:node.exe
 0001:00031be1       __imp_load_?Set@Object@v8@@QEAA?AV?$Maybe@_N@2@V?$Local@VContext@v8@@@2@IV?$Local@VValue@v8@@@2@@Z 0000000180032be1 f   node:node.exe
 0001:00031bed       __imp_load_?SetInternalFieldCount@ObjectTemplate@v8@@QEAAXH@Z 0000000180032bed f   node:node.exe
 0001:00031bf9       __imp_load_?NewInstance@ObjectTemplate@v8@@QEAA?AV?$MaybeLocal@VObject@v8@@@2@V?$Local@VContext@v8@@@2@@Z 0000000180032bf9 f   node:node.exe
 0001:00031c05       __imp_load_?New@ObjectTemplate@v8@@SA?AV?$Local@VObjectTemplate@v8@@@2@PEAVIsolate@2@V?$Local@VFunctionTemplate@v8@@@2@@Z 0000000180032c05 f   node:node.exe
 0001:00031c11       __imp_load_?Value@Integer@v8@@QEBA_JXZ 0000000180032c11 f   node:node.exe
 0001:00031c1d       __imp_load_?GetCurrentContext@Isolate@v8@@QEAA?AV?$Local@VContext@v8@@@2@XZ 0000000180032c1d f   node:node.exe
 0001:00031c29       __imp_load_?GetCurrent@Isolate@v8@@SAPEAV12@XZ 0000000180032c29 f   node:node.exe
 0001:00031c35       __imp_load_?Value@External@v8@@QEBAPEAXXZ 0000000180032c35 f   node:node.exe
 0001:00031c41       __imp_load_?New@External@v8@@SA?AV?$Local@VExternal@v8@@@2@PEAVIsolate@2@PEAX@Z 0000000180032c41 f   node:node.exe
 0001:00031c4d       __imp_load_uv_queue_work   0000000180032c4d f   node:node.exe
 0001:00031c59       __imp_load_??1EscapableHandleScope@v8@@QEAA@XZ 0000000180032c59 f   node:node.exe
 0001:00031c65       __imp_load_?Data@Buffer@node@@YAPEADV?$Local@VObject@v8@@@v8@@@Z 0000000180032c65 f   node:node.exe
 0001:00031c71       __imp_load_?New@Buffer@node@@YA?AV?$MaybeLocal@VObject@v8@@@v8@@PEAVIsolate@4@PEAD_K@Z 0000000180032c71 f   node:node.exe
 0001:00031c7d       __imp_load_?MakeCallback@node@@YA?AV?$Local@VValue@v8@@@v8@@PEAVIsolate@3@V?$Local@VObject@v8@@@3@V?$Local@VFunction@v8@@@3@HPEAV23@@Z 0000000180032c7d f   node:node.exe
 0001:00031c89       __imp_load_?Global@Context@v8@@QEAA?AV?$Local@VObject@v8@@@2@XZ 0000000180032c89 f   node:node.exe
 0001:00031c95       __imp_load_?Error@Exception@v8@@SA?AV?$Local@VValue@v8@@@2@V?$Local@VString@v8@@@2@@Z 0000000180032c95 f   node:node.exe
 0001:00031ca1       __imp_load_?Get@Object@v8@@QEAA?AV?$Local@VValue@v8@@@2@I@Z 0000000180032ca1 f   node:node.exe
 0001:00031cad       __imp_load_?Set@Object@v8@@QEAA_NV?$Local@VValue@v8@@@2@0@Z 0000000180032cad f   node:node.exe
 0001:00031cbc       ??0bad_alloc@std@@QEAA@AEBV01@@Z 0000000180032cbc f i libcpmt:xthrow.obj
 0001:00031ce0       ??1bad_alloc@std@@UEAA@XZ  0000000180032ce0 f i libcpmt:xthrow.obj
 0001:00031cf0       ??_Ebad_alloc@std@@UEAAPEAXI@Z 0000000180032cf0 f i libcpmt:xthrow.obj
 0001:00031cf0       ??_Gbad_alloc@std@@UEAAPEAXI@Z 0000000180032cf0 f i libcpmt:xthrow.obj
 0001:00031d2c       ??_U@YAPEAX_K@Z            0000000180032d2c f   libcpmt:newaop.obj
 0001:00031d50       __security_check_cookie    0000000180032d50 f   LIBCMT:amdsecgs.obj
 0001:00031d80       memcpy                     0000000180032d80 f   LIBCMT:memcpy.obj
 0001:00031d80       memmove                    0000000180032d80 f   LIBCMT:memcpy.obj
 0001:000322e8       malloc                     00000001800332e8 f   LIBCMT:malloc.obj
 0001:000323a0       __onexitinit               00000001800333a0 f   LIBCMT:onexit.obj
 0001:000323e4       _onexit                    00000001800333e4 f   LIBCMT:onexit.obj
 0001:000324f0       atexit                     00000001800334f0 f   LIBCMT:onexit.obj
 0001:00032508       ??_V@YAXPEAX@Z             0000000180033508 f   LIBCMT:delete2.obj
 0001:00032510       _purecall                  0000000180033510 f   LIBCMT:purevirt.obj
 0001:0003253c       ??3@YAXPEAX@Z              000000018003353c f   LIBCMT:delete.obj
 0001:00032544       ??2@YAPEAX_K@Z             0000000180033544 f   LIBCMT:new.obj
 0001:000325b0       _vsnprintf_helper          00000001800335b0 f   LIBCMT:vsnprnc.obj
 0001:00032698       _vsnprintf_s               0000000180033698 f   LIBCMT:vsnprnc.obj
 0001:000326b8       _vsnprintf_s_l             00000001800336b8 f   LIBCMT:vsnprnc.obj
 0001:00032800       free                       0000000180033800 f   LIBCMT:free.obj
 0001:00032840       __initstdio                0000000180033840 f   LIBCMT:_file.obj
 0001:000328d8       __endstdio                 00000001800338d8 f   LIBCMT:_file.obj
 0001:00032908       __iob_func                 0000000180033908 f   LIBCMT:_file.obj
 0001:00032910       _lock_file                 0000000180033910 f   LIBCMT:_file.obj
 0001:00032978       _lock_file2                0000000180033978 f   LIBCMT:_file.obj
 0001:000329ac       _unlock_file               00000001800339ac f   LIBCMT:_file.obj
 0001:000329fc       _unlock_file2              00000001800339fc f   LIBCMT:_file.obj
 0001:00032a1c       _getpid                    0000000180033a1c f   LIBCMT:getpid.obj
 0001:00032a24       remove                     0000000180033a24 f   LIBCMT:unlink.obj
 0001:00032a6c       _wassert                   0000000180033a6c f   LIBCMT:wassert.obj
 0001:000333e0       strncpy                    00000001800343e0 f   LIBCMT:strncpy.obj
 0001:00033544       _fsopen                    0000000180034544 f   LIBCMT:fopen.obj
 0001:0003361c       fopen                      000000018003461c f   LIBCMT:fopen.obj
 0001:00033628       fprintf                    0000000180034628 f   LIBCMT:fprintf.obj
 0001:00033750       rand                       0000000180034750 f   LIBCMT:rand.obj
 0001:0003377c       srand                      000000018003477c f   LIBCMT:rand.obj
 0001:00033794       vsnprintf                  0000000180034794 f   LIBCMT:vsnprint.obj
 0001:00033794       _vsnprintf                 0000000180034794 f   LIBCMT:vsnprint.obj
 0001:000337ac       _vsnprintf_l               00000001800347ac f   LIBCMT:vsnprint.obj
 0001:00033890       longjmp                    0000000180034890 f   LIBCMT:longjmp.obj
 0001:0003397c       _getenv_helper_nolock      000000018003497c f   LIBCMT:getenv.obj
 0001:00033a20       getenv                     0000000180034a20 f   LIBCMT:getenv.obj
 0001:00033a8c       ??8type_info@@QEBA_NAEBV0@@Z 0000000180034a8c f   LIBCMT:typinfo.obj
 0001:00033aac       ??_Etype_info@@UEAAPEAXI@Z 0000000180034aac f i LIBCMT:typinfo.obj
 0001:00033aac       ??_Gtype_info@@UEAAPEAXI@Z 0000000180034aac f i LIBCMT:typinfo.obj
 0001:00033ae8       _vscprintf                 0000000180034ae8 f   LIBCMT:vsprintf.obj
 0001:00033b00       _vscprintf_helper          0000000180034b00 f   LIBCMT:vsprintf.obj
 0001:00033b90       _fclose_nolock             0000000180034b90 f   LIBCMT:fclose.obj
 0001:00033c0c       fclose                     0000000180034c0c f   LIBCMT:fclose.obj
 0001:00033c74       realloc                    0000000180034c74 f   LIBCMT:realloc.obj
 0001:00033d48       _fflush_nolock             0000000180034d48 f   LIBCMT:fflush.obj
 0001:00033d94       _flush                     0000000180034d94 f   LIBCMT:fflush.obj
 0001:00033e10       _flushall                  0000000180034e10 f   LIBCMT:fflush.obj
 0001:00033e1c       fflush                     0000000180034e1c f   LIBCMT:fflush.obj
 0001:00033f48       ferror                     0000000180034f48 f   LIBCMT:feoferr.obj
 0001:00033f70       _fwrite_nolock             0000000180034f70 f   LIBCMT:fwrite.obj
 0001:00034100       fwrite                     0000000180035100 f   LIBCMT:fwrite.obj
 0001:00034190       sprintf                    0000000180035190 f   LIBCMT:sprintf.obj
 0001:00034230       __copy_path_to_wide_string 0000000180035230 f   LIBCMT:crt0dat.obj
 0001:00034330       __crtCorExitProcess        0000000180035330 f   LIBCMT:crt0dat.obj
 0001:00034374       __crtExitProcess           0000000180035374 f   LIBCMT:crt0dat.obj
 0001:0003438c       __freeCrtMemory            000000018003538c f   LIBCMT:crt0dat.obj
 0001:000344d4       _amsg_exit                 00000001800354d4 f   LIBCMT:crt0dat.obj
 0001:000344fc       _cexit                     00000001800354fc f   LIBCMT:crt0dat.obj
 0001:0003450c       _cinit                     000000018003550c f   LIBCMT:crt0dat.obj
 0001:000345a4       _exit                      00000001800355a4 f   LIBCMT:crt0dat.obj
 0001:000345b0       _init_pointers             00000001800355b0 f   LIBCMT:crt0dat.obj
 0001:0003465c       _initterm_e                000000018003565c f   LIBCMT:crt0dat.obj
 0001:00034698       _lockexit                  0000000180035698 f   LIBCMT:crt0dat.obj
 0001:000346a4       _unlockexit                00000001800356a4 f   LIBCMT:crt0dat.obj
 0001:00034848       sscanf                     0000000180035848 f   LIBCMT:sscanf.obj
 0001:00034928       __raise_securityfailure    0000000180035928 f   LIBCMT:gs_report.obj
 0001:00034974       __report_gsfailure         0000000180035974 f   LIBCMT:gs_report.obj
 0001:00034a48       __report_rangecheckfailure 0000000180035a48 f   LIBCMT:gs_report.obj
 0001:00034a5c       __report_securityfailure   0000000180035a5c f   LIBCMT:gs_report.obj
 0001:00034af8       modf                       0000000180035af8 f   LIBCMT:modf.obj
 0001:00034bb8       frexp                      0000000180035bb8 f   LIBCMT:frexp.obj
 0001:00034c94       ??0_LocaleUpdate@@QEAA@PEAUlocaleinfo_struct@@@Z 0000000180035c94 f i LIBCMT:atof.obj
 0001:00034d3c       _atof_l                    0000000180035d3c f   LIBCMT:atof.obj
 0001:00034df8       atof                       0000000180035df8 f   LIBCMT:atof.obj
 0001:00034e00       _set_abort_behavior        0000000180035e00 f   LIBCMT:abort.obj
 0001:00034e1c       abort                      0000000180035e1c f   LIBCMT:abort.obj
 0001:00034e74       _gmtime64                  0000000180035e74 f   LIBCMT:gmtime64.obj
 0001:00034ebc       _gmtime64_s                0000000180035ebc f   LIBCMT:gmtime64.obj
 0001:0003518c       strerror                   000000018003618c f   LIBCMT:strerror.obj
 0001:00035228       __doserrno                 0000000180036228 f   LIBCMT:dosmap.obj
 0001:00035248       _dosmaperr                 0000000180036248 f   LIBCMT:dosmap.obj
 0001:00035298       _errno                     0000000180036298 f   LIBCMT:dosmap.obj
 0001:000352b8       _get_errno_from_oserr      00000001800362b8 f   LIBCMT:dosmap.obj
 0001:00035308       _lseeki64                  0000000180036308 f   LIBCMT:lseeki64.obj
 0001:000353f0       _lseeki64_nolock           00000001800363f0 f   LIBCMT:lseeki64.obj
 0001:00035574       _wsopen_nolock             0000000180036574 f   LIBCMT:wopen.obj
 0001:00035d2c       _get_fmode                 0000000180036d2c f   LIBCMT:setmode.obj
 0001:00035d5c       _setmode_nolock            0000000180036d5c f   LIBCMT:setmode.obj
 0001:00035e38       calloc                     0000000180036e38 f   LIBCMT:calloc.obj
 0001:00035e80       qsort                      0000000180036e80 f   LIBCMT:qsort.obj
 0001:00036240       __ascii_stricmp            0000000180037240 f   LIBCMT:stricmp.obj
 0001:0003627c       _stricmp                   000000018003727c f   LIBCMT:stricmp.obj
 0001:000362c4       _stricmp_l                 00000001800372c4 f   LIBCMT:stricmp.obj
 0001:00036378       _CRT_INIT                  0000000180037378 f   LIBCMT:dllcrt0.obj
 0001:000364d8       _DllMainCRTStartup         00000001800374d8 f   LIBCMT:dllcrt0.obj
 0001:00036650       strlen                     0000000180037650 f   LIBCMT:strlen.obj
 0001:000366f8       _CxxThrowException         00000001800376f8 f   LIBCMT:throw.obj
 0001:000367c0       ?_GetEstablisherFrame@@YAPEA_KPEA_KPEAU_xDISPATCHER_CONTEXT@@PEBU_s_FuncInfo@@0@Z 00000001800377c0 f   LIBCMT:trnsctrl.obj
 0001:0003688c       ?_GetRangeOfTrysToCheck@@YAPEBU_s_TryBlockMapEntry@@PEA_KPEBU_s_FuncInfo@@HHPEAI2PEAU_xDISPATCHER_CONTEXT@@@Z 000000018003788c f   LIBCMT:trnsctrl.obj
 0001:000369b8       ?__FrameUnwindToEmptyState@@YAXPEA_KPEAU_xDISPATCHER_CONTEXT@@PEBU_s_FuncInfo@@@Z 00000001800379b8 f   LIBCMT:trnsctrl.obj
 0001:00036a4c       ?__SehTransFilter@@YAHPEAU_EXCEPTION_POINTERS@@PEAUEHExceptionRecord@@PEA_KPEAU_CONTEXT@@PEAU_xDISPATCHER_CONTEXT@@PEBU_s_FuncInfo@@PEAH@Z 0000000180037a4c f   LIBCMT:trnsctrl.obj
 0001:00036af0       _CallSETranslator          0000000180037af0 f   LIBCMT:trnsctrl.obj
 0001:00036b44       _CreateFrameInfo           0000000180037b44 f   LIBCMT:trnsctrl.obj
 0001:00036b88       _FindAndUnlinkFrame        0000000180037b88 f   LIBCMT:trnsctrl.obj
 0001:00036be8       _GetImageBase              0000000180037be8 f   LIBCMT:trnsctrl.obj
 0001:00036c00       _GetThrowImageBase         0000000180037c00 f   LIBCMT:trnsctrl.obj
 0001:00036c18       _IsExceptionObjectToBeDestroyed 0000000180037c18 f   LIBCMT:trnsctrl.obj
 0001:00036c4c       _SetImageBase              0000000180037c4c f   LIBCMT:trnsctrl.obj
 0001:00036c68       _SetThrowImageBase         0000000180037c68 f   LIBCMT:trnsctrl.obj
 0001:00036c84       _UnwindNestedFrames        0000000180037c84 f   LIBCMT:trnsctrl.obj
 0001:00036da8       __CxxFrameHandler3         0000000180037da8 f   LIBCMT:trnsctrl.obj
 0001:00036e30       _fpmath                    0000000180037e30 f   LIBCMT:fpinit.obj
 0001:00036e38       _cfltcvt_init              0000000180037e38 f   LIBCMT:fpinit.obj
 0001:00036ec0       ??0exception@std@@QEAA@AEBQEBD@Z 0000000180037ec0 f   LIBCMT:stdexcpt.obj
 0001:00036ef0       ??0exception@std@@QEAA@AEBQEBDH@Z 0000000180037ef0 f   LIBCMT:stdexcpt.obj
 0001:00036f0c       ??0exception@std@@QEAA@AEBV01@@Z 0000000180037f0c f   LIBCMT:stdexcpt.obj
 0001:00036f38       ??1exception@std@@UEAA@XZ  0000000180037f38 f   LIBCMT:stdexcpt.obj
 0001:00036f48       ??4exception@std@@QEAAAEAV01@AEBV01@@Z 0000000180037f48 f   LIBCMT:stdexcpt.obj
 0001:00036f8c       ??_Gexception@std@@UEAAPEAXI@Z 0000000180037f8c f i LIBCMT:stdexcpt.obj
 0001:00036f8c       ??_Eexception@std@@UEAAPEAXI@Z 0000000180037f8c f i LIBCMT:stdexcpt.obj
 0001:00036fc8       ?_Copy_str@exception@std@@AEAAXPEBD@Z 0000000180037fc8 f   LIBCMT:stdexcpt.obj
 0001:00037024       ?_Tidy@exception@std@@AEAAXXZ 0000000180038024 f   LIBCMT:stdexcpt.obj
 0001:0003704c       ?what@exception@std@@UEBAPEBDXZ 000000018003804c f   LIBCMT:stdexcpt.obj
 0001:00037060       __isa_available_init       0000000180038060 f   LIBCMT:cpu_disp.obj
 0001:00037204       _callnewh                  0000000180038204 f   LIBCMT:handler.obj
 0001:00037238       _initp_heap_handler        0000000180038238 f   LIBCMT:handler.obj
 0001:00037240       _FF_MSGBANNER              0000000180038240 f   LIBCMT:crt0msg.obj
 0001:00037284       _GET_RTERRMSG              0000000180038284 f   LIBCMT:crt0msg.obj
 0001:000372b4       _NMSG_WRITE                00000001800382b4 f   LIBCMT:crt0msg.obj
 0001:00037524       _heap_init                 0000000180038524 f   LIBCMT:heapinit.obj
 0001:00037544       _heap_term                 0000000180038544 f   LIBCMT:heapinit.obj
 0001:00037550       ?_inconsistency@@YAXXZ     0000000180038550 f   LIBCMT:hooks.obj
 0001:00037570       ?terminate@@YAXXZ          0000000180038570 f   LIBCMT:hooks.obj
 0001:00037590       _initp_eh_hooks            0000000180038590 f   LIBCMT:hooks.obj
 0001:000375b0       __C_specific_handler       00000001800385b0 f   LIBCMT:chandler.obj
 0001:00037794       _msize                     0000000180038794 f   LIBCMT:msize.obj
 0001:000377d0       _calloc_crt                00000001800387d0 f   LIBCMT:crtheap.obj
 0001:00037850       _malloc_crt                0000000180038850 f   LIBCMT:crtheap.obj
 0001:000378cc       _realloc_crt               00000001800388cc f   LIBCMT:crtheap.obj
 0001:00037950       _recalloc_crt              0000000180038950 f   LIBCMT:crtheap.obj
 0001:000379d4       _initp_misc_purevirt       00000001800389d4 f   LIBCMT:inithelp.obj
 0001:000379dc       _clrfp                     00000001800389dc f   LIBCMT:fpctrl.obj
 0001:000379fc       _ctrlfp                    00000001800389fc f   LIBCMT:fpctrl.obj
 0001:00037a78       _set_statfp                0000000180038a78 f   LIBCMT:fpctrl.obj
 0001:00037a98       _statfp                    0000000180038a98 f   LIBCMT:fpctrl.obj
 0001:00037bd0       _handle_error              0000000180038bd0 f   LIBCMT:libm_error.obj
 0001:00037cf8       _call_reportfault          0000000180038cf8 f   LIBCMT:invarg.obj
 0001:00037dec       _initp_misc_invarg         0000000180038dec f   LIBCMT:invarg.obj
 0001:00037df4       _invalid_parameter         0000000180038df4 f   LIBCMT:invarg.obj
 0001:00037e5c       _invalid_parameter_noinfo  0000000180038e5c f   LIBCMT:invarg.obj
 0001:00037e7c       _invoke_watson             0000000180038e7c f   LIBCMT:invarg.obj
 0001:00037eb8       _flsbuf                    0000000180038eb8 f   LIBCMT:_flsbuf.obj
 0001:00038044       _output_l                  0000000180039044 f   LIBCMT:output.obj
 0001:00038a54       _output_s_l                0000000180039a54 f   LIBCMT:outputs.obj
 0001:000395c0       memset                     000000018003a5c0 f   LIBCMT:memset.obj
 0001:000397ec       _fcloseall                 000000018003a7ec f   LIBCMT:closeall.obj
 0001:00039894       _lock                      000000018003a894 f   LIBCMT:mlock.obj
 0001:000398d8       _mtdeletelocks             000000018003a8d8 f   LIBCMT:mlock.obj
 0001:00039960       _mtinitlocknum             000000018003a960 f   LIBCMT:mlock.obj
 0001:00039a20       _mtinitlocks               000000018003aa20 f   LIBCMT:mlock.obj
 0001:00039a84       _unlock                    000000018003aa84 f   LIBCMT:mlock.obj
 0001:00039a9c       _wremove                   000000018003aa9c f   LIBCMT:wunlink.obj
 0001:00039acc       memcpy_s                   000000018003aacc f   LIBCMT:memcpy_s.obj
 0001:00039b54       wcscat_s                   000000018003ab54 f   LIBCMT:wcscat_s.obj
 0001:00039bdc       wcscpy_s                   000000018003abdc f   LIBCMT:wcscpy_s.obj
 0001:00039c48       wcslen                     000000018003ac48 f   LIBCMT:wcslen.obj
 0001:00039c64       wcsncat_s                  000000018003ac64 f   LIBCMT:wcsncat_s.obj
 0001:00039d4c       _set_error_mode            000000018003ad4c f   LIBCMT:errmode.obj
 0001:00039d8c       _itow_s                    000000018003ad8c f   LIBCMT:xtows.obj
 0001:00039ec4       setvbuf                    000000018003aec4 f   LIBCMT:setvbuf.obj
 0001:00039fdc       fwprintf                   000000018003afdc f   LIBCMT:fwprintf.obj
 0001:0003a070       _vswprintf_c_l             000000018003b070 f   LIBCMT:vswprnc.obj
 0001:0003a0a8       _vswprintf_helper          000000018003b0a8 f   LIBCMT:vswprnc.obj
 0001:0003a1c4       __get_sigabrt              000000018003b1c4 f   LIBCMT:winsig.obj
 0001:0003a1d4       _initp_misc_winsig         000000018003b1d4 f   LIBCMT:winsig.obj
 0001:0003a1f4       raise                      000000018003b1f4 f   LIBCMT:winsig.obj
 0001:0003a428       __crtMessageBoxW           000000018003b428 f   LIBCMT:crtmboxw.obj
 0001:0003a69c       __GSHandlerCheck           000000018003b69c f   LIBCMT:gshandler.obj
 0001:0003a6bc       __GSHandlerCheckCommon     000000018003b6bc f   LIBCMT:gshandler.obj
 0001:0003a720       _getstream                 000000018003b720 f   LIBCMT:stream.obj
 0001:0003a858       _openfile                  000000018003b858 f   LIBCMT:_open.obj
 0001:0003ab30       _local_unwind              000000018003bb30 f   LIBCMT:jmpuwind.obj
 0001:0003ab60       _NLG_Notify                000000018003bb60 f   LIBCMT:jmpuwind.obj
 0001:0003ab80       __NLG_Dispatch2            000000018003bb80 f   LIBCMT:jmpuwind.obj
 0001:0003ab90       __NLG_Return2              000000018003bb90 f   LIBCMT:jmpuwind.obj
 0001:0003ab94       _fileno                    000000018003bb94 f   LIBCMT:fileno.obj
 0001:0003abbc       _ftbuf                     000000018003bbbc f   LIBCMT:_sftbuf.obj
 0001:0003abf4       _stbuf                     000000018003bbf4 f   LIBCMT:_sftbuf.obj
 0001:0003acc4       _ioinit                    000000018003bcc4 f   LIBCMT:ioinit.obj
 0001:0003aff4       _ioterm                    000000018003bff4 f   LIBCMT:ioinit.obj
 0001:0003b068       _freefls                   000000018003c068 f   LIBCMT:tidtable.obj
 0001:0003b19c       _freeptd                   000000018003c19c f   LIBCMT:tidtable.obj
 0001:0003b1d8       _getptd                    000000018003c1d8 f   LIBCMT:tidtable.obj
 0001:0003b1fc       _getptd_noexit             000000018003c1fc f   LIBCMT:tidtable.obj
 0001:0003b280       _initptd                   000000018003c280 f   LIBCMT:tidtable.obj
 0001:0003b344       _mtinit                    000000018003c344 f   LIBCMT:tidtable.obj
 0001:0003b3c4       _mtterm                    000000018003c3c4 f   LIBCMT:tidtable.obj
 0001:0003b3e8       strcpy_s                   000000018003c3e8 f   LIBCMT:strcpy_s.obj
 0001:0003b44c       strnlen                    000000018003c44c f   LIBCMT:strlen_s.obj
 0001:0003b464       __wtomb_environ            000000018003c464 f   LIBCMT:wtombenv.obj
 0001:0003b558       _mbsnbicoll                000000018003c558 f   LIBCMT:mbsnbico.obj
 0001:0003b560       _mbsnbicoll_l              000000018003c560 f   LIBCMT:mbsnbico.obj
 0001:0003b670       strcmp                     000000018003c670 f   LIBCMT:strcmp.obj
 0001:0003b6d8       ?_Type_info_dtor@type_info@@CAXPEAV1@@Z 000000018003c6d8 f   LIBCMT:typname.obj
 0001:0003b744       close                      000000018003c744 f   LIBCMT:close.obj
 0001:0003b744       _close                     000000018003c744 f   LIBCMT:close.obj
 0001:0003b808       _close_nolock              000000018003c808 f   LIBCMT:close.obj
 0001:0003b8c4       _freebuf                   000000018003c8c4 f   LIBCMT:_freebuf.obj
 0001:0003b8fc       _commit                    000000018003c8fc f   LIBCMT:commit.obj
 0001:0003b9d4       _write                     000000018003c9d4 f   LIBCMT:write.obj
 0001:0003b9d4       write                      000000018003c9d4 f   LIBCMT:write.obj
 0001:0003bab8       _write_nolock              000000018003cab8 f   LIBCMT:write.obj
 0001:0003c2ac       _RTC_Initialize            000000018003d2ac f   LIBCMT:initsect.obj
 0001:0003c2e4       _RTC_Terminate             000000018003d2e4 f   LIBCMT:initsect.obj
 0001:0003c31c       __crtCaptureCurrentContext 000000018003d31c f   LIBCMT:winapisupp.obj
 0001:0003c38c       __crtCapturePreviousContext 000000018003d38c f   LIBCMT:winapisupp.obj
 0001:0003c400       __crtFlsAlloc              000000018003d400 f   LIBCMT:winapisupp.obj
 0001:0003c41c       __crtFlsFree               000000018003d41c f   LIBCMT:winapisupp.obj
 0001:0003c438       __crtFlsGetValue           000000018003d438 f   LIBCMT:winapisupp.obj
 0001:0003c454       __crtFlsSetValue           000000018003d454 f   LIBCMT:winapisupp.obj
 0001:0003c470       __crtInitializeCriticalSectionEx 000000018003d470 f   LIBCMT:winapisupp.obj
 0001:0003c49c       __crtIsPackagedApp         000000018003d49c f   LIBCMT:winapisupp.obj
 0001:0003c4e8       __crtLoadWinApiPointers    000000018003d4e8 f   LIBCMT:winapisupp.obj
 0001:0003c8e4       __crtSleep                 000000018003d8e4 f   LIBCMT:winapisupp.obj
 0001:0003c8ec       __crtTerminateProcess      000000018003d8ec f   LIBCMT:winapisupp.obj
 0001:0003c90c       __crtUnhandledException    000000018003d90c f   LIBCMT:winapisupp.obj
 0001:0003c930       _FindPESection             000000018003d930 f   LIBCMT:pesect.obj
 0001:0003c980       _IsNonwritableInCurrentImage 000000018003d980 f   LIBCMT:pesect.obj
 0001:0003c9d0       _ValidateImageBase         000000018003d9d0 f   LIBCMT:pesect.obj
 0001:0003ca00       _initp_misc_cfltcvt_tab    000000018003da00 f   LIBCMT:cmiscdat.obj
 0001:0003ca3c       _initp_misc_rand_s         000000018003da3c f   LIBCMT:rand_s.obj
 0001:0003ca44       __initmbctable             000000018003da44 f   LIBCMT:mbctype.obj
 0001:0003cd60       __updatetmbcinfo           000000018003dd60 f   LIBCMT:mbctype.obj
 0001:0003ce1c       _setmbcp                   000000018003de1c f   LIBCMT:mbctype.obj
 0001:0003d060       _setmbcp_nolock            000000018003e060 f   LIBCMT:mbctype.obj
 0001:0003d3d0       _input_l                   000000018003e3d0 f   LIBCMT:input.obj
 0001:0003e3b8       __crt_debugger_hook        000000018003f3b8 f   LIBCMT:dbghook.obj
 0001:0003e3c0       _errcode                   000000018003f3c0 f   LIBCMT:fpexcept.obj
 0001:0003e404       _except1                   000000018003f404 f   LIBCMT:fpexcept.obj
 0001:0003e4f4       _handle_exc                000000018003f4f4 f   LIBCMT:fpexcept.obj
 0001:0003e758       _handle_qnan1              000000018003f758 f   LIBCMT:fpexcept.obj
 0001:0003e7b8       _raise_exc                 000000018003f7b8 f   LIBCMT:fpexcept.obj
 0001:0003e7e0       _raise_exc_ex              000000018003f7e0 f   LIBCMT:fpexcept.obj
 0001:0003eae4       _set_errno_from_matherr    000000018003fae4 f   LIBCMT:fpexcept.obj
 0001:0003eb14       _umatherr                  000000018003fb14 f   LIBCMT:fpexcept.obj
 0001:0003ebe8       _decomp                    000000018003fbe8 f   LIBCMT:util.obj
 0001:0003ed1c       _sptype                    000000018003fd1c f   LIBCMT:util.obj
 0001:0003ed90       _fltin2                    000000018003fd90 f   LIBCMT:cfin.obj
 0001:0003ee54       __strgtold12_l             000000018003fe54 f   LIBCMT:strgtold.obj
 0001:0003f6b8       __addlocaleref             00000001800406b8 f   LIBCMT:localref.obj
 0001:0003f744       __freetlocinfo             0000000180040744 f   LIBCMT:localref.obj
 0001:0003f8dc       __removelocaleref          00000001800408dc f   LIBCMT:localref.obj
 0001:0003f980       __updatetlocinfo           0000000180040980 f   LIBCMT:localref.obj
 0001:0003f9f8       _updatetlocinfoEx_nolock   00000001800409f8 f   LIBCMT:localref.obj
 0001:0003fa5c       _isctype_l                 0000000180040a5c f   LIBCMT:isctype.obj
 0001:0003fb38       __getgmtimebuf             0000000180040b38 f   LIBCMT:gmtime.obj
 0001:0003fb80       __sys_errlist              0000000180040b80 f   LIBCMT:syserr.obj
 0001:0003fb88       __sys_nerr                 0000000180040b88 f   LIBCMT:syserr.obj
 0001:0003fb90       __lock_fhandle             0000000180040b90 f   LIBCMT:osfinfo.obj
 0001:0003fc28       _alloc_osfhnd              0000000180040c28 f   LIBCMT:osfinfo.obj
 0001:0003fe20       _free_osfhnd               0000000180040e20 f   LIBCMT:osfinfo.obj
 0001:0003fecc       _get_osfhandle             0000000180040ecc f   LIBCMT:osfinfo.obj
 0001:0003ff40       _set_osfhnd                0000000180040f40 f   LIBCMT:osfinfo.obj
 0001:0003fff0       _unlock_fhandle            0000000180040ff0 f   LIBCMT:osfinfo.obj
 0001:0004001c       _chsize_nolock             000000018004101c f   LIBCMT:chsize.obj
 0001:000401b4       _read                      00000001800411b4 f   LIBCMT:read.obj
 0001:000402d0       _read_nolock               00000001800412d0 f   LIBCMT:read.obj
 0001:00040b40       _calloc_impl               0000000180041b40 f   LIBCMT:calloc_impl.obj
 0001:00040bdc       _tolower_l                 0000000180041bdc f   LIBCMT:tolower.obj
 0001:00040d30       tolower                    0000000180041d30 f   LIBCMT:tolower.obj
 0001:00040d50       _locterm                   0000000180041d50 f   LIBCMT:wsetloca.obj
 0001:00040d98       _XcptFilter                0000000180041d98 f   LIBCMT:winxfltr.obj
 0001:00040f64       __CppXcptFilter            0000000180041f64 f   LIBCMT:winxfltr.obj
 0001:00040f78       _setargv                   0000000180041f78 f   LIBCMT:stdargv.obj
 0001:00041234       _setenvp                   0000000180042234 f   LIBCMT:stdenvp.obj
 0001:00041368       __security_init_cookie     0000000180042368 f   LIBCMT:gs_support.obj
 0001:00041414       DllMain                    0000000180042414 f   LIBCMT:dllmain.obj
 0001:0004141c       __crtGetEnvironmentStringsA 000000018004241c f   LIBCMT:a_env.obj
 0001:00041510       __DestructExceptionObject  0000000180042510 f   LIBCMT:frame.obj
 0001:00041580       ??0bad_exception@std@@QEAA@AEBV01@@Z 0000000180042580 f i LIBCMT:frame.obj
 0001:000415a4       ??1bad_exception@std@@UEAA@XZ 00000001800425a4 f i LIBCMT:frame.obj
 0001:000415b4       ??_Ebad_exception@std@@UEAAPEAXI@Z 00000001800425b4 f i LIBCMT:frame.obj
 0001:000415b4       ??_Gbad_exception@std@@UEAAPEAXI@Z 00000001800425b4 f i LIBCMT:frame.obj
 0001:00041ea8       __AdjustPointer            0000000180042ea8 f   LIBCMT:frame.obj
 0001:00041ecc       __BuildCatchObject         0000000180042ecc f   LIBCMT:frame.obj
 0001:00041f84       __BuildCatchObjectHelper   0000000180042f84 f   LIBCMT:frame.obj
 0001:000421d4       __CxxCallCatchBlock        00000001800431d4 f   LIBCMT:frame.obj
 0001:000423d8       __FrameUnwindFilter        00000001800433d8 f   LIBCMT:frame.obj
 0001:0004242c       __FrameUnwindToState       000000018004342c f   LIBCMT:frame.obj
 0001:000425c0       __InternalCxxFrameHandler  00000001800435c0 f   LIBCMT:frame.obj
 0001:000427e4       __TypeMatch                00000001800437e4 f   LIBCMT:frame.obj
 0001:00042914       ?__GetCurrentState@@YAHPEA_KPEAU_xDISPATCHER_CONTEXT@@PEBU_s_FuncInfo@@@Z 0000000180043914 f   LIBCMT:ehstate.obj
 0001:0004293c       ?__GetUnwindTryBlock@@YAHPEA_KPEAU_xDISPATCHER_CONTEXT@@PEBU_s_FuncInfo@@@Z 000000018004393c f   LIBCMT:ehstate.obj
 0001:00042968       ?__SetState@@YAXPEA_KPEAU_xDISPATCHER_CONTEXT@@PEBU_s_FuncInfo@@H@Z 0000000180043968 f   LIBCMT:ehstate.obj
 0001:00042974       ?__SetUnwindTryBlock@@YAXPEA_KPEAU_xDISPATCHER_CONTEXT@@PEBU_s_FuncInfo@@H@Z 0000000180043974 f   LIBCMT:ehstate.obj
 0001:000429b0       ?__StateFromControlPc@@YAHPEBU_s_FuncInfo@@PEAU_xDISPATCHER_CONTEXT@@@Z 00000001800439b0 f   LIBCMT:ehstate.obj
 0001:000429b8       ?__StateFromIp@@YAHPEBU_s_FuncInfo@@PEAU_xDISPATCHER_CONTEXT@@_J@Z 00000001800439b8 f   LIBCMT:ehstate.obj
 0001:00042a44       _cfltcvt                   0000000180043a44 f   LIBCMT:cvt.obj
 0001:00042a68       _cfltcvt_l                 0000000180043a68 f   LIBCMT:cvt.obj
 0001:00042ae8       _cftoa_l                   0000000180043ae8 f   LIBCMT:cvt.obj
 0001:00043094       _cftoe_l                   0000000180044094 f   LIBCMT:cvt.obj
 0001:000432f0       _cftof_l                   00000001800442f0 f   LIBCMT:cvt.obj
 0001:000433c4       _cftog_l                   00000001800443c4 f   LIBCMT:cvt.obj
 0001:000434f8       _cropzeros                 00000001800444f8 f   LIBCMT:cvt.obj
 0001:00043500       _cropzeros_l               0000000180044500 f   LIBCMT:cvt.obj
 0001:00043598       _fassign                   0000000180044598 f   LIBCMT:cvt.obj
 0001:000435a0       _fassign_l                 00000001800445a0 f   LIBCMT:cvt.obj
 0001:000435e0       _forcdecpt                 00000001800445e0 f   LIBCMT:cvt.obj
 0001:000435e8       _forcdecpt_l               00000001800445e8 f   LIBCMT:cvt.obj
 0001:00043668       _positive                  0000000180044668 f   LIBCMT:cvt.obj
 0001:0004367c       wcsncpy_s                  000000018004467c f   LIBCMT:wcsncpy_s.obj
 0001:00043748       _recalloc                  0000000180044748 f   LIBCMT:recalloc.obj
 0001:000437d0       GetTableIndexFromLocaleName 00000001800447d0 f   LIBCMT:winapinls.obj
 0001:0004385c       __crtCompareStringEx       000000018004485c f   LIBCMT:winapinls.obj
 0001:000438ec       __crtDownlevelLocaleNameToLCID 00000001800448ec f   LIBCMT:winapinls.obj
 0001:00043920       __crtLCMapStringEx         0000000180044920 f   LIBCMT:winapinls.obj
 0001:000439b0       __wcsnicmp_ascii           00000001800449b0 f   LIBCMT:winapinls.obj
 0001:00043a20       _get_fpsr                  0000000180044a20 f   LIBCMT:fpsr.obj
 0001:00043a30       _set_fpsr                  0000000180044a30 f   LIBCMT:fpsr.obj
 0001:00043a3a       _fclrf                     0000000180044a3a f   LIBCMT:fpsr.obj
 0001:00043a4e       _frnd                      0000000180044a4e f   LIBCMT:fpsr.obj
 0001:00043a70       _isatty                    0000000180044a70 f   LIBCMT:isatty.obj
 0001:00043ad0       _getbuf                    0000000180044ad0 f   LIBCMT:_getbuf.obj
 0001:00043b24       _isleadbyte_l              0000000180044b24 f i LIBCMT:_wctype.obj
 0001:00043b68       isleadbyte                 0000000180044b68 f i LIBCMT:_wctype.obj
 0001:00043bb0       _get_printf_count_output   0000000180044bb0 f   LIBCMT:printf.obj
 0001:00043bc8       _wctomb_s_l                0000000180044bc8 f   LIBCMT:wctomb.obj
 0001:00043d54       wctomb_s                   0000000180044d54 f   LIBCMT:wctomb.obj
 0001:00043d68       _woutput_l                 0000000180044d68 f   LIBCMT:woutput.obj
 0001:00044928       _sopen_helper              0000000180045928 f   LIBCMT:open.obj
 0001:00044a08       _sopen_nolock              0000000180045a08 f   LIBCMT:open.obj
 0001:00044a90       _sopen_s                   0000000180045a90 f   LIBCMT:open.obj
 0001:00044ac4       _mbsnbcmp                  0000000180045ac4 f   LIBCMT:mbsnbcmp.obj
 0001:00044acc       _mbsnbcmp_l                0000000180045acc f   LIBCMT:mbsnbcmp.obj
 0001:00044bf8       _mbsnbicmp                 0000000180045bf8 f   LIBCMT:mbsnbicm.obj
 0001:00044c00       _mbsnbicmp_l               0000000180045c00 f   LIBCMT:mbsnbicm.obj
 0001:00044db0       __crtsetenv                0000000180045db0 f   LIBCMT:setenv.obj
 0001:00045164       _strnicoll_l               0000000180046164 f   LIBCMT:strnicol.obj
 0001:000455cc       __crtCompareStringA        00000001800465cc f   LIBCMT:a_cmp.obj
 0001:00045658       _mbtowc_l                  0000000180046658 f   LIBCMT:mbtowc.obj
 0001:000457ac       mbtowc                     00000001800467ac f   LIBCMT:mbtowc.obj
 0001:000457b4       _putwch_nolock             00000001800467b4 f   LIBCMT:putwch.obj
 0001:00045820       _alloca_probe              0000000180046820 f   LIBCMT:chkstk.obj
 0001:00045820       __chkstk                   0000000180046820 f   LIBCMT:chkstk.obj
 0001:00045870       _fptrap                    0000000180046870 f   LIBCMT:crt0fp.obj
 0001:00045b68       __crtLCMapStringA          0000000180046b68 f   LIBCMT:a_map.obj
 0001:00045d78       __crtGetStringTypeA        0000000180046d78 f   LIBCMT:a_str.obj
 0001:00045df4       _filbuf                    0000000180046df4 f   LIBCMT:_filbuf.obj
 0001:00045f38       _ungetc_nolock             0000000180046f38 f   LIBCMT:ungetc.obj
 0001:00046040       isdigit                    0000000180047040 f i LIBCMT:_ctype.obj
 0001:000460bc       isspace                    00000001800470bc f i LIBCMT:_ctype.obj
 0001:00046138       isxdigit                   0000000180047138 f i LIBCMT:_ctype.obj
 0001:000461b8       _ld12tod                   00000001800471b8 f   LIBCMT:intrncvt.obj
 0001:00046770       _ld12tof                   0000000180047770 f   LIBCMT:intrncvt.obj
 0001:00046d28       __mtold12                  0000000180047d28 f   LIBCMT:mantold.obj
 0001:00046f4c       __free_lconv_mon           0000000180047f4c f   LIBCMT:initmon.obj
 0001:00047058       __free_lconv_num           0000000180048058 f   LIBCMT:initnum.obj
 0001:000470c4       __free_lc_time             00000001800480c4 f   LIBCMT:inittime.obj
 0001:000474d0       memcmp                     00000001800484d0 f   LIBCMT:memcmp.obj
 0001:00047614       _ismbblead                 0000000180048614 f   LIBCMT:ismbbyte.obj
 0001:00047628       ?_ValidateExecute@@YAHP6A_JXZ@Z 0000000180048628 f   LIBCMT:validate.obj
 0001:00047628       ?_ValidateRead@@YAHPEBXI@Z 0000000180048628 f   LIBCMT:validate.obj
 0001:00047628       ?_ValidateWrite@@YAHPEAXI@Z 0000000180048628 f   LIBCMT:validate.obj
 0001:00047650       _CallSettingFrame          0000000180048650 f   LIBCMT:handlers.obj
 0001:00047690       _GetNextInstrOffset        0000000180048690 f   LIBCMT:handlers.obj
 0001:00047698       strrchr                    0000000180048698 f   LIBCMT:strrchr.obj
 0001:000477dc       _fptostr                   00000001800487dc f   LIBCMT:_fptostr.obj
 0001:000478a8       __crt_atoflt_l             00000001800488a8 f   LIBCMT:atodbl.obj
 0001:00047978       _atodbl_l                  0000000180048978 f   LIBCMT:atodbl.obj
 0001:00047a40       _atoflt_l                  0000000180048a40 f   LIBCMT:atodbl.obj
 0001:00047a48       __dtold                    0000000180048a48 f   LIBCMT:cfout.obj
 0001:00047b18       _fltout2                   0000000180048b18 f   LIBCMT:cfout.obj
 0001:00047bd0       _fputwc_nolock             0000000180048bd0 f   LIBCMT:fputwc.obj
 0001:00047de0       strncmp                    0000000180048de0 f   LIBCMT:strncmp.obj
 0001:00047e60       __ascii_strnicmp           0000000180048e60 f   LIBCMT:strnicmp.obj
 0001:00047ea8       _strnicmp                  0000000180048ea8 f   LIBCMT:strnicmp.obj
 0001:00047ef8       _strnicmp_l                0000000180048ef8 f   LIBCMT:strnicmp.obj
 0001:00047fd4       _strdup                    0000000180048fd4 f   LIBCMT:strdup.obj
 0001:00048044       _mbschr                    0000000180049044 f   LIBCMT:mbschr.obj
 0001:0004804c       _mbschr_l                  000000018004904c f   LIBCMT:mbschr.obj
 0001:0004810c       __termconout               000000018004910c f   LIBCMT:initcon.obj
 0001:0004812c       __initconout               000000018004912c f   LIBCMT:initcon.obj
 0001:00048168       $I10_OUTPUT                0000000180049168 f   LIBCMT:x10fout.obj
 0001:00048c40       _flswbuf                   0000000180049c40 f   LIBCMT:_flswbuf.obj
 0001:00048dd0       strchr                     0000000180049dd0 f   LIBCMT:strchr.obj
 0001:00048e60       RtlUnwindEx                0000000180049e60 f   kernel32:KERNEL32.dll
 0001:00048e66       IsProcessorFeaturePresent  0000000180049e66 f   kernel32:KERNEL32.dll
 0001:00048e6c       __delayLoadHelper2         0000000180049e6c f   DelayImp:delayhlp.obj
 0001:00049104       __GSHandlerCheck_EH        000000018004a104 f   LIBCMT:gshandlereh.obj
 0001:000491b0       setjmp                     000000018004a1b0 f   LIBCMT:setjmp.obj
 0001:000491b0       _setjmp                    000000018004a1b0 f   LIBCMT:setjmp.obj
 0001:00049250       floor                      000000018004a250 f   LIBCMT:floor.obj
 0001:00049c60       ??__Fs_path@?1??temporary_path@cimg@cimg_library@@YAPEBDQEBD_N@Z@YAXXZ 000000018004ac60 f i jpeg_worker.obj
 0001:00049c80       ??__Fs_path@?1??programfiles_path@cimg@cimg_library@@YAPEBDQEBD_N@Z@YAXXZ 000000018004ac80 f i jpeg_worker.obj
 0001:00049ca0       ??__Fs_path@?1??imagemagick_path@cimg@cimg_library@@YAPEBDQEBD_N@Z@YAXXZ 000000018004aca0 f i jpeg_worker.obj
 0001:00049cc0       ??__Fs_path@?1??graphicsmagick_path@cimg@cimg_library@@YAPEBDQEBD_N@Z@YAXXZ 000000018004acc0 f i jpeg_worker.obj
 0001:00049ce0       ??__Fs_path@?1??medcon_path@cimg@cimg_library@@YAPEBDQEBD_N@Z@YAXXZ 000000018004ace0 f i jpeg_worker.obj
 0001:00049d00       ??__Fres@?1??strbuffersize@cimg@cimg_library@@YAPEBDK@Z@YAXXZ 000000018004ad00 f i jpeg_worker.obj
 0002:00000000       __imp_WaitForSingleObject  000000018004b000     kernel32:KERNEL32.dll
 0002:00000008       __imp_GetShortPathNameA    000000018004b008     kernel32:KERNEL32.dll
 0002:00000010       __imp_GetLocalTime         000000018004b010     kernel32:KERNEL32.dll
 0002:00000018       __imp_CreateMutexA         000000018004b018     kernel32:KERNEL32.dll
 0002:00000020       __imp_ReleaseMutex         000000018004b020     kernel32:KERNEL32.dll
 0002:00000028       __imp_ExitProcess          000000018004b028     kernel32:KERNEL32.dll
 0002:00000030       __imp_GetModuleHandleA     000000018004b030     kernel32:KERNEL32.dll
 0002:00000038       __imp_GetStringTypeW       000000018004b038     kernel32:KERNEL32.dll
 0002:00000040       __imp_SetEnvironmentVariableA 000000018004b040     kernel32:KERNEL32.dll
 0002:00000048       __imp_HeapAlloc            000000018004b048     kernel32:KERNEL32.dll
 0002:00000050       __imp_EncodePointer        000000018004b050     kernel32:KERNEL32.dll
 0002:00000058       __imp_DecodePointer        000000018004b058     kernel32:KERNEL32.dll
 0002:00000060       __imp_GetLastError         000000018004b060     kernel32:KERNEL32.dll
 0002:00000068       __imp_HeapFree             000000018004b068     kernel32:KERNEL32.dll
 0002:00000070       __imp_EnterCriticalSection 000000018004b070     kernel32:KERNEL32.dll
 0002:00000078       __imp_LeaveCriticalSection 000000018004b078     kernel32:KERNEL32.dll
 0002:00000080       __imp_GetCurrentProcessId  000000018004b080     kernel32:KERNEL32.dll
 0002:00000088       __imp_GetStdHandle         000000018004b088     kernel32:KERNEL32.dll
 0002:00000090       __imp_GetFileType          000000018004b090     kernel32:KERNEL32.dll
 0002:00000098       __imp_GetModuleFileNameW   000000018004b098     kernel32:KERNEL32.dll
 0002:000000a0       __imp_GetModuleHandleExW   000000018004b0a0     kernel32:KERNEL32.dll
 0002:000000a8       __imp_WriteConsoleW        000000018004b0a8     kernel32:KERNEL32.dll
 0002:000000b0       __imp_RtlUnwindEx          000000018004b0b0     kernel32:KERNEL32.dll
 0002:000000b8       __imp_HeapReAlloc          000000018004b0b8     kernel32:KERNEL32.dll
 0002:000000c0       __imp_GetProcAddress       000000018004b0c0     kernel32:KERNEL32.dll
 0002:000000c8       __imp_AreFileApisANSI      000000018004b0c8     kernel32:KERNEL32.dll
 0002:000000d0       __imp_MultiByteToWideChar  000000018004b0d0     kernel32:KERNEL32.dll
 0002:000000d8       __imp_WideCharToMultiByte  000000018004b0d8     kernel32:KERNEL32.dll
 0002:000000e0       __imp_IsDebuggerPresent    000000018004b0e0     kernel32:KERNEL32.dll
 0002:000000e8       __imp_IsProcessorFeaturePresent 000000018004b0e8     kernel32:KERNEL32.dll
 0002:000000f0       __imp_SetFilePointerEx     000000018004b0f0     kernel32:KERNEL32.dll
 0002:000000f8       __imp_CreateFileW          000000018004b0f8     kernel32:KERNEL32.dll
 0002:00000100       __imp_CloseHandle          000000018004b100     kernel32:KERNEL32.dll
 0002:00000108       __imp_GetModuleHandleW     000000018004b108     kernel32:KERNEL32.dll
 0002:00000110       __imp_GetCommandLineA      000000018004b110     kernel32:KERNEL32.dll
 0002:00000118       __imp_GetCurrentThreadId   000000018004b118     kernel32:KERNEL32.dll
 0002:00000120       __imp_RtlPcToFileHeader    000000018004b120     kernel32:KERNEL32.dll
 0002:00000128       __imp_RaiseException       000000018004b128     kernel32:KERNEL32.dll
 0002:00000130       __imp_RtlLookupFunctionEntry 000000018004b130     kernel32:KERNEL32.dll
 0002:00000138       __imp_WriteFile            000000018004b138     kernel32:KERNEL32.dll
 0002:00000140       __imp_GetProcessHeap       000000018004b140     kernel32:KERNEL32.dll
 0002:00000148       __imp_HeapSize             000000018004b148     kernel32:KERNEL32.dll
 0002:00000150       __imp_DeleteCriticalSection 000000018004b150     kernel32:KERNEL32.dll
 0002:00000158       __imp_DeleteFileW          000000018004b158     kernel32:KERNEL32.dll
 0002:00000160       __imp_OutputDebugStringW   000000018004b160     kernel32:KERNEL32.dll
 0002:00000168       __imp_LoadLibraryExW       000000018004b168     kernel32:KERNEL32.dll
 0002:00000170       __imp_GetStartupInfoW      000000018004b170     kernel32:KERNEL32.dll
 0002:00000178       __imp_SetLastError         000000018004b178     kernel32:KERNEL32.dll
 0002:00000180       __imp_FlushFileBuffers     000000018004b180     kernel32:KERNEL32.dll
 0002:00000188       __imp_GetConsoleCP         000000018004b188     kernel32:KERNEL32.dll
 0002:00000190       __imp_GetConsoleMode       000000018004b190     kernel32:KERNEL32.dll
 0002:00000198       __imp_RtlCaptureContext    000000018004b198     kernel32:KERNEL32.dll
 0002:000001a0       __imp_RtlVirtualUnwind     000000018004b1a0     kernel32:KERNEL32.dll
 0002:000001a8       __imp_UnhandledExceptionFilter 000000018004b1a8     kernel32:KERNEL32.dll
 0002:000001b0       __imp_SetUnhandledExceptionFilter 000000018004b1b0     kernel32:KERNEL32.dll
 0002:000001b8       __imp_InitializeCriticalSectionAndSpinCount 000000018004b1b8     kernel32:KERNEL32.dll
 0002:000001c0       __imp_Sleep                000000018004b1c0     kernel32:KERNEL32.dll
 0002:000001c8       __imp_GetCurrentProcess    000000018004b1c8     kernel32:KERNEL32.dll
 0002:000001d0       __imp_TerminateProcess     000000018004b1d0     kernel32:KERNEL32.dll
 0002:000001d8       __imp_TlsAlloc             000000018004b1d8     kernel32:KERNEL32.dll
 0002:000001e0       __imp_TlsGetValue          000000018004b1e0     kernel32:KERNEL32.dll
 0002:000001e8       __imp_TlsSetValue          000000018004b1e8     kernel32:KERNEL32.dll
 0002:000001f0       __imp_TlsFree              000000018004b1f0     kernel32:KERNEL32.dll
 0002:000001f8       __imp_FreeLibrary          000000018004b1f8     kernel32:KERNEL32.dll
 0002:00000200       __imp_IsValidCodePage      000000018004b200     kernel32:KERNEL32.dll
 0002:00000208       __imp_GetACP               000000018004b208     kernel32:KERNEL32.dll
 0002:00000210       __imp_GetOEMCP             000000018004b210     kernel32:KERNEL32.dll
 0002:00000218       __imp_GetCPInfo            000000018004b218     kernel32:KERNEL32.dll
 0002:00000220       __imp_SetStdHandle         000000018004b220     kernel32:KERNEL32.dll
 0002:00000228       __imp_SetEndOfFile         000000018004b228     kernel32:KERNEL32.dll
 0002:00000230       __imp_ReadFile             000000018004b230     kernel32:KERNEL32.dll
 0002:00000238       __imp_ReadConsoleW         000000018004b238     kernel32:KERNEL32.dll
 0002:00000240       __imp_GetModuleFileNameA   000000018004b240     kernel32:KERNEL32.dll
 0002:00000248       __imp_QueryPerformanceCounter 000000018004b248     kernel32:KERNEL32.dll
 0002:00000250       __imp_GetSystemTimeAsFileTime 000000018004b250     kernel32:KERNEL32.dll
 0002:00000258       __imp_GetEnvironmentStringsW 000000018004b258     kernel32:KERNEL32.dll
 0002:00000260       __imp_FreeEnvironmentStringsW 000000018004b260     kernel32:KERNEL32.dll
 0002:00000268       __imp_CompareStringW       000000018004b268     kernel32:KERNEL32.dll
 0002:00000270       __imp_LCMapStringW         000000018004b270     kernel32:KERNEL32.dll
 0002:00000278       __imp_LoadLibraryExA       000000018004b278     kernel32:KERNEL32.dll
 0002:00000280       \177KERNEL32_NULL_THUNK_DATA 000000018004b280     kernel32:KERNEL32.dll
 0002:00000288       __imp_SHGetSpecialFolderPathA 000000018004b288     shell32:SHELL32.dll
 0002:00000290       \177SHELL32_NULL_THUNK_DATA 000000018004b290     shell32:SHELL32.dll
 0002:00000298       __xc_a                     000000018004b298     LIBCMT:crt0init.obj
 0002:000002e0       _register_lwip_encoder_    000000018004b2e0     init.obj
 0002:000002e8       __xc_z                     000000018004b2e8     LIBCMT:crt0init.obj
 0002:000002f0       __xi_a                     000000018004b2f0     LIBCMT:crt0init.obj
 0002:00000318       __xi_z                     000000018004b318     LIBCMT:crt0init.obj
 0002:00000320       __xp_a                     000000018004b320     LIBCMT:crt0init.obj
 0002:00000340       __xp_z                     000000018004b340     LIBCMT:crt0init.obj
 0002:00000348       __xt_a                     000000018004b348     LIBCMT:crt0init.obj
 0002:00000350       __xt_z                     000000018004b350     LIBCMT:crt0init.obj
 0002:000003a0       __sz_node_exe              000000018004b3a0     node:node.exe
 0002:00000d50       ??_C@_0BC@CIJDGCDI@permission?5denied?$AA@ 000000018004bd50     libcpmt:syserror.obj
 0002:00000d68       ??_C@_0M@MIDIAGJP@file?5exists?$AA@ 000000018004bd68     libcpmt:syserror.obj
 0002:00000d78       ??_C@_0P@FDINDDOK@no?5such?5device?$AA@ 000000018004bd78     libcpmt:syserror.obj
 0002:00000d88       ??_C@_0BC@EJHOMAAK@filename?5too?5long?$AA@ 000000018004bd88     libcpmt:syserror.obj
 0002:00000da0       ??_C@_0BI@NGCEHDD@device?5or?5resource?5busy?$AA@ 000000018004bda0     libcpmt:syserror.obj
 0002:00000db8       ??_C@_08GLNPIFBN@io?5error?$AA@ 000000018004bdb8     libcpmt:syserror.obj
 0002:00000dc8       ??_C@_0BE@JIDOCPHM@directory?5not?5empty?$AA@ 000000018004bdc8     libcpmt:syserror.obj
 0002:00000de0       ??_C@_0BB@FCMFBGOM@invalid?5argument?$AA@ 000000018004bde0     libcpmt:syserror.obj
 0002:00000df8       ??_C@_0BD@IJDJKDEA@no?5space?5on?5device?$AA@ 000000018004bdf8     libcpmt:syserror.obj
 0002:00000e10       ??_C@_0BK@NDOCBPGE@no?5such?5file?5or?5directory?$AA@ 000000018004be10     libcpmt:syserror.obj
 0002:00000e30       ??_C@_0BH@KEFGLDAF@function?5not?5supported?$AA@ 000000018004be30     libcpmt:syserror.obj
 0002:00000e48       ??_C@_0BC@NJECKMKE@no?5lock?5available?$AA@ 000000018004be48     libcpmt:syserror.obj
 0002:00000e60       ??_C@_0BC@ENOOLCNF@not?5enough?5memory?$AA@ 000000018004be60     libcpmt:syserror.obj
 0002:00000e78       ??_C@_0BP@LKNGHENJ@resource?5unavailable?5try?5again?$AA@ 000000018004be78     libcpmt:syserror.obj
 0002:00000e98       ??_C@_0BC@PPHBOELF@cross?5device?5link?$AA@ 000000018004be98     libcpmt:syserror.obj
 0002:00000eb0       ??_C@_0BD@MOLBPMEA@operation?5canceled?$AA@ 000000018004beb0     libcpmt:syserror.obj
 0002:00000ec8       ??_C@_0BE@GHAFMPAH@too?5many?5files?5open?$AA@ 000000018004bec8     libcpmt:syserror.obj
 0002:00000ee0       ??_C@_0BC@FNODOBAE@permission_denied?$AA@ 000000018004bee0     libcpmt:syserror.obj
 0002:00000ef8       ??_C@_0P@LNDJPBFK@address_in_use?$AA@ 000000018004bef8     libcpmt:syserror.obj
 0002:00000f08       ??_C@_0BG@IPMGOJF@address_not_available?$AA@ 000000018004bf08     libcpmt:syserror.obj
 0002:00000f20       ??_C@_0BN@LCBDHODA@address_family_not_supported?$AA@ 000000018004bf20     libcpmt:syserror.obj
 0002:00000f40       ??_C@_0BP@FOJJHMCC@connection_already_in_progress?$AA@ 000000018004bf40     libcpmt:syserror.obj
 0002:00000f60       ??_C@_0BE@DLHHIBGN@bad_file_descriptor?$AA@ 000000018004bf60     libcpmt:syserror.obj
 0002:00000f78       ??_C@_0BD@OJMJDIGI@connection_aborted?$AA@ 000000018004bf78     libcpmt:syserror.obj
 0002:00000f90       ??_C@_0BD@NGKCIFEP@connection_refused?$AA@ 000000018004bf90     libcpmt:syserror.obj
 0002:00000fa8       ??_C@_0BB@JOANDNCK@connection_reset?$AA@ 000000018004bfa8     libcpmt:syserror.obj
 0002:00000fc0       ??_C@_0BN@JLJNLKLK@destination_address_required?$AA@ 000000018004bfc0     libcpmt:syserror.obj
 0002:00000fe0       ??_C@_0M@IJGMGFGP@bad_address?$AA@ 000000018004bfe0     libcpmt:syserror.obj
 0002:00000ff0       ??_C@_0BB@KKNHPPIN@host_unreachable?$AA@ 000000018004bff0     libcpmt:syserror.obj
 0002:00001008       ??_C@_0BG@DJGBJIIK@operation_in_progress?$AA@ 000000018004c008     libcpmt:syserror.obj
 0002:00001020       ??_C@_0M@EGEKIIMP@interrupted?$AA@ 000000018004c020     libcpmt:syserror.obj
 0002:00001030       ??_C@_0BB@FFIHMIPJ@invalid_argument?$AA@ 000000018004c030     libcpmt:syserror.obj
 0002:00001048       ??_C@_0BC@FIFLCHLO@already_connected?$AA@ 000000018004c048     libcpmt:syserror.obj
 0002:00001060       ??_C@_0BE@GJJJJDDA@too_many_files_open?$AA@ 000000018004c060     libcpmt:syserror.obj
 0002:00001078       ??_C@_0N@HPMLKHPL@message_size?$AA@ 000000018004c078     libcpmt:syserror.obj
 0002:00001088       ??_C@_0BC@LEEIKBAL@filename_too_long?$AA@ 000000018004c088     libcpmt:syserror.obj
 0002:000010a0       ??_C@_0N@FCPALPJK@network_down?$AA@ 000000018004c0a0     libcpmt:syserror.obj
 0002:000010b0       ??_C@_0O@EHNDLHIG@network_reset?$AA@ 000000018004c0b0     libcpmt:syserror.obj
 0002:000010c0       ??_C@_0BE@JFNJIDNF@network_unreachable?$AA@ 000000018004c0c0     libcpmt:syserror.obj
 0002:000010d8       ??_C@_0BA@FDIJKJCL@no_buffer_space?$AA@ 000000018004c0d8     libcpmt:syserror.obj
 0002:000010e8       ??_C@_0BD@JHIHCGKP@no_protocol_option?$AA@ 000000018004c0e8     libcpmt:syserror.obj
 0002:00001100       ??_C@_0O@GBCLHHD@not_connected?$AA@ 000000018004c100     libcpmt:syserror.obj
 0002:00001110       ??_C@_0N@IMHKKLEM@not_a_socket?$AA@ 000000018004c110     libcpmt:syserror.obj
 0002:00001120       ??_C@_0BI@ICEIDKLJ@operation_not_supported?$AA@ 000000018004c120     libcpmt:syserror.obj
 0002:00001138       ??_C@_0BH@KAPBAIJF@protocol_not_supported?$AA@ 000000018004c138     libcpmt:syserror.obj
 0002:00001150       ??_C@_0BE@GAOJJFPC@wrong_protocol_type?$AA@ 000000018004c150     libcpmt:syserror.obj
 0002:00001168       ??_C@_09NCHNLHPG@timed_out?$AA@ 000000018004c168     libcpmt:syserror.obj
 0002:00001178       ??_C@_0BG@GDGHKFDH@operation_would_block?$AA@ 000000018004c178     libcpmt:syserror.obj
 0002:00001190       ??_C@_0BN@LKKBCCDB@address?5family?5not?5supported?$AA@ 000000018004c190     libcpmt:syserror.obj
 0002:000011b0       ??_C@_0P@LDMLAFHI@address?5in?5use?$AA@ 000000018004c1b0     libcpmt:syserror.obj
 0002:000011c0       ??_C@_0BG@DHPCNBJB@address?5not?5available?$AA@ 000000018004c1c0     libcpmt:syserror.obj
 0002:000011d8       ??_C@_0BC@DFIBIBIL@already?5connected?$AA@ 000000018004c1d8     libcpmt:syserror.obj
 0002:000011f0       ??_C@_0BH@CAKOHOMI@argument?5list?5too?5long?$AA@ 000000018004c1f0     libcpmt:syserror.obj
 0002:00001208       ??_C@_0BH@CGIMPKIM@argument?5out?5of?5domain?$AA@ 000000018004c208     libcpmt:syserror.obj
 0002:00001220       ??_C@_0M@KGHGGJGL@bad?5address?$AA@ 000000018004c220     libcpmt:syserror.obj
 0002:00001230       ??_C@_0BE@MPJPGCEO@bad?5file?5descriptor?$AA@ 000000018004c230     libcpmt:syserror.obj
 0002:00001248       ??_C@_0M@PMMIEFCP@bad?5message?$AA@ 000000018004c248     libcpmt:syserror.obj
 0002:00001258       ??_C@_0M@KPHOFDBE@broken?5pipe?$AA@ 000000018004c258     libcpmt:syserror.obj
 0002:00001268       ??_C@_0BD@MGNDDEGM@connection?5aborted?$AA@ 000000018004c268     libcpmt:syserror.obj
 0002:00001280       ??_C@_0BP@KAIHPOGN@connection?5already?5in?5progress?$AA@ 000000018004c280     libcpmt:syserror.obj
 0002:000012a0       ??_C@_0BD@PJLIIJEL@connection?5refused?$AA@ 000000018004c2a0     libcpmt:syserror.obj
 0002:000012b8       ??_C@_0BB@IECNJNOI@connection?5reset?$AA@ 000000018004c2b8     libcpmt:syserror.obj
 0002:000012d0       ??_C@_0BN@KDMIFEIP@destination?5address?5required?$AA@ 000000018004c2d0     libcpmt:syserror.obj
 0002:000012f0       ??_C@_0BI@BNCLIGPB@executable?5format?5error?$AA@ 000000018004c2f0     libcpmt:syserror.obj
 0002:00001308       ??_C@_0P@DNAJLBJK@file?5too?5large?$AA@ 000000018004c308     libcpmt:syserror.obj
 0002:00001318       ??_C@_0BB@DHFDFGDM@host?5unreachable?$AA@ 000000018004c318     libcpmt:syserror.obj
 0002:00001330       ??_C@_0BD@JPHBMONG@identifier?5removed?$AA@ 000000018004c330     libcpmt:syserror.obj
 0002:00001348       ??_C@_0BG@CDNPAGJK@illegal?5byte?5sequence?$AA@ 000000018004c348     libcpmt:syserror.obj
 0002:00001360       ??_C@_0CD@BNPLBMNA@inappropriate?5io?5control?5operati@ 000000018004c360     libcpmt:syserror.obj
 0002:00001388       ??_C@_0N@OHAFKDEK@invalid?5seek?$AA@ 000000018004c388     libcpmt:syserror.obj
 0002:00001398       ??_C@_0P@FLLDBIDK@is?5a?5directory?$AA@ 000000018004c398     libcpmt:syserror.obj
 0002:000013a8       ??_C@_0N@IFLPBIOP@message?5size?$AA@ 000000018004c3a8     libcpmt:syserror.obj
 0002:000013b8       ??_C@_0N@KIIEAAIO@network?5down?$AA@ 000000018004c3b8     libcpmt:syserror.obj
 0002:000013c8       ??_C@_0O@FNPDBHEE@network?5reset?$AA@ 000000018004c3c8     libcpmt:syserror.obj
 0002:000013d8       ??_C@_0BE@IFNCKGE@network?5unreachable?$AA@ 000000018004c3d8     libcpmt:syserror.obj
 0002:000013f0       ??_C@_0BA@PFFCAOFK@no?5buffer?5space?$AA@ 000000018004c3f0     libcpmt:syserror.obj
 0002:00001400       ??_C@_0BB@IEPBLJHK@no?5child?5process?$AA@ 000000018004c400     libcpmt:syserror.obj
 0002:00001418       ??_C@_07PLECNNKG@no?5link?$AA@ 000000018004c418     libcpmt:syserror.obj
 0002:00001420       ??_C@_0BF@PBGGPKKE@no?5message?5available?$AA@ 000000018004c420     libcpmt:syserror.obj
 0002:00001438       ??_C@_0L@EDOLMPAK@no?5message?$AA@ 000000018004c438     libcpmt:syserror.obj
 0002:00001448       ??_C@_0BD@EAMBFIDF@no?5protocol?5option?$AA@ 000000018004c448     libcpmt:syserror.obj
 0002:00001460       ??_C@_0BE@MKFDAFMP@no?5stream?5resources?$AA@ 000000018004c460     libcpmt:syserror.obj
 0002:00001478       ??_C@_0BK@IMCPHCBI@no?5such?5device?5or?5address?$AA@ 000000018004c478     libcpmt:syserror.obj
 0002:00001498       ??_C@_0BA@ENLPPKBN@no?5such?5process?$AA@ 000000018004c498     libcpmt:syserror.obj
 0002:000014a8       ??_C@_0BA@DOCPFFJG@not?5a?5directory?$AA@ 000000018004c4a8     libcpmt:syserror.obj
 0002:000014b8       ??_C@_0N@POEIPGGF@not?5a?5socket?$AA@ 000000018004c4b8     libcpmt:syserror.obj
 0002:000014c8       ??_C@_0N@LGAPMMPI@not?5a?5stream?$AA@ 000000018004c4c8     libcpmt:syserror.obj
 0002:000014d8       ??_C@_0O@GLMIBBEG@not?5connected?$AA@ 000000018004c4d8     libcpmt:syserror.obj
 0002:000014e8       ??_C@_0O@NHEDABJP@not?5supported?$AA@ 000000018004c4e8     libcpmt:syserror.obj
 0002:000014f8       ??_C@_0BG@KDKHOPCO@operation?5in?5progress?$AA@ 000000018004c4f8     libcpmt:syserror.obj
 0002:00001510       ??_C@_0BI@OHIEJAAB@operation?5not?5permitted?$AA@ 000000018004c510     libcpmt:syserror.obj
 0002:00001528       ??_C@_0BI@LNEGIFLN@operation?5not?5supported?$AA@ 000000018004c528     libcpmt:syserror.obj
 0002:00001540       ??_C@_0BG@OEMDKMEE@operation?5would?5block?$AA@ 000000018004c540     libcpmt:syserror.obj
 0002:00001558       ??_C@_0L@BLPOFLNJ@owner?5dead?$AA@ 000000018004c558     libcpmt:syserror.obj
 0002:00001568       ??_C@_0P@FNPOCJBE@protocol?5error?$AA@ 000000018004c568     libcpmt:syserror.obj
 0002:00001578       ??_C@_0BH@JPPPLHJB@protocol?5not?5supported?$AA@ 000000018004c578     libcpmt:syserror.obj
 0002:00001590       ??_C@_0BG@EICBIHDP@read?5only?5file?5system?$AA@ 000000018004c590     libcpmt:syserror.obj
 0002:000015a8       ??_C@_0BO@BJBOMOEJ@resource?5deadlock?5would?5occur?$AA@ 000000018004c5a8     libcpmt:syserror.obj
 0002:000015c8       ??_C@_0BE@GOIPJJHG@result?5out?5of?5range?$AA@ 000000018004c5c8     libcpmt:syserror.obj
 0002:000015e0       ??_C@_0BG@MPLKFPAE@state?5not?5recoverable?$AA@ 000000018004c5e0     libcpmt:syserror.obj
 0002:000015f8       ??_C@_0P@DIIFGFCG@stream?5timeout?$AA@ 000000018004c5f8     libcpmt:syserror.obj
 0002:00001608       ??_C@_0P@IPFDMIFL@text?5file?5busy?$AA@ 000000018004c608     libcpmt:syserror.obj
 0002:00001618       ??_C@_09KJPPMAOI@timed?5out?$AA@ 000000018004c618     libcpmt:syserror.obj
 0002:00001628       ??_C@_0BO@HACHBEKI@too?5many?5files?5open?5in?5system?$AA@ 000000018004c628     libcpmt:syserror.obj
 0002:00001648       ??_C@_0P@HCOMKFCC@too?5many?5links?$AA@ 000000018004c648     libcpmt:syserror.obj
 0002:00001658       ??_C@_0BO@EFGOJEF@too?5many?5symbolic?5link?5levels?$AA@ 000000018004c658     libcpmt:syserror.obj
 0002:00001678       ??_C@_0BA@KGKGOOJA@value?5too?5large?$AA@ 000000018004c678     libcpmt:syserror.obj
 0002:00001688       ??_C@_0BE@MIEJDDNH@wrong?5protocol?5type?$AA@ 000000018004c688     libcpmt:syserror.obj
 0002:000016a8       ??_7bad_alloc@std@@6B@     000000018004c6a8     libcpmt:xthrow.obj
 0002:000016b8       ??_C@_0P@GHFPNOJB@bad?5allocation?$AA@ 000000018004c6b8     libcpmt:xthrow.obj
 0002:000016c8       ??_C@_06MEIMCGCF@_hypot?$AA@ 000000018004c6c8     LIBCMT:hypot.obj
 0002:000016d0       ??_C@_17LGKOMLJ@?$AA?4?$AA?4?$AA?4?$AA?$AA@ 000000018004c6d0     LIBCMT:wassert.obj
 0002:000016d8       ??_C@_13LBAGMAIH@?$AA?6?$AA?$AA@ 000000018004c6d8     LIBCMT:wassert.obj
 0002:000016dc       ??_C@_15IABLJNFO@?$AA?6?$AA?6?$AA?$AA@ 000000018004c6dc     LIBCMT:wassert.obj
 0002:000016e8       ??_C@_1CE@OJBNHDMO@?$AAA?$AAs?$AAs?$AAe?$AAr?$AAt?$AAi?$AAo?$AAn?$AA?5?$AAf?$AAa?$AAi?$AAl?$AAe?$AAd?$AA?$CB?$AA?$AA@ 000000018004c6e8     LIBCMT:wassert.obj
 0002:00001710       ??_C@_1BE@PHKBBGE@?$AAP?$AAr?$AAo?$AAg?$AAr?$AAa?$AAm?$AA?3?$AA?5?$AA?$AA@ 000000018004c710     LIBCMT:wassert.obj
 0002:00001728       ??_C@_1CO@EAEJAADC@?$AA?$DM?$AAp?$AAr?$AAo?$AAg?$AAr?$AAa?$AAm?$AA?5?$AAn?$AAa?$AAm?$AAe?$AA?5?$AAu?$AAn?$AAk?$AAn?$AAo?$AAw?$AAn?$AA?$DO?$AA?$AA@ 000000018004c728     LIBCMT:wassert.obj
 0002:00001758       ??_C@_1O@HEMHKNDC@?$AAF?$AAi?$AAl?$AAe?$AA?3?$AA?5?$AA?$AA@ 000000018004c758     LIBCMT:wassert.obj
 0002:00001768       ??_C@_1O@KCAFKHJE@?$AAL?$AAi?$AAn?$AAe?$AA?3?$AA?5?$AA?$AA@ 000000018004c768     LIBCMT:wassert.obj
 0002:00001778       ??_C@_1BK@PEDCIPMA@?$AAE?$AAx?$AAp?$AAr?$AAe?$AAs?$AAs?$AAi?$AAo?$AAn?$AA?3?$AA?5?$AA?$AA@ 000000018004c778     LIBCMT:wassert.obj
 0002:000017a0       ??_C@_1OA@EGMLFBHJ@?$AAF?$AAo?$AAr?$AA?5?$AAi?$AAn?$AAf?$AAo?$AAr?$AAm?$AAa?$AAt?$AAi?$AAo?$AAn?$AA?5?$AAo?$AAn?$AA?5?$AAh?$AAo?$AAw?$AA?5?$AAy?$AAo?$AAu?$AAr?$AA?5?$AAp?$AAr?$AAo?$AAg@ 000000018004c7a0     LIBCMT:wassert.obj
 0002:00001880       ??_C@_1HK@POCJMFGK@?$AA?$CI?$AAP?$AAr?$AAe?$AAs?$AAs?$AA?5?$AAR?$AAe?$AAt?$AAr?$AAy?$AA?5?$AAt?$AAo?$AA?5?$AAd?$AAe?$AAb?$AAu?$AAg?$AA?5?$AAt?$AAh?$AAe?$AA?5?$AAa?$AAp?$AAp?$AAl?$AAi?$AAc@ 000000018004c880     LIBCMT:wassert.obj
 0002:00001900       ??_C@_1EK@MBDPDCGA@?$AAM?$AAi?$AAc?$AAr?$AAo?$AAs?$AAo?$AAf?$AAt?$AA?5?$AAV?$AAi?$AAs?$AAu?$AAa?$AAl?$AA?5?$AAC?$AA?$CL?$AA?$CL?$AA?5?$AAR?$AAu?$AAn?$AAt?$AAi?$AAm?$AAe?$AA?5?$AAL?$AAi?$AAb@ 000000018004c900     LIBCMT:wassert.obj
 0002:00001958       ??_7type_info@@6B@         000000018004c958     LIBCMT:typinfo.obj
 0002:00001960       ??_C@_1BI@BGOHAHKC@?$AAm?$AAs?$AAc?$AAo?$AAr?$AAe?$AAe?$AA?4?$AAd?$AAl?$AAl?$AA?$AA@ 000000018004c960     LIBCMT:crt0dat.obj
 0002:00001978       ??_C@_0P@MIGLKIOC@CorExitProcess?$AA@ 000000018004c978     LIBCMT:crt0dat.obj
 0002:000019a0       ??_C@_0EA@FCLIIPNN@Visual?5C?$CL?$CL?5CRT?3?5Not?5enough?5memor@ 000000018004c9a0     LIBCMT:strerror.obj
 0002:000019e0       ??_C@_0M@HHGEPIBF@CreateFile2?$AA@ 000000018004c9e0     LIBCMT:wopen.obj
 0002:000019f0       ??_C@_1BK@MGMFAEKH@?$AAk?$AAe?$AAr?$AAn?$AAe?$AAl?$AA3?$AA2?$AA?4?$AAd?$AAl?$AAl?$AA?$AA@ 000000018004c9f0     LIBCMT:wopen.obj
 0002:00001a10       _pRawDllMain               000000018004ca10     LIBCMT:dllcrt0.obj
 0002:00001a10       _pDefaultRawDllMain        000000018004ca10     LIBCMT:dllcrt0.obj
 0002:00001af8       _FPinit                    000000018004caf8     LIBCMT:fpinit.obj
 0002:00001b08       ??_7exception@std@@6B@     000000018004cb08     LIBCMT:stdexcpt.obj
 0002:00001b18       ??_C@_0BC@EOODALEL@Unknown?5exception?$AA@ 000000018004cb18     LIBCMT:stdexcpt.obj
 0002:00001ca0       ??_C@_1FK@PGACCAFB@?$AAR?$AA6?$AA0?$AA0?$AA2?$AA?$AN?$AA?6?$AA?9?$AA?5?$AAf?$AAl?$AAo?$AAa?$AAt?$AAi?$AAn?$AAg?$AA?5?$AAp?$AAo?$AAi?$AAn?$AAt?$AA?5?$AAs?$AAu?$AAp?$AAp?$AAo?$AAr?$AAt?$AA?5@ 000000018004cca0     LIBCMT:crt0msg.obj
 0002:00001d00       ??_C@_1FE@LLNEDJMD@?$AAR?$AA6?$AA0?$AA0?$AA8?$AA?$AN?$AA?6?$AA?9?$AA?5?$AAn?$AAo?$AAt?$AA?5?$AAe?$AAn?$AAo?$AAu?$AAg?$AAh?$AA?5?$AAs?$AAp?$AAa?$AAc?$AAe?$AA?5?$AAf?$AAo?$AAr?$AA?5?$AAa?$AAr@ 000000018004cd00     LIBCMT:crt0msg.obj
 0002:00001d60       ??_C@_1FI@HONFMGBI@?$AAR?$AA6?$AA0?$AA0?$AA9?$AA?$AN?$AA?6?$AA?9?$AA?5?$AAn?$AAo?$AAt?$AA?5?$AAe?$AAn?$AAo?$AAu?$AAg?$AAh?$AA?5?$AAs?$AAp?$AAa?$AAc?$AAe?$AA?5?$AAf?$AAo?$AAr?$AA?5?$AAe?$AAn@ 000000018004cd60     LIBCMT:crt0msg.obj
 0002:00001dc0       ??_C@_1EG@BEHAGFJD@?$AAR?$AA6?$AA0?$AA1?$AA0?$AA?$AN?$AA?6?$AA?9?$AA?5?$AAa?$AAb?$AAo?$AAr?$AAt?$AA?$CI?$AA?$CJ?$AA?5?$AAh?$AAa?$AAs?$AA?5?$AAb?$AAe?$AAe?$AAn?$AA?5?$AAc?$AAa?$AAl?$AAl?$AAe?$AAd@ 000000018004cdc0     LIBCMT:crt0msg.obj
 0002:00001e10       ??_C@_1FI@LOGNIKDM@?$AAR?$AA6?$AA0?$AA1?$AA6?$AA?$AN?$AA?6?$AA?9?$AA?5?$AAn?$AAo?$AAt?$AA?5?$AAe?$AAn?$AAo?$AAu?$AAg?$AAh?$AA?5?$AAs?$AAp?$AAa?$AAc?$AAe?$AA?5?$AAf?$AAo?$AAr?$AA?5?$AAt?$AAh@ 000000018004ce10     LIBCMT:crt0msg.obj
 0002:00001e70       ??_C@_1FK@BEOGODMC@?$AAR?$AA6?$AA0?$AA1?$AA7?$AA?$AN?$AA?6?$AA?9?$AA?5?$AAu?$AAn?$AAe?$AAx?$AAp?$AAe?$AAc?$AAt?$AAe?$AAd?$AA?5?$AAm?$AAu?$AAl?$AAt?$AAi?$AAt?$AAh?$AAr?$AAe?$AAa?$AAd?$AA?5@ 000000018004ce70     LIBCMT:crt0msg.obj
 0002:00001ed0       ??_C@_1EC@JIBHAOPH@?$AAR?$AA6?$AA0?$AA1?$AA8?$AA?$AN?$AA?6?$AA?9?$AA?5?$AAu?$AAn?$AAe?$AAx?$AAp?$AAe?$AAc?$AAt?$AAe?$AAd?$AA?5?$AAh?$AAe?$AAa?$AAp?$AA?5?$AAe?$AAr?$AAr?$AAo?$AAr?$AA?$AN?$AA?6@ 000000018004ced0     LIBCMT:crt0msg.obj
 0002:00001f20       ??_C@_1FC@ECHBIFBC@?$AAR?$AA6?$AA0?$AA1?$AA9?$AA?$AN?$AA?6?$AA?9?$AA?5?$AAu?$AAn?$AAa?$AAb?$AAl?$AAe?$AA?5?$AAt?$AAo?$AA?5?$AAo?$AAp?$AAe?$AAn?$AA?5?$AAc?$AAo?$AAn?$AAs?$AAo?$AAl?$AAe?$AA?5@ 000000018004cf20     LIBCMT:crt0msg.obj
 0002:00001f80       ??_C@_1GK@FHCKBEFA@?$AAR?$AA6?$AA0?$AA2?$AA4?$AA?$AN?$AA?6?$AA?9?$AA?5?$AAn?$AAo?$AAt?$AA?5?$AAe?$AAn?$AAo?$AAu?$AAg?$AAh?$AA?5?$AAs?$AAp?$AAa?$AAc?$AAe?$AA?5?$AAf?$AAo?$AAr?$AA?5?$AA_?$AAo@ 000000018004cf80     LIBCMT:crt0msg.obj
 0002:00001ff0       ??_C@_1EM@MAADIHMB@?$AAR?$AA6?$AA0?$AA2?$AA5?$AA?$AN?$AA?6?$AA?9?$AA?5?$AAp?$AAu?$AAr?$AAe?$AA?5?$AAv?$AAi?$AAr?$AAt?$AAu?$AAa?$AAl?$AA?5?$AAf?$AAu?$AAn?$AAc?$AAt?$AAi?$AAo?$AAn?$AA?5?$AAc@ 000000018004cff0     LIBCMT:crt0msg.obj
 0002:00002040       ??_C@_1GK@MCAAGJMO@?$AAR?$AA6?$AA0?$AA2?$AA6?$AA?$AN?$AA?6?$AA?9?$AA?5?$AAn?$AAo?$AAt?$AA?5?$AAe?$AAn?$AAo?$AAu?$AAg?$AAh?$AA?5?$AAs?$AAp?$AAa?$AAc?$AAe?$AA?5?$AAf?$AAo?$AAr?$AA?5?$AAs?$AAt@ 000000018004d040     LIBCMT:crt0msg.obj
 0002:000020b0       ??_C@_1GK@MFGOKLAG@?$AAR?$AA6?$AA0?$AA2?$AA7?$AA?$AN?$AA?6?$AA?9?$AA?5?$AAn?$AAo?$AAt?$AA?5?$AAe?$AAn?$AAo?$AAu?$AAg?$AAh?$AA?5?$AAs?$AAp?$AAa?$AAc?$AAe?$AA?5?$AAf?$AAo?$AAr?$AA?5?$AAl?$AAo@ 000000018004d0b0     LIBCMT:crt0msg.obj
 0002:00002120       ??_C@_1EK@HHFLMAOL@?$AAR?$AA6?$AA0?$AA2?$AA8?$AA?$AN?$AA?6?$AA?9?$AA?5?$AAu?$AAn?$AAa?$AAb?$AAl?$AAe?$AA?5?$AAt?$AAo?$AA?5?$AAi?$AAn?$AAi?$AAt?$AAi?$AAa?$AAl?$AAi?$AAz?$AAe?$AA?5?$AAh?$AAe@ 000000018004d120     LIBCMT:crt0msg.obj
 0002:00002170       ??_C@_1DO@BMFCDCD@?$AAR?$AA6?$AA0?$AA3?$AA0?$AA?$AN?$AA?6?$AA?9?$AA?5?$AAC?$AAR?$AAT?$AA?5?$AAn?$AAo?$AAt?$AA?5?$AAi?$AAn?$AAi?$AAt?$AAi?$AAa?$AAl?$AAi?$AAz?$AAe?$AAd?$AA?$AN?$AA?6?$AA?$AA@ 000000018004d170     LIBCMT:crt0msg.obj
 0002:000021b0       ??_C@_1MG@ENCOOIDF@?$AAR?$AA6?$AA0?$AA3?$AA1?$AA?$AN?$AA?6?$AA?9?$AA?5?$AAA?$AAt?$AAt?$AAe?$AAm?$AAp?$AAt?$AA?5?$AAt?$AAo?$AA?5?$AAi?$AAn?$AAi?$AAt?$AAi?$AAa?$AAl?$AAi?$AAz?$AAe?$AA?5?$AAt@ 000000018004d1b0     LIBCMT:crt0msg.obj
 0002:00002280       ??_C@_1GG@GOPILAJP@?$AAR?$AA6?$AA0?$AA3?$AA2?$AA?$AN?$AA?6?$AA?9?$AA?5?$AAn?$AAo?$AAt?$AA?5?$AAe?$AAn?$AAo?$AAu?$AAg?$AAh?$AA?5?$AAs?$AAp?$AAa?$AAc?$AAe?$AA?5?$AAf?$AAo?$AAr?$AA?5?$AAl?$AAo@ 000000018004d280     LIBCMT:crt0msg.obj
 0002:000022f0       ??_C@_1BOO@KGEDBGAJ@?$AAR?$AA6?$AA0?$AA3?$AA3?$AA?$AN?$AA?6?$AA?9?$AA?5?$AAA?$AAt?$AAt?$AAe?$AAm?$AAp?$AAt?$AA?5?$AAt?$AAo?$AA?5?$AAu?$AAs?$AAe?$AA?5?$AAM?$AAS?$AAI?$AAL?$AA?5?$AAc?$AAo?$AAd@ 000000018004d2f0     LIBCMT:crt0msg.obj
 0002:000024e0       ??_C@_1GG@MKFPEKFO@?$AAR?$AA6?$AA0?$AA3?$AA4?$AA?$AN?$AA?6?$AA?9?$AA?5?$AAi?$AAn?$AAc?$AAo?$AAn?$AAs?$AAi?$AAs?$AAt?$AAe?$AAn?$AAt?$AA?5?$AAo?$AAn?$AAe?$AAx?$AAi?$AAt?$AA?5?$AAb?$AAe?$AAg@ 000000018004d4e0     LIBCMT:crt0msg.obj
 0002:00002548       ??_C@_1BO@BFCDCGC@?$AAD?$AAO?$AAM?$AAA?$AAI?$AAN?$AA?5?$AAe?$AAr?$AAr?$AAo?$AAr?$AA?$AN?$AA?6?$AA?$AA@ 000000018004d548     LIBCMT:crt0msg.obj
 0002:00002568       ??_C@_1BK@KMOMNAAI@?$AAS?$AAI?$AAN?$AAG?$AA?5?$AAe?$AAr?$AAr?$AAo?$AAr?$AA?$AN?$AA?6?$AA?$AA@ 000000018004d568     LIBCMT:crt0msg.obj
 0002:00002588       ??_C@_1BM@JBBEPPHI@?$AAT?$AAL?$AAO?$AAS?$AAS?$AA?5?$AAe?$AAr?$AAr?$AAo?$AAr?$AA?$AN?$AA?6?$AA?$AA@ 000000018004d588     LIBCMT:crt0msg.obj
 0002:000025a4       ??_C@_15JNBOKNOG@?$AA?$AN?$AA?6?$AA?$AA@ 000000018004d5a4     LIBCMT:crt0msg.obj
 0002:000025b0       ??_C@_1BO@BKOMIGKJ@?$AAr?$AAu?$AAn?$AAt?$AAi?$AAm?$AAe?$AA?5?$AAe?$AAr?$AAr?$AAo?$AAr?$AA?5?$AA?$AA@ 000000018004d5b0     LIBCMT:crt0msg.obj
 0002:000025d0       ??_C@_1DE@JNGNBFGO@?$AAR?$AAu?$AAn?$AAt?$AAi?$AAm?$AAe?$AA?5?$AAE?$AAr?$AAr?$AAo?$AAr?$AA?$CB?$AA?6?$AA?6?$AAP?$AAr?$AAo?$AAg?$AAr?$AAa?$AAm?$AA?3?$AA?5?$AA?$AA@ 000000018004d5d0     LIBCMT:crt0msg.obj
 0002:00002604       ??_C@_06OJHGLDPL@?$CInull?$CJ?$AA@ 000000018004d604     LIBCMT:output.obj
 0002:00002610       ??_C@_1O@CEDCILHN@?$AA?$CI?$AAn?$AAu?$AAl?$AAl?$AA?$CJ?$AA?$AA@ 000000018004d610     LIBCMT:output.obj
 0002:00002620       __lookuptable              000000018004d620     LIBCMT:output.obj
 0002:00002680       __lookuptable_s            000000018004d680     LIBCMT:outputs.obj
 0002:000026e0       ??_C@_1BG@GOEBHBDC@?$AAU?$AAS?$AAE?$AAR?$AA3?$AA2?$AA?4?$AAD?$AAL?$AAL?$AA?$AA@ 000000018004d6e0     LIBCMT:crtmboxw.obj
 0002:000026f8       ??_C@_0M@DLDCCGNP@MessageBoxW?$AA@ 000000018004d6f8     LIBCMT:crtmboxw.obj
 0002:00002708       ??_C@_0BA@HNOPNCHB@GetActiveWindow?$AA@ 000000018004d708     LIBCMT:crtmboxw.obj
 0002:00002718       ??_C@_0BD@HHGDFDBJ@GetLastActivePopup?$AA@ 000000018004d718     LIBCMT:crtmboxw.obj
 0002:00002730       ??_C@_0BK@DEKFELLI@GetUserObjectInformationW?$AA@ 000000018004d730     LIBCMT:crtmboxw.obj
 0002:00002750       ??_C@_0BI@DFKBFLJE@GetProcessWindowStation?$AA@ 000000018004d750     LIBCMT:crtmboxw.obj
 0002:00002790       ??_C@_08KNHFBNJ@FlsAlloc?$AA@ 000000018004d790     LIBCMT:winapisupp.obj
 0002:000027a0       ??_C@_07PEJMOBNF@FlsFree?$AA@ 000000018004d7a0     LIBCMT:winapisupp.obj
 0002:000027a8       ??_C@_0M@GDNOONDI@FlsGetValue?$AA@ 000000018004d7a8     LIBCMT:winapisupp.obj
 0002:000027b8       ??_C@_0M@JCPCPOEF@FlsSetValue?$AA@ 000000018004d7b8     LIBCMT:winapisupp.obj
 0002:000027c8       ??_C@_0BM@HCFOFFN@InitializeCriticalSectionEx?$AA@ 000000018004d7c8     LIBCMT:winapisupp.obj
 0002:000027e8       ??_C@_0P@DLHPPCNH@CreateEventExW?$AA@ 000000018004d7e8     LIBCMT:winapisupp.obj
 0002:000027f8       ??_C@_0BD@KIEEOEEH@CreateSemaphoreExW?$AA@ 000000018004d7f8     LIBCMT:winapisupp.obj
 0002:00002810       ??_C@_0BI@BKLFFAPO@SetThreadStackGuarantee?$AA@ 000000018004d810     LIBCMT:winapisupp.obj
 0002:00002828       ??_C@_0BG@OGFAJCKC@CreateThreadpoolTimer?$AA@ 000000018004d828     LIBCMT:winapisupp.obj
 0002:00002840       ??_C@_0BD@LPLEMMDI@SetThreadpoolTimer?$AA@ 000000018004d840     LIBCMT:winapisupp.obj
 0002:00002858       ??_C@_0CA@FMNJENH@WaitForThreadpoolTimerCallbacks?$AA@ 000000018004d858     LIBCMT:winapisupp.obj
 0002:00002878       ??_C@_0BF@DCFCCNOC@CloseThreadpoolTimer?$AA@ 000000018004d878     LIBCMT:winapisupp.obj
 0002:00002890       ??_C@_0BF@FLABGKKM@CreateThreadpoolWait?$AA@ 000000018004d890     LIBCMT:winapisupp.obj
 0002:000028a8       ??_C@_0BC@MGCOHNA@SetThreadpoolWait?$AA@ 000000018004d8a8     LIBCMT:winapisupp.obj
 0002:000028c0       ??_C@_0BE@OCIOMIMP@CloseThreadpoolWait?$AA@ 000000018004d8c0     LIBCMT:winapisupp.obj
 0002:000028d8       ??_C@_0BJ@LKGHFHBO@FlushProcessWriteBuffers?$AA@ 000000018004d8d8     LIBCMT:winapisupp.obj
 0002:000028f8       ??_C@_0BP@KALKKPMO@FreeLibraryWhenCallbackReturns?$AA@ 000000018004d8f8     LIBCMT:winapisupp.obj
 0002:00002918       ??_C@_0BK@DFNBACLA@GetCurrentProcessorNumber?$AA@ 000000018004d918     LIBCMT:winapisupp.obj
 0002:00002938       ??_C@_0BP@KHGALBC@GetLogicalProcessorInformation?$AA@ 000000018004d938     LIBCMT:winapisupp.obj
 0002:00002958       ??_C@_0BE@FKKLLFLM@CreateSymbolicLinkW?$AA@ 000000018004d958     LIBCMT:winapisupp.obj
 0002:00002970       ??_C@_0BJ@OHNKDLIJ@SetDefaultDllDirectories?$AA@ 000000018004d970     LIBCMT:winapisupp.obj
 0002:00002990       ??_C@_0BE@LJANKFHF@EnumSystemLocalesEx?$AA@ 000000018004d990     LIBCMT:winapisupp.obj
 0002:000029a8       ??_C@_0BA@IHGNDAEB@CompareStringEx?$AA@ 000000018004d9a8     LIBCMT:winapisupp.obj
 0002:000029b8       ??_C@_0BA@EPCJIIPD@GetDateFormatEx?$AA@ 000000018004d9b8     LIBCMT:winapisupp.obj
 0002:000029c8       ??_C@_0BA@ONOKGCMP@GetLocaleInfoEx?$AA@ 000000018004d9c8     LIBCMT:winapisupp.obj
 0002:000029d8       ??_C@_0BA@CIJJKCJJ@GetTimeFormatEx?$AA@ 000000018004d9d8     LIBCMT:winapisupp.obj
 0002:000029e8       ??_C@_0BJ@PBCCBIPI@GetUserDefaultLocaleName?$AA@ 000000018004d9e8     LIBCMT:winapisupp.obj
 0002:00002a08       ??_C@_0BC@CELBKLLA@IsValidLocaleName?$AA@ 000000018004da08     LIBCMT:winapisupp.obj
 0002:00002a20       ??_C@_0O@KKBNKAPF@LCMapStringEx?$AA@ 000000018004da20     LIBCMT:winapisupp.obj
 0002:00002a30       ??_C@_0BE@JOGNEJCI@GetCurrentPackageId?$AA@ 000000018004da30     LIBCMT:winapisupp.obj
 0002:00002a48       ??_C@_0P@CDHHOHKP@GetTickCount64?$AA@ 000000018004da48     LIBCMT:winapisupp.obj
 0002:00002a58       ??_C@_0BO@KPCLFDJJ@GetFileInformationByHandleExW?$AA@ 000000018004da58     LIBCMT:winapisupp.obj
 0002:00002a78       ??_C@_0BM@MHIDLABK@SetFileInformationByHandleW?$AA@ 000000018004da78     LIBCMT:winapisupp.obj
 0002:00002ab8       ??_C@_1M@HPNHIDJI@?$AAj?$AAa?$AA?9?$AAJ?$AAP?$AA?$AA@ 000000018004dab8     LIBCMT:mbctype.obj
 0002:00002ac8       ??_C@_1M@BIBDDEMK@?$AAz?$AAh?$AA?9?$AAC?$AAN?$AA?$AA@ 000000018004dac8     LIBCMT:mbctype.obj
 0002:00002ad8       ??_C@_1M@JLOOOEGK@?$AAk?$AAo?$AA?9?$AAK?$AAR?$AA?$AA@ 000000018004dad8     LIBCMT:mbctype.obj
 0002:00002ae8       ??_C@_1M@CLNBBOPM@?$AAz?$AAh?$AA?9?$AAT?$AAW?$AA?$AA@ 000000018004dae8     LIBCMT:mbctype.obj
 0002:00002af4       ??_C@_03KHJOGHMM@exp?$AA@  000000018004daf4     LIBCMT:fpexcept.obj
 0002:00002af8       ??_C@_03JGHBODFD@pow?$AA@  000000018004daf8     LIBCMT:fpexcept.obj
 0002:00002afc       ??_C@_03MGHMBJCF@log?$AA@  000000018004dafc     LIBCMT:fpexcept.obj
 0002:00002b00       ??_C@_05HGHHAHAP@log10?$AA@ 000000018004db00     LIBCMT:fpexcept.obj
 0002:00002b08       ??_C@_04COOMCNPB@sinh?$AA@ 000000018004db08     LIBCMT:fpexcept.obj
 0002:00002b10       ??_C@_04HPJJNFIM@cosh?$AA@ 000000018004db10     LIBCMT:fpexcept.obj
 0002:00002b18       ??_C@_04FJHINJAO@tanh?$AA@ 000000018004db18     LIBCMT:fpexcept.obj
 0002:00002b20       ??_C@_04FIHNOPOL@asin?$AA@ 000000018004db20     LIBCMT:fpexcept.obj
 0002:00002b28       ??_C@_04PDIFKINK@acos?$AA@ 000000018004db28     LIBCMT:fpexcept.obj
 0002:00002b30       ??_C@_04MLLJIGOK@atan?$AA@ 000000018004db30     LIBCMT:fpexcept.obj
 0002:00002b38       ??_C@_05KNGEOGJB@atan2?$AA@ 000000018004db38     LIBCMT:fpexcept.obj
 0002:00002b40       ??_C@_04EIAKFFMI@sqrt?$AA@ 000000018004db40     LIBCMT:fpexcept.obj
 0002:00002b48       ??_C@_03BLEJJJBH@sin?$AA@  000000018004db48     LIBCMT:fpexcept.obj
 0002:00002b4c       ??_C@_03LALBNOCG@cos?$AA@  000000018004db4c     LIBCMT:fpexcept.obj
 0002:00002b50       ??_C@_03IIINPABG@tan?$AA@  000000018004db50     LIBCMT:fpexcept.obj
 0002:00002b54       ??_C@_04GFPJNGEK@ceil?$AA@ 000000018004db54     LIBCMT:fpexcept.obj
 0002:00002b5c       ??_C@_05PBJFFIGL@floor?$AA@ 000000018004db5c     LIBCMT:fpexcept.obj
 0002:00002b64       ??_C@_04ODHECPBC@fabs?$AA@ 000000018004db64     LIBCMT:fpexcept.obj
 0002:00002b6c       ??_C@_04EHEDPDJG@modf?$AA@ 000000018004db6c     LIBCMT:fpexcept.obj
 0002:00002b74       ??_C@_05CEJMAHNP@ldexp?$AA@ 000000018004db74     LIBCMT:fpexcept.obj
 0002:00002b7c       ??_C@_05KBKMEMPO@_cabs?$AA@ 000000018004db7c     LIBCMT:fpexcept.obj
 0002:00002b84       ??_C@_04KEPJIHGP@fmod?$AA@ 000000018004db84     LIBCMT:fpexcept.obj
 0002:00002b8c       ??_C@_05GKKHEGJL@frexp?$AA@ 000000018004db8c     LIBCMT:fpexcept.obj
 0002:00002b94       ??_C@_03MJLDFKDL@_y0?$AA@  000000018004db94     LIBCMT:fpexcept.obj
 0002:00002b98       ??_C@_03NAKIGLHK@_y1?$AA@  000000018004db98     LIBCMT:fpexcept.obj
 0002:00002b9c       ??_C@_03ONILCKOB@_yn?$AA@  000000018004db9c     LIBCMT:fpexcept.obj
 0002:00002ba0       ??_C@_05JGDBENOH@_logb?$AA@ 000000018004dba0     LIBCMT:fpexcept.obj
 0002:00002ba8       ??_C@_0L@KDOEJCKC@_nextafter?$AA@ 000000018004dba8     LIBCMT:fpexcept.obj
 0002:00002bb8       __real@0000000000000000    000000018004dbb8     LIBCMT:fpexcept.obj
 0002:00002bc0       ??_C@_03KOEHGMDN@Sun?$AA@  000000018004dbc0     LIBCMT:nlsdata.obj
 0002:00002bc4       ??_C@_03PDAGKDH@Mon?$AA@   000000018004dbc4     LIBCMT:nlsdata.obj
 0002:00002bc8       ??_C@_03NAGEINEP@Tue?$AA@  000000018004dbc8     LIBCMT:nlsdata.obj
 0002:00002bcc       ??_C@_03MHOMLAJA@Wed?$AA@  000000018004dbcc     LIBCMT:nlsdata.obj
 0002:00002bd0       ??_C@_03IOFIKPDN@Thu?$AA@  000000018004dbd0     LIBCMT:nlsdata.obj
 0002:00002bd4       ??_C@_03IDIOELNC@Fri?$AA@  000000018004dbd4     LIBCMT:nlsdata.obj
 0002:00002bd8       ??_C@_03FEFJNEK@Sat?$AA@   000000018004dbd8     LIBCMT:nlsdata.obj
 0002:00002bdc       ??_C@_06OOPIFAJ@Sunday?$AA@ 000000018004dbdc     LIBCMT:nlsdata.obj
 0002:00002be4       ??_C@_06JLEDEDGH@Monday?$AA@ 000000018004dbe4     LIBCMT:nlsdata.obj
 0002:00002bf0       ??_C@_07BAAGCFCM@Tuesday?$AA@ 000000018004dbf0     LIBCMT:nlsdata.obj
 0002:00002bf8       ??_C@_09DLIGFAKA@Wednesday?$AA@ 000000018004dbf8     LIBCMT:nlsdata.obj
 0002:00002c08       ??_C@_08HACCIKIA@Thursday?$AA@ 000000018004dc08     LIBCMT:nlsdata.obj
 0002:00002c14       ??_C@_06JECMNKMI@Friday?$AA@ 000000018004dc14     LIBCMT:nlsdata.obj
 0002:00002c20       ??_C@_08INBOOONO@Saturday?$AA@ 000000018004dc20     LIBCMT:nlsdata.obj
 0002:00002c2c       ??_C@_03JIHJHPIE@Jan?$AA@  000000018004dc2c     LIBCMT:nlsdata.obj
 0002:00002c30       ??_C@_03HJBDCHOM@Feb?$AA@  000000018004dc30     LIBCMT:nlsdata.obj
 0002:00002c34       ??_C@_03ODNJBKGA@Mar?$AA@  000000018004dc34     LIBCMT:nlsdata.obj
 0002:00002c38       ??_C@_03LEOLGMJP@Apr?$AA@  000000018004dc38     LIBCMT:nlsdata.obj
 0002:00002c3c       ??_C@_03CNMDKL@May?$AA@    000000018004dc3c     LIBCMT:nlsdata.obj
 0002:00002c40       ??_C@_03IDFGHECI@Jun?$AA@  000000018004dc40     LIBCMT:nlsdata.obj
 0002:00002c44       ??_C@_03LBGABGKK@Jul?$AA@  000000018004dc44     LIBCMT:nlsdata.obj
 0002:00002c48       ??_C@_03IFJFEIGA@Aug?$AA@  000000018004dc48     LIBCMT:nlsdata.obj
 0002:00002c4c       ??_C@_03GGCAPAJC@Sep?$AA@  000000018004dc4c     LIBCMT:nlsdata.obj
 0002:00002c50       ??_C@_03BMAOKBAD@Oct?$AA@  000000018004dc50     LIBCMT:nlsdata.obj
 0002:00002c54       ??_C@_03JPJOFNIA@Nov?$AA@  000000018004dc54     LIBCMT:nlsdata.obj
 0002:00002c58       ??_C@_03MKABNOCG@Dec?$AA@  000000018004dc58     LIBCMT:nlsdata.obj
 0002:00002c60       ??_C@_07CGJPFGJA@January?$AA@ 000000018004dc60     LIBCMT:nlsdata.obj
 0002:00002c68       ??_C@_08GNJGEPFN@February?$AA@ 000000018004dc68     LIBCMT:nlsdata.obj
 0002:00002c74       ??_C@_05HPCKOFNC@March?$AA@ 000000018004dc74     LIBCMT:nlsdata.obj
 0002:00002c7c       ??_C@_05DMJDNLEJ@April?$AA@ 000000018004dc7c     LIBCMT:nlsdata.obj
 0002:00002c84       ??_C@_04CNLMGBGM@June?$AA@ 000000018004dc84     LIBCMT:nlsdata.obj
 0002:00002c8c       ??_C@_04MIEPOIFP@July?$AA@ 000000018004dc8c     LIBCMT:nlsdata.obj
 0002:00002c94       ??_C@_06LBBHFDDG@August?$AA@ 000000018004dc94     LIBCMT:nlsdata.obj
 0002:00002ca0       ??_C@_09BHHEALKD@September?$AA@ 000000018004dca0     LIBCMT:nlsdata.obj
 0002:00002cb0       ??_C@_07JJNFCEND@October?$AA@ 000000018004dcb0     LIBCMT:nlsdata.obj
 0002:00002cb8       ??_C@_08HCHEGEOA@November?$AA@ 000000018004dcb8     LIBCMT:nlsdata.obj
 0002:00002cc8       ??_C@_08EDHMEBNP@December?$AA@ 000000018004dcc8     LIBCMT:nlsdata.obj
 0002:00002cd4       ??_C@_02DEDBPAFC@AM?$AA@   000000018004dcd4     LIBCMT:nlsdata.obj
 0002:00002cd8       ??_C@_02CJNFDJBF@PM?$AA@   000000018004dcd8     LIBCMT:nlsdata.obj
 0002:00002ce0       ??_C@_08BPBNCDIB@MM?1dd?1yy?$AA@ 000000018004dce0     LIBCMT:nlsdata.obj
 0002:00002cf0       ??_C@_0BE@CKGJFCPC@dddd?0?5MMMM?5dd?0?5yyyy?$AA@ 000000018004dcf0     LIBCMT:nlsdata.obj
 0002:00002d08       ??_C@_08JCCMCCIL@HH?3mm?3ss?$AA@ 000000018004dd08     LIBCMT:nlsdata.obj
 0002:00002d18       ??_C@_17MBGCMIPB@?$AAS?$AAu?$AAn?$AA?$AA@ 000000018004dd18     LIBCMT:nlsdata.obj
 0002:00002d20       ??_C@_17KBOMKBF@?$AAM?$AAo?$AAn?$AA?$AA@ 000000018004dd20     LIBCMT:nlsdata.obj
 0002:00002d28       ??_C@_17BMKGEGOJ@?$AAT?$AAu?$AAe?$AA?$AA@ 000000018004dd28     LIBCMT:nlsdata.obj
 0002:00002d30       ??_C@_17CJEDCEPE@?$AAW?$AAe?$AAd?$AA?$AA@ 000000018004dd30     LIBCMT:nlsdata.obj
 0002:00002d38       ??_C@_17PDPHAADD@?$AAT?$AAh?$AAu?$AA?$AA@ 000000018004dd38     LIBCMT:nlsdata.obj
 0002:00002d40       ??_C@_17HFOLPPLP@?$AAF?$AAr?$AAi?$AA?$AA@ 000000018004dd40     LIBCMT:nlsdata.obj
 0002:00002d48       ??_C@_17GGIBDPIH@?$AAS?$AAa?$AAt?$AA?$AA@ 000000018004dd48     LIBCMT:nlsdata.obj
 0002:00002d50       ??_C@_1O@IHNHDHPB@?$AAS?$AAu?$AAn?$AAd?$AAa?$AAy?$AA?$AA@ 000000018004dd50     LIBCMT:nlsdata.obj
 0002:00002d60       ??_C@_1O@MMNBFLIA@?$AAM?$AAo?$AAn?$AAd?$AAa?$AAy?$AA?$AA@ 000000018004dd60     LIBCMT:nlsdata.obj
 0002:00002d70       ??_C@_1BA@ENFBFFEK@?$AAT?$AAu?$AAe?$AAs?$AAd?$AAa?$AAy?$AA?$AA@ 000000018004dd70     LIBCMT:nlsdata.obj
 0002:00002d80       ??_C@_1BE@EBOGMDOH@?$AAW?$AAe?$AAd?$AAn?$AAe?$AAs?$AAd?$AAa?$AAy?$AA?$AA@ 000000018004dd80     LIBCMT:nlsdata.obj
 0002:00002d98       ??_C@_1BC@HHMNLIHE@?$AAT?$AAh?$AAu?$AAr?$AAs?$AAd?$AAa?$AAy?$AA?$AA@ 000000018004dd98     LIBCMT:nlsdata.obj
 0002:00002db0       ??_C@_1O@PDICJHAG@?$AAF?$AAr?$AAi?$AAd?$AAa?$AAy?$AA?$AA@ 000000018004ddb0     LIBCMT:nlsdata.obj
 0002:00002dc0       ??_C@_1BC@ENMNNPAJ@?$AAS?$AAa?$AAt?$AAu?$AAr?$AAd?$AAa?$AAy?$AA?$AA@ 000000018004ddc0     LIBCMT:nlsdata.obj
 0002:00002dd8       ??_C@_17DKNBKCHM@?$AAJ?$AAa?$AAn?$AA?$AA@ 000000018004ddd8     LIBCMT:nlsdata.obj
 0002:00002de0       ??_C@_17LMDJEKJN@?$AAF?$AAe?$AAb?$AA?$AA@ 000000018004dde0     LIBCMT:nlsdata.obj
 0002:00002de8       ??_C@_17CKNLEDEC@?$AAM?$AAa?$AAr?$AA?$AA@ 000000018004dde8     LIBCMT:nlsdata.obj
 0002:00002df0       ??_C@_17LFPOIHDD@?$AAA?$AAp?$AAr?$AA?$AA@ 000000018004ddf0     LIBCMT:nlsdata.obj
 0002:00002df8       ??_C@_17PNNKMEED@?$AAM?$AAa?$AAy?$AA?$AA@ 000000018004ddf8     LIBCMT:nlsdata.obj
 0002:00002e00       ??_C@_17KCJGOCPB@?$AAJ?$AAu?$AAn?$AA?$AA@ 000000018004de00     LIBCMT:nlsdata.obj
 0002:00002e08       ??_C@_17IJPCKHK@?$AAJ?$AAu?$AAl?$AA?$AA@ 000000018004de08     LIBCMT:nlsdata.obj
 0002:00002e10       ??_C@_17ICPELBCN@?$AAA?$AAu?$AAg?$AA?$AA@ 000000018004de10     LIBCMT:nlsdata.obj
 0002:00002e18       ??_C@_17HCHCOKMG@?$AAS?$AAe?$AAp?$AA?$AA@ 000000018004de18     LIBCMT:nlsdata.obj
 0002:00002e20       ??_C@_17FNLKOI@?$AAO?$AAc?$AAt?$AA?$AA@ 000000018004de20     LIBCMT:nlsdata.obj
 0002:00002e28       ??_C@_17BBDMLCIG@?$AAN?$AAo?$AAv?$AA?$AA@ 000000018004de28     LIBCMT:nlsdata.obj
 0002:00002e30       ??_C@_17EGKACKIF@?$AAD?$AAe?$AAc?$AA?$AA@ 000000018004de30     LIBCMT:nlsdata.obj
 0002:00002e38       ??_C@_1BA@EFMEIEBA@?$AAJ?$AAa?$AAn?$AAu?$AAa?$AAr?$AAy?$AA?$AA@ 000000018004de38     LIBCMT:nlsdata.obj
 0002:00002e48       ??_C@_1BC@JGDDFFAM@?$AAF?$AAe?$AAb?$AAr?$AAu?$AAa?$AAr?$AAy?$AA?$AA@ 000000018004de48     LIBCMT:nlsdata.obj
 0002:00002e60       ??_C@_1M@IKEENEDF@?$AAM?$AAa?$AAr?$AAc?$AAh?$AA?$AA@ 000000018004de60     LIBCMT:nlsdata.obj
 0002:00002e70       ??_C@_1M@GJNLMHFD@?$AAA?$AAp?$AAr?$AAi?$AAl?$AA?$AA@ 000000018004de70     LIBCMT:nlsdata.obj
 0002:00002e80       ??_C@_19EPFLPGAP@?$AAJ?$AAu?$AAn?$AAe?$AA?$AA@ 000000018004de80     LIBCMT:nlsdata.obj
 0002:00002e90       ??_C@_19BIFMLPCD@?$AAJ?$AAu?$AAl?$AAy?$AA?$AA@ 000000018004de90     LIBCMT:nlsdata.obj
 0002:00002ea0       ??_C@_1O@PAHLKOAC@?$AAA?$AAu?$AAg?$AAu?$AAs?$AAt?$AA?$AA@ 000000018004dea0     LIBCMT:nlsdata.obj
 0002:00002eb0       ??_C@_1BE@DKAAMBJL@?$AAS?$AAe?$AAp?$AAt?$AAe?$AAm?$AAb?$AAe?$AAr?$AA?$AA@ 000000018004deb0     LIBCMT:nlsdata.obj
 0002:00002ec8       ??_C@_1BA@EPANDLNG@?$AAO?$AAc?$AAt?$AAo?$AAb?$AAe?$AAr?$AA?$AA@ 000000018004dec8     LIBCMT:nlsdata.obj
 0002:00002ed8       ??_C@_1BC@BGLIFPF@?$AAN?$AAo?$AAv?$AAe?$AAm?$AAb?$AAe?$AAr?$AA?$AA@ 000000018004ded8     LIBCMT:nlsdata.obj
 0002:00002ef0       ??_C@_1BC@FEMKIFH@?$AAD?$AAe?$AAc?$AAe?$AAm?$AAb?$AAe?$AAr?$AA?$AA@ 000000018004def0     LIBCMT:nlsdata.obj
 0002:00002f04       ??_C@_15ODEHAHHF@?$AAA?$AAM?$AA?$AA@ 000000018004df04     LIBCMT:nlsdata.obj
 0002:00002f0c       ??_C@_15CLMNNGEL@?$AAP?$AAM?$AA?$AA@ 000000018004df0c     LIBCMT:nlsdata.obj
 0002:00002f18       ??_C@_1BC@IEBCMHCM@?$AAM?$AAM?$AA?1?$AAd?$AAd?$AA?1?$AAy?$AAy?$AA?$AA@ 000000018004df18     LIBCMT:nlsdata.obj
 0002:00002f30       ??_C@_1CI@KNAKOEBC@?$AAd?$AAd?$AAd?$AAd?$AA?0?$AA?5?$AAM?$AAM?$AAM?$AAM?$AA?5?$AAd?$AAd?$AA?0?$AA?5?$AAy?$AAy?$AAy?$AAy?$AA?$AA@ 000000018004df30     LIBCMT:nlsdata.obj
 0002:00002f58       ??_C@_1BC@GDGBMEMK@?$AAH?$AAH?$AA?3?$AAm?$AAm?$AA?3?$AAs?$AAs?$AA?$AA@ 000000018004df58     LIBCMT:nlsdata.obj
 0002:00002f70       ??_C@_1M@BMHNFIME@?$AAe?$AAn?$AA?9?$AAU?$AAS?$AA?$AA@ 000000018004df70     LIBCMT:nlsdata.obj
 0002:00002f80       _sys_errlist               000000018004df80     LIBCMT:syserr.obj
 0002:000030e0       ??_C@_08INEPGKHH@No?5error?$AA@ 000000018004e0e0     LIBCMT:syserr.obj
 0002:000030f0       ??_C@_0BI@BJFCGOHL@Operation?5not?5permitted?$AA@ 000000018004e0f0     LIBCMT:syserr.obj
 0002:00003108       ??_C@_0BK@FMDHKPNF@No?5such?5file?5or?5directory?$AA@ 000000018004e108     LIBCMT:syserr.obj
 0002:00003128       ??_C@_0BA@FKIAIBGA@No?5such?5process?$AA@ 000000018004e128     LIBCMT:syserr.obj
 0002:00003138       ??_C@_0BK@FJBOAFDK@Interrupted?5function?5call?$AA@ 000000018004e138     LIBCMT:syserr.obj
 0002:00003158       ??_C@_0BD@KKNFOBBD@Input?1output?5error?$AA@ 000000018004e158     LIBCMT:syserr.obj
 0002:00003170       ??_C@_0BK@DPKMCKJ@No?5such?5device?5or?5address?$AA@ 000000018004e170     LIBCMT:syserr.obj
 0002:00003190       ??_C@_0BC@MFFGCDFL@Arg?5list?5too?5long?$AA@ 000000018004e190     LIBCMT:syserr.obj
 0002:000031a8       ??_C@_0BC@HKPNECK@Exec?5format?5error?$AA@ 000000018004e1a8     LIBCMT:syserr.obj
 0002:000031c0       ??_C@_0BE@NFGDDCEF@Bad?5file?5descriptor?$AA@ 000000018004e1c0     LIBCMT:syserr.obj
 0002:000031d8       ??_C@_0BD@LOHELEP@No?5child?5processes?$AA@ 000000018004e1d8     LIBCMT:syserr.obj
 0002:000031f0       ??_C@_0CB@EPFKGNAK@Resource?5temporarily?5unavailable@ 000000018004e1f0     LIBCMT:syserr.obj
 0002:00003218       ??_C@_0BB@IMDKMPFB@Not?5enough?5space?$AA@ 000000018004e218     LIBCMT:syserr.obj
 0002:00003230       ??_C@_0BC@HFNFNKAI@Permission?5denied?$AA@ 000000018004e230     LIBCMT:syserr.obj
 0002:00003248       ??_C@_0M@LOEHLCJD@Bad?5address?$AA@ 000000018004e248     LIBCMT:syserr.obj
 0002:00003258       ??_C@_0O@NIPGCINC@Unknown?5error?$AA@ 000000018004e258     LIBCMT:syserr.obj
 0002:00003268       ??_C@_0BA@BIBLIOEK@Resource?5device?$AA@ 000000018004e268     LIBCMT:syserr.obj
 0002:00003278       ??_C@_0M@NAAJNNGH@File?5exists?$AA@ 000000018004e278     LIBCMT:syserr.obj
 0002:00003288       ??_C@_0O@OAMDNOCP@Improper?5link?$AA@ 000000018004e288     LIBCMT:syserr.obj
 0002:00003298       ??_C@_0P@NLEIANHE@No?5such?5device?$AA@ 000000018004e298     LIBCMT:syserr.obj
 0002:000032a8       ??_C@_0BA@CJBACOOL@Not?5a?5directory?$AA@ 000000018004e2a8     LIBCMT:syserr.obj
 0002:000032b8       ??_C@_0P@NDHGCGKE@Is?5a?5directory?$AA@ 000000018004e2b8     LIBCMT:syserr.obj
 0002:000032c8       ??_C@_0BB@HMGGCEBG@Invalid?5argument?$AA@ 000000018004e2c8     LIBCMT:syserr.obj
 0002:000032e0       ??_C@_0BO@IIFBODJE@Too?5many?5open?5files?5in?5system?$AA@ 000000018004e2e0     LIBCMT:syserr.obj
 0002:00003300       ??_C@_0BE@INBJMKGG@Too?5many?5open?5files?$AA@ 000000018004e300     LIBCMT:syserr.obj
 0002:00003318       ??_C@_0CE@ONOKNLPF@Inappropriate?5I?1O?5control?5operat@ 000000018004e318     LIBCMT:syserr.obj
 0002:00003340       ??_C@_0P@LFMMIPAE@File?5too?5large?$AA@ 000000018004e340     LIBCMT:syserr.obj
 0002:00003350       ??_C@_0BI@FEALHKLD@No?5space?5left?5on?5device?$AA@ 000000018004e350     LIBCMT:syserr.obj
 0002:00003368       ??_C@_0N@FEHLOILP@Invalid?5seek?$AA@ 000000018004e368     LIBCMT:syserr.obj
 0002:00003378       ??_C@_0BG@DDBFNKBH@Read?9only?5file?5system?$AA@ 000000018004e378     LIBCMT:syserr.obj
 0002:00003390       ??_C@_0P@PKCJJLLM@Too?5many?5links?$AA@ 000000018004e390     LIBCMT:syserr.obj
 0002:000033a0       ??_C@_0M@LHEPIIOM@Broken?5pipe?$AA@ 000000018004e3a0     LIBCMT:syserr.obj
 0002:000033b0       ??_C@_0N@MMJPGLJK@Domain?5error?$AA@ 000000018004e3b0     LIBCMT:syserr.obj
 0002:000033c0       ??_C@_0BB@FCBJFCAJ@Result?5too?5large?$AA@ 000000018004e3c0     LIBCMT:syserr.obj
 0002:000033d8       ??_C@_0BK@JAEBMJJM@Resource?5deadlock?5avoided?$AA@ 000000018004e3d8     LIBCMT:syserr.obj
 0002:000033f8       ??_C@_0BC@BEDIHIDK@Filename?5too?5long?$AA@ 000000018004e3f8     LIBCMT:syserr.obj
 0002:00003410       ??_C@_0BD@CLHBCGPB@No?5locks?5available?$AA@ 000000018004e410     LIBCMT:syserr.obj
 0002:00003428       ??_C@_0BJ@IHEHINLI@Function?5not?5implemented?$AA@ 000000018004e428     LIBCMT:syserr.obj
 0002:00003448       ??_C@_0BE@ICMCHPHH@Directory?5not?5empty?$AA@ 000000018004e448     LIBCMT:syserr.obj
 0002:00003460       ??_C@_0BG@KLEAJEFJ@Illegal?5byte?5sequence?$AA@ 000000018004e460     LIBCMT:syserr.obj
 0002:00003500       _XcptActTab                000000018004e500     LIBCMT:winxfltr.obj
 0002:000035c0       _XcptActTabCount           000000018004e5c0     LIBCMT:winxfltr.obj
 0002:000035c4       _XcptActTabSize            000000018004e5c4     LIBCMT:winxfltr.obj
 0002:000035c8       _First_FPE_Indx            000000018004e5c8     LIBCMT:winxfltr.obj
 0002:000035cc       _Num_FPE                   000000018004e5cc     LIBCMT:winxfltr.obj
 0002:000035d0       _pDestructExceptionObject  000000018004e5d0     LIBCMT:frame.obj
 0002:000035e0       ??_7bad_exception@std@@6B@ 000000018004e5e0     LIBCMT:frame.obj
 0002:000035f0       ??_C@_0O@DPKOEFFH@bad?5exception?$AA@ 000000018004e5f0     LIBCMT:frame.obj
 0002:00003600       ??_C@_05KLBDPFGC@e?$CL000?$AA@ 000000018004e600     LIBCMT:cvt.obj
 0002:00003610       LcidToLocaleNameTable      000000018004e610     LIBCMT:winapinls.obj
 0002:00004450       LocaleNameToIndexTable     000000018004f450     LIBCMT:winapinls.obj
 0002:00005290       ??_C@_15EMKDOKLE@?$AAa?$AAr?$AA?$AA@ 0000000180050290     LIBCMT:winapinls.obj
 0002:00005298       ??_C@_15KNPADPLH@?$AAb?$AAg?$AA?$AA@ 0000000180050298     LIBCMT:winapinls.obj
 0002:000052a0       ??_C@_15EDMHLDMO@?$AAc?$AAa?$AA?$AA@ 00000001800502a0     LIBCMT:winapinls.obj
 0002:000052a8       ??_C@_1O@BPEAJADD@?$AAz?$AAh?$AA?9?$AAC?$AAH?$AAS?$AA?$AA@ 00000001800502a8     LIBCMT:winapinls.obj
 0002:000052b8       ??_C@_15LJNHCMNK@?$AAc?$AAs?$AA?$AA@ 00000001800502b8     LIBCMT:winapinls.obj
 0002:000052c0       ??_C@_15FOMCIDHG@?$AAd?$AAa?$AA?$AA@ 00000001800502c0     LIBCMT:winapinls.obj
 0002:000052c8       ??_C@_15NBKABECB@?$AAd?$AAe?$AA?$AA@ 00000001800502c8     LIBCMT:winapinls.obj
 0002:000052d0       ??_C@_15GHPEIIAO@?$AAe?$AAl?$AA?$AA@ 00000001800502d0     LIBCMT:winapinls.obj
 0002:000052d8       ??_C@_15MNPNEAIF@?$AAe?$AAn?$AA?$AA@ 00000001800502d8     LIBCMT:winapinls.obj
 0002:000052e0       ??_C@_15GPIOMPMH@?$AAe?$AAs?$AA?$AA@ 00000001800502e0     LIBCMT:winapinls.obj
 0002:000052e8       ??_C@_15NGLOAKJC@?$AAf?$AAi?$AA?$AA@ 00000001800502e8     LIBCMT:winapinls.obj
 0002:000052f0       ??_C@_15FBKGNKAM@?$AAf?$AAr?$AA?$AA@ 00000001800502f0     LIBCMT:winapinls.obj
 0002:000052f8       ??_C@_15KGGCNEFK@?$AAh?$AAe?$AA?$AA@ 00000001800502f8     LIBCMT:winapinls.obj
 0002:00005300       ??_C@_15PGHLIDMF@?$AAh?$AAu?$AA?$AA@ 0000000180050300     LIBCMT:winapinls.obj
 0002:00005308       ??_C@_15BIEMAPLM@?$AAi?$AAs?$AA?$AA@ 0000000180050308     LIBCMT:winapinls.obj
 0002:00005310       ??_C@_15IFJLDHAF@?$AAi?$AAt?$AA?$AA@ 0000000180050310     LIBCMT:winapinls.obj
 0002:00005318       ??_C@_15GEMIOCAG@?$AAj?$AAa?$AA?$AA@ 0000000180050318     LIBCMT:winapinls.obj
 0002:00005320       ??_C@_15EPELEGJA@?$AAk?$AAo?$AA?$AA@ 0000000180050320     LIBCMT:winapinls.obj
 0002:00005328       ??_C@_15NDDHIMN@?$AAn?$AAl?$AA?$AA@ 0000000180050328     LIBCMT:winapinls.obj
 0002:00005330       ??_C@_15BPIGNHCD@?$AAn?$AAo?$AA?$AA@ 0000000180050330     LIBCMT:winapinls.obj
 0002:00005338       ??_C@_15DEOPBLCG@?$AAp?$AAl?$AA?$AA@ 0000000180050338     LIBCMT:winapinls.obj
 0002:00005340       ??_C@_15KBECGEFG@?$AAp?$AAt?$AA?$AA@ 0000000180050340     LIBCMT:winapinls.obj
 0002:00005348       ??_C@_15GLJCBFMD@?$AAr?$AAo?$AA?$AA@ 0000000180050348     LIBCMT:winapinls.obj
 0002:00005350       ??_C@_15FEDGKCDI@?$AAr?$AAu?$AA?$AA@ 0000000180050350     LIBCMT:winapinls.obj
 0002:00005358       ??_C@_15GLKMLLHM@?$AAh?$AAr?$AA?$AA@ 0000000180050358     LIBCMT:winapinls.obj
 0002:00005360       ??_C@_15CPKMFBDB@?$AAs?$AAk?$AA?$AA@ 0000000180050360     LIBCMT:winapinls.obj
 0002:00005368       ??_C@_15BAAIOGMK@?$AAs?$AAq?$AA?$AA@ 0000000180050368     LIBCMT:winapinls.obj
 0002:00005370       ??_C@_15INNPNOHD@?$AAs?$AAv?$AA?$AA@ 0000000180050370     LIBCMT:winapinls.obj
 0002:00005378       ??_C@_15CABMMOGH@?$AAt?$AAh?$AA?$AA@ 0000000180050378     LIBCMT:winapinls.obj
 0002:00005380       ??_C@_15BPLIHJJM@?$AAt?$AAr?$AA?$AA@ 0000000180050380     LIBCMT:winapinls.obj
 0002:00005388       ??_C@_15NEOEKKDJ@?$AAu?$AAr?$AA?$AA@ 0000000180050388     LIBCMT:winapinls.obj
 0002:00005390       ??_C@_15NFICGAJK@?$AAi?$AAd?$AA?$AA@ 0000000180050390     LIBCMT:winapinls.obj
 0002:00005398       ??_C@_15PJPFLCCM@?$AAu?$AAk?$AA?$AA@ 0000000180050398     LIBCMT:winapinls.obj
 0002:000053a0       ??_C@_15HPJPHDM@?$AAb?$AAe?$AA?$AA@ 00000001800503a0     LIBCMT:winapinls.obj
 0002:000053a8       ??_C@_15LCHLGJII@?$AAs?$AAl?$AA?$AA@ 00000001800503a8     LIBCMT:winapinls.obj
 0002:000053b0       ??_C@_15PCFJPHHO@?$AAe?$AAt?$AA?$AA@ 00000001800503b0     LIBCMT:winapinls.obj
 0002:000053b8       ??_C@_15HPFPGODN@?$AAl?$AAv?$AA?$AA@ 00000001800503b8     LIBCMT:winapinls.obj
 0002:000053c0       ??_C@_15NFFGKGLG@?$AAl?$AAt?$AA?$AA@ 00000001800503c0     LIBCMT:winapinls.obj
 0002:000053c8       ??_C@_15BDAKCCHN@?$AAf?$AAa?$AA?$AA@ 00000001800503c8     LIBCMT:winapinls.obj
 0002:000053d0       ??_C@_15NFGIAIAJ@?$AAv?$AAi?$AA?$AA@ 00000001800503d0     LIBCMT:winapinls.obj
 0002:000053d8       ??_C@_15LMKNDMHN@?$AAh?$AAy?$AA?$AA@ 00000001800503d8     LIBCMT:winapinls.obj
 0002:000053e0       ??_C@_15IJBHMCFL@?$AAa?$AAz?$AA?$AA@ 00000001800503e0     LIBCMT:winapinls.obj
 0002:000053e8       ??_C@_15EKOFJABL@?$AAe?$AAu?$AA?$AA@ 00000001800503e8     LIBCMT:winapinls.obj
 0002:000053f0       ??_C@_15BGHADCNK@?$AAm?$AAk?$AA?$AA@ 00000001800503f0     LIBCMT:winapinls.obj
 0002:000053f8       ??_C@_15JDNICKHM@?$AAa?$AAf?$AA?$AA@ 00000001800503f8     LIBCMT:winapinls.obj
 0002:00005400       ??_C@_15KPJEDBKD@?$AAk?$AAa?$AA?$AA@ 0000000180050400     LIBCMT:winapinls.obj
 0002:00005408       ??_C@_15PDNFFFEO@?$AAf?$AAo?$AA?$AA@ 0000000180050408     LIBCMT:winapinls.obj
 0002:00005410       ??_C@_15OMLEGLOC@?$AAh?$AAi?$AA?$AA@ 0000000180050410     LIBCMT:winapinls.obj
 0002:00005418       ??_C@_15IDNNENKK@?$AAm?$AAs?$AA?$AA@ 0000000180050418     LIBCMT:winapinls.obj
 0002:00005420       ??_C@_15MACJNBMH@?$AAk?$AAk?$AA?$AA@ 0000000180050420     LIBCMT:winapinls.obj
 0002:00005428       ??_C@_15DKDJEOND@?$AAk?$AAy?$AA?$AA@ 0000000180050428     LIBCMT:winapinls.obj
 0002:00005430       ??_C@_15DFGDLJBG@?$AAs?$AAw?$AA?$AA@ 0000000180050430     LIBCMT:winapinls.obj
 0002:00005438       ??_C@_15BBFAICNG@?$AAu?$AAz?$AA?$AA@ 0000000180050438     LIBCMT:winapinls.obj
 0002:00005440       ??_C@_15DKNDCGEA@?$AAt?$AAt?$AA?$AA@ 0000000180050440     LIBCMT:winapinls.obj
 0002:00005448       ??_C@_15MGIFMDPL@?$AAp?$AAa?$AA?$AA@ 0000000180050448     LIBCMT:winapinls.obj
 0002:00005450       ??_C@_15HCNDBBA@?$AAg?$AAu?$AA?$AA@ 0000000180050450     LIBCMT:winapinls.obj
 0002:00005458       ??_C@_15FNBEIBON@?$AAt?$AAa?$AA?$AA@ 0000000180050458     LIBCMT:winapinls.obj
 0002:00005460       ??_C@_15NCHGBGLK@?$AAt?$AAe?$AA?$AA@ 0000000180050460     LIBCMT:winapinls.obj
 0002:00005468       ??_C@_15PHPHCBPF@?$AAk?$AAn?$AA?$AA@ 0000000180050468     LIBCMT:winapinls.obj
 0002:00005470       ??_C@_15DLGBCKMP@?$AAm?$AAr?$AA?$AA@ 0000000180050470     LIBCMT:winapinls.obj
 0002:00005478       ??_C@_15EABBLBFF@?$AAs?$AAa?$AA?$AA@ 0000000180050478     LIBCMT:winapinls.obj
 0002:00005480       ??_C@_15CBKOMCOI@?$AAm?$AAn?$AA?$AA@ 0000000180050480     LIBCMT:winapinls.obj
 0002:00005488       ??_C@_15CKDMCJAF@?$AAg?$AAl?$AA?$AA@ 0000000180050488     LIBCMT:winapinls.obj
 0002:00005490       ??_C@_17CNJFBPG@?$AAk?$AAo?$AAk?$AA?$AA@ 0000000180050490     LIBCMT:winapinls.obj
 0002:00005498       ??_C@_17FFBJICPL@?$AAs?$AAy?$AAr?$AA?$AA@ 0000000180050498     LIBCMT:winapinls.obj
 0002:000054a0       ??_C@_17KPNDCPAF@?$AAd?$AAi?$AAv?$AA?$AA@ 00000001800504a0     LIBCMT:winapinls.obj
 0002:000054a8       ??_C@_11LOCGONAA@?$AA?$AA@ 00000001800504a8     LIBCMT:winapinls.obj
 0002:000054b0       ??_C@_1M@OKAHONE@?$AAa?$AAr?$AA?9?$AAS?$AAA?$AA?$AA@ 00000001800504b0     LIBCMT:winapinls.obj
 0002:000054c0       ??_C@_1M@FFFIGIGK@?$AAb?$AAg?$AA?9?$AAB?$AAG?$AA?$AA@ 00000001800504c0     LIBCMT:winapinls.obj
 0002:000054d0       ??_C@_1M@BJNKEDC@?$AAc?$AAa?$AA?9?$AAE?$AAS?$AA?$AA@ 00000001800504d0     LIBCMT:winapinls.obj
 0002:000054e0       ??_C@_1M@IJJHFJHA@?$AAc?$AAs?$AA?9?$AAC?$AAZ?$AA?$AA@ 00000001800504e0     LIBCMT:winapinls.obj
 0002:000054f0       ??_C@_1M@CLPEOBGI@?$AAd?$AAa?$AA?9?$AAD?$AAK?$AA?$AA@ 00000001800504f0     LIBCMT:winapinls.obj
 0002:00005500       ??_C@_1M@MCMADGCB@?$AAd?$AAe?$AA?9?$AAD?$AAE?$AA?$AA@ 0000000180050500     LIBCMT:winapinls.obj
 0002:00005510       ??_C@_1M@OOCKEMAM@?$AAe?$AAl?$AA?9?$AAG?$AAR?$AA?$AA@ 0000000180050510     LIBCMT:winapinls.obj
 0002:00005520       ??_C@_1M@DDNJFGID@?$AAf?$AAi?$AA?9?$AAF?$AAI?$AA?$AA@ 0000000180050520     LIBCMT:winapinls.obj
 0002:00005530       ??_C@_1M@GLIPPMAC@?$AAf?$AAr?$AA?9?$AAF?$AAR?$AA?$AA@ 0000000180050530     LIBCMT:winapinls.obj
 0002:00005540       ??_C@_1M@GFMCHPE@?$AAh?$AAe?$AA?9?$AAI?$AAL?$AA?$AA@ 0000000180050540     LIBCMT:winapinls.obj
 0002:00005550       ??_C@_1M@MHLPGNKM@?$AAh?$AAu?$AA?9?$AAH?$AAU?$AA?$AA@ 0000000180050550     LIBCMT:winapinls.obj
 0002:00005560       ??_C@_1M@LPDDNNPN@?$AAi?$AAs?$AA?9?$AAI?$AAS?$AA?$AA@ 0000000180050560     LIBCMT:winapinls.obj
 0002:00005570       ??_C@_1M@MADIPODN@?$AAi?$AAt?$AA?9?$AAI?$AAT?$AA?$AA@ 0000000180050570     LIBCMT:winapinls.obj
 0002:00005580       ??_C@_1M@IHBJJGG@?$AAn?$AAl?$AA?9?$AAN?$AAL?$AA?$AA@ 0000000180050580     LIBCMT:winapinls.obj
 0002:00005590       ??_C@_1M@EANAGDL@?$AAn?$AAb?$AA?9?$AAN?$AAO?$AA?$AA@ 0000000180050590     LIBCMT:winapinls.obj
 0002:000055a0       ??_C@_1M@NEIEMEGP@?$AAp?$AAl?$AA?9?$AAP?$AAL?$AA?$AA@ 00000001800505a0     LIBCMT:winapinls.obj
 0002:000055b0       ??_C@_1M@BOCFIGEP@?$AAp?$AAt?$AA?9?$AAB?$AAR?$AA?$AA@ 00000001800505b0     LIBCMT:winapinls.obj
 0002:000055c0       ??_C@_1M@IMPFOPBG@?$AAr?$AAo?$AA?9?$AAR?$AAO?$AA?$AA@ 00000001800505c0     LIBCMT:winapinls.obj
 0002:000055d0       ??_C@_1M@IDNNEJMM@?$AAr?$AAu?$AA?9?$AAR?$AAU?$AA?$AA@ 00000001800505d0     LIBCMT:winapinls.obj
 0002:000055e0       ??_C@_1M@LILEEOGM@?$AAh?$AAr?$AA?9?$AAH?$AAR?$AA?$AA@ 00000001800505e0     LIBCMT:winapinls.obj
 0002:000055f0       ??_C@_1M@FKIFEHPB@?$AAs?$AAk?$AA?9?$AAS?$AAK?$AA?$AA@ 00000001800505f0     LIBCMT:winapinls.obj
 0002:00005600       ??_C@_1M@LJMAMNPJ@?$AAs?$AAq?$AA?9?$AAA?$AAL?$AA?$AA@ 0000000180050600     LIBCMT:winapinls.obj
 0002:00005610       ??_C@_1M@GIAKDKJK@?$AAs?$AAv?$AA?9?$AAS?$AAE?$AA?$AA@ 0000000180050610     LIBCMT:winapinls.obj
 0002:00005620       ??_C@_1M@MKJKIKCL@?$AAt?$AAh?$AA?9?$AAT?$AAH?$AA?$AA@ 0000000180050620     LIBCMT:winapinls.obj
 0002:00005630       ??_C@_1M@MFLCCMPB@?$AAt?$AAr?$AA?9?$AAT?$AAR?$AA?$AA@ 0000000180050630     LIBCMT:winapinls.obj
 0002:00005640       ??_C@_1M@OIJHDKJN@?$AAu?$AAr?$AA?9?$AAP?$AAK?$AA?$AA@ 0000000180050640     LIBCMT:winapinls.obj
 0002:00005650       ??_C@_1M@LHIPCIEK@?$AAi?$AAd?$AA?9?$AAI?$AAD?$AA?$AA@ 0000000180050650     LIBCMT:winapinls.obj
 0002:00005660       ??_C@_1M@MFMOBGI@?$AAu?$AAk?$AA?9?$AAU?$AAA?$AA?$AA@ 0000000180050660     LIBCMT:winapinls.obj
 0002:00005670       ??_C@_1M@OBGLJIPL@?$AAb?$AAe?$AA?9?$AAB?$AAY?$AA?$AA@ 0000000180050670     LIBCMT:winapinls.obj
 0002:00005680       ??_C@_1M@BCFAJEAD@?$AAs?$AAl?$AA?9?$AAS?$AAI?$AA?$AA@ 0000000180050680     LIBCMT:winapinls.obj
 0002:00005690       ??_C@_1M@FKFFEDDN@?$AAe?$AAt?$AA?9?$AAE?$AAE?$AA?$AA@ 0000000180050690     LIBCMT:winapinls.obj
 0002:000056a0       ??_C@_1M@KGKKAACI@?$AAl?$AAv?$AA?9?$AAL?$AAV?$AA?$AA@ 00000001800506a0     LIBCMT:winapinls.obj
 0002:000056b0       ??_C@_1M@IFGBIJO@?$AAl?$AAt?$AA?9?$AAL?$AAT?$AA?$AA@ 00000001800506b0     LIBCMT:winapinls.obj
 0002:000056c0       ??_C@_1M@FGEAHEDM@?$AAf?$AAa?$AA?9?$AAI?$AAR?$AA?$AA@ 00000001800506c0     LIBCMT:winapinls.obj
 0002:000056d0       ??_C@_1M@KBMAIBFN@?$AAv?$AAi?$AA?9?$AAV?$AAN?$AA?$AA@ 00000001800506d0     LIBCMT:winapinls.obj
 0002:000056e0       ??_C@_1M@GPCBKDJK@?$AAh?$AAy?$AA?9?$AAA?$AAM?$AA?$AA@ 00000001800506e0     LIBCMT:winapinls.obj
 0002:000056f0       ??_C@_1BG@BECMDDJB@?$AAa?$AAz?$AA?9?$AAA?$AAZ?$AA?9?$AAL?$AAa?$AAt?$AAn?$AA?$AA@ 00000001800506f0     LIBCMT:winapinls.obj
 0002:00005708       ??_C@_1M@MAOFCAEA@?$AAe?$AAu?$AA?9?$AAE?$AAS?$AA?$AA@ 0000000180050708     LIBCMT:winapinls.obj
 0002:00005718       ??_C@_1M@IGHABKPI@?$AAm?$AAk?$AA?9?$AAM?$AAK?$AA?$AA@ 0000000180050718     LIBCMT:winapinls.obj
 0002:00005728       ??_C@_1M@IAIGNEJG@?$AAt?$AAn?$AA?9?$AAZ?$AAA?$AA?$AA@ 0000000180050728     LIBCMT:winapinls.obj
 0002:00005738       ??_C@_1M@IIJCOJFA@?$AAx?$AAh?$AA?9?$AAZ?$AAA?$AA?$AA@ 0000000180050738     LIBCMT:winapinls.obj
 0002:00005748       ??_C@_1M@LGPJHNJH@?$AAz?$AAu?$AA?9?$AAZ?$AAA?$AA?$AA@ 0000000180050748     LIBCMT:winapinls.obj
 0002:00005758       ??_C@_1M@HOKAOIO@?$AAa?$AAf?$AA?9?$AAZ?$AAA?$AA?$AA@ 0000000180050758     LIBCMT:winapinls.obj
 0002:00005768       ??_C@_1M@DPCLHLIE@?$AAk?$AAa?$AA?9?$AAG?$AAE?$AA?$AA@ 0000000180050768     LIBCMT:winapinls.obj
 0002:00005778       ??_C@_1M@BLKMHJBI@?$AAf?$AAo?$AA?9?$AAF?$AAO?$AA?$AA@ 0000000180050778     LIBCMT:winapinls.obj
 0002:00005788       ??_C@_1M@LGGJAPPB@?$AAh?$AAi?$AA?9?$AAI?$AAN?$AA?$AA@ 0000000180050788     LIBCMT:winapinls.obj
 0002:00005798       ??_C@_1M@FIKPIHFE@?$AAm?$AAt?$AA?9?$AAM?$AAT?$AA?$AA@ 0000000180050798     LIBCMT:winapinls.obj
 0002:000057a8       ??_C@_1M@HEGGPBFA@?$AAs?$AAe?$AA?9?$AAN?$AAO?$AA?$AA@ 00000001800507a8     LIBCMT:winapinls.obj
 0002:000057b8       ??_C@_1M@EIBJEEPA@?$AAm?$AAs?$AA?9?$AAM?$AAY?$AA?$AA@ 00000001800507b8     LIBCMT:winapinls.obj
 0002:000057c8       ??_C@_1M@FHLBGMPP@?$AAk?$AAk?$AA?9?$AAK?$AAZ?$AA?$AA@ 00000001800507c8     LIBCMT:winapinls.obj
 0002:000057d8       ??_C@_1M@NGJJLCGI@?$AAk?$AAy?$AA?9?$AAK?$AAG?$AA?$AA@ 00000001800507d8     LIBCMT:winapinls.obj
 0002:000057e8       ??_C@_1M@GIENNBFC@?$AAs?$AAw?$AA?9?$AAK?$AAE?$AA?$AA@ 00000001800507e8     LIBCMT:winapinls.obj
 0002:000057f8       ??_C@_1BG@NDGMJIMJ@?$AAu?$AAz?$AA?9?$AAU?$AAZ?$AA?9?$AAL?$AAa?$AAt?$AAn?$AA?$AA@ 00000001800507f8     LIBCMT:winapinls.obj
 0002:00005810       ??_C@_1M@IDCCIHBC@?$AAt?$AAt?$AA?9?$AAR?$AAU?$AA?$AA@ 0000000180050810     LIBCMT:winapinls.obj
 0002:00005820       ??_C@_1M@LOICPMOJ@?$AAb?$AAn?$AA?9?$AAI?$AAN?$AA?$AA@ 0000000180050820     LIBCMT:winapinls.obj
 0002:00005830       ??_C@_1M@KPKKNEAH@?$AAp?$AAa?$AA?9?$AAI?$AAN?$AA?$AA@ 0000000180050830     LIBCMT:winapinls.obj
 0002:00005840       ??_C@_1M@PJGPPBOG@?$AAg?$AAu?$AA?9?$AAI?$AAN?$AA?$AA@ 0000000180050840     LIBCMT:winapinls.obj
 0002:00005850       ??_C@_1M@KMKMOPHI@?$AAt?$AAa?$AA?9?$AAI?$AAN?$AA?$AA@ 0000000180050850     LIBCMT:winapinls.obj
 0002:00005860       ??_C@_1M@KFEHEPAC@?$AAt?$AAe?$AA?9?$AAI?$AAN?$AA?$AA@ 0000000180050860     LIBCMT:winapinls.obj
 0002:00005870       ??_C@_1M@CDCLMGHI@?$AAk?$AAn?$AA?9?$AAI?$AAN?$AA?$AA@ 0000000180050870     LIBCMT:winapinls.obj
 0002:00005880       ??_C@_1M@MIODLDKF@?$AAm?$AAl?$AA?9?$AAI?$AAN?$AA?$AA@ 0000000180050880     LIBCMT:winapinls.obj
 0002:00005890       ??_C@_1M@PBIEACPO@?$AAm?$AAr?$AA?9?$AAI?$AAN?$AA?$AA@ 0000000180050890     LIBCMT:winapinls.obj
 0002:000058a0       ??_C@_1M@NIDEAGPH@?$AAs?$AAa?$AA?9?$AAI?$AAN?$AA?$AA@ 00000001800508a0     LIBCMT:winapinls.obj
 0002:000058b0       ??_C@_1M@FHIHCBIO@?$AAm?$AAn?$AA?9?$AAM?$AAN?$AA?$AA@ 00000001800508b0     LIBCMT:winapinls.obj
 0002:000058c0       ??_C@_1M@JAIJPENP@?$AAc?$AAy?$AA?9?$AAG?$AAB?$AA?$AA@ 00000001800508c0     LIBCMT:winapinls.obj
 0002:000058d0       ??_C@_1M@PHGFBEPN@?$AAg?$AAl?$AA?9?$AAE?$AAS?$AA?$AA@ 00000001800508d0     LIBCMT:winapinls.obj
 0002:000058e0       ??_C@_1O@KPIPDNCP@?$AAk?$AAo?$AAk?$AA?9?$AAI?$AAN?$AA?$AA@ 00000001800508e0     LIBCMT:winapinls.obj
 0002:000058f0       ??_C@_1O@KNHJLDJA@?$AAs?$AAy?$AAr?$AA?9?$AAS?$AAY?$AA?$AA@ 00000001800508f0     LIBCMT:winapinls.obj
 0002:00005900       ??_C@_1O@MKEKBLAH@?$AAd?$AAi?$AAv?$AA?9?$AAM?$AAV?$AA?$AA@ 0000000180050900     LIBCMT:winapinls.obj
 0002:00005910       ??_C@_1O@OHDCKDDF@?$AAq?$AAu?$AAz?$AA?9?$AAB?$AAO?$AA?$AA@ 0000000180050910     LIBCMT:winapinls.obj
 0002:00005920       ??_C@_1M@LEPJNLFD@?$AAn?$AAs?$AA?9?$AAZ?$AAA?$AA?$AA@ 0000000180050920     LIBCMT:winapinls.obj
 0002:00005930       ??_C@_1M@OMLEIIJB@?$AAm?$AAi?$AA?9?$AAN?$AAZ?$AA?$AA@ 0000000180050930     LIBCMT:winapinls.obj
 0002:00005940       ??_C@_1M@PMPEAILG@?$AAa?$AAr?$AA?9?$AAI?$AAQ?$AA?$AA@ 0000000180050940     LIBCMT:winapinls.obj
 0002:00005950       ??_C@_1M@CNKPNOEE@?$AAd?$AAe?$AA?9?$AAC?$AAH?$AA?$AA@ 0000000180050950     LIBCMT:winapinls.obj
 0002:00005960       ??_C@_1M@LKMGMLKO@?$AAe?$AAn?$AA?9?$AAG?$AAB?$AA?$AA@ 0000000180050960     LIBCMT:winapinls.obj
 0002:00005970       ??_C@_1M@PGKJFFGL@?$AAe?$AAs?$AA?9?$AAM?$AAX?$AA?$AA@ 0000000180050970     LIBCMT:winapinls.obj
 0002:00005980       ??_C@_1M@DNNANBDC@?$AAf?$AAr?$AA?9?$AAB?$AAE?$AA?$AA@ 0000000180050980     LIBCMT:winapinls.obj
 0002:00005990       ??_C@_1M@HLGMDFHM@?$AAi?$AAt?$AA?9?$AAC?$AAH?$AA?$AA@ 0000000180050990     LIBCMT:winapinls.obj
 0002:000059a0       ??_C@_1M@CLLBGJH@?$AAn?$AAl?$AA?9?$AAB?$AAE?$AA?$AA@ 00000001800509a0     LIBCMT:winapinls.obj
 0002:000059b0       ??_C@_1M@BODBOGLF@?$AAn?$AAn?$AA?9?$AAN?$AAO?$AA?$AA@ 00000001800509b0     LIBCMT:winapinls.obj
 0002:000059c0       ??_C@_1M@HFFAHKAD@?$AAp?$AAt?$AA?9?$AAP?$AAT?$AA?$AA@ 00000001800509c0     LIBCMT:winapinls.obj
 0002:000059d0       ??_C@_1BG@LNOAKHIE@?$AAs?$AAr?$AA?9?$AAS?$AAP?$AA?9?$AAL?$AAa?$AAt?$AAn?$AA?$AA@ 00000001800509d0     LIBCMT:winapinls.obj
 0002:000059e8       ??_C@_1M@HBMHBGAK@?$AAs?$AAv?$AA?9?$AAF?$AAI?$AA?$AA@ 00000001800509e8     LIBCMT:winapinls.obj
 0002:000059f8       ??_C@_1BG@DGCJGJBE@?$AAa?$AAz?$AA?9?$AAA?$AAZ?$AA?9?$AAC?$AAy?$AAr?$AAl?$AA?$AA@ 00000001800509f8     LIBCMT:winapinls.obj
 0002:00005a10       ??_C@_1M@KEJDAAHB@?$AAs?$AAe?$AA?9?$AAS?$AAE?$AA?$AA@ 0000000180050a10     LIBCMT:winapinls.obj
 0002:00005a20       ??_C@_1M@HEIBJJAD@?$AAm?$AAs?$AA?9?$AAB?$AAN?$AA?$AA@ 0000000180050a20     LIBCMT:winapinls.obj
 0002:00005a30       ??_C@_1BG@PBGJMCEM@?$AAu?$AAz?$AA?9?$AAU?$AAZ?$AA?9?$AAC?$AAy?$AAr?$AAl?$AA?$AA@ 0000000180050a30     LIBCMT:winapinls.obj
 0002:00005a48       ??_C@_1O@LAOBCMDF@?$AAq?$AAu?$AAz?$AA?9?$AAE?$AAC?$AA?$AA@ 0000000180050a48     LIBCMT:winapinls.obj
 0002:00005a58       ??_C@_1M@POEEMAIO@?$AAa?$AAr?$AA?9?$AAE?$AAG?$AA?$AA@ 0000000180050a58     LIBCMT:winapinls.obj
 0002:00005a68       ??_C@_1M@EFAKDEDL@?$AAz?$AAh?$AA?9?$AAH?$AAK?$AA?$AA@ 0000000180050a68     LIBCMT:winapinls.obj
 0002:00005a78       ??_C@_1M@HKKIJHGI@?$AAd?$AAe?$AA?9?$AAA?$AAT?$AA?$AA@ 0000000180050a78     LIBCMT:winapinls.obj
 0002:00005a88       ??_C@_1M@KBFBEHJF@?$AAe?$AAn?$AA?9?$AAA?$AAU?$AA?$AA@ 0000000180050a88     LIBCMT:winapinls.obj
 0002:00005a98       ??_C@_1M@MNPLFAAH@?$AAe?$AAs?$AA?9?$AAE?$AAS?$AA?$AA@ 0000000180050a98     LIBCMT:winapinls.obj
 0002:00005aa8       ??_C@_1M@HJOOJFMA@?$AAf?$AAr?$AA?9?$AAC?$AAA?$AA?$AA@ 0000000180050aa8     LIBCMT:winapinls.obj
 0002:00005ab8       ??_C@_1BG@JPOFPNAB@?$AAs?$AAr?$AA?9?$AAS?$AAP?$AA?9?$AAC?$AAy?$AAr?$AAl?$AA?$AA@ 0000000180050ab8     LIBCMT:winapinls.obj
 0002:00005ad0       ??_C@_1M@LNFOCMOB@?$AAs?$AAe?$AA?9?$AAF?$AAI?$AA?$AA@ 0000000180050ad0     LIBCMT:winapinls.obj
 0002:00005ae0       ??_C@_1O@MGJBOAMB@?$AAq?$AAu?$AAz?$AA?9?$AAP?$AAE?$AA?$AA@ 0000000180050ae0     LIBCMT:winapinls.obj
 0002:00005af0       ??_C@_1M@GJINLBOK@?$AAa?$AAr?$AA?9?$AAL?$AAY?$AA?$AA@ 0000000180050af0     LIBCMT:winapinls.obj
 0002:00005b00       ??_C@_1M@GGMNHJNL@?$AAz?$AAh?$AA?9?$AAS?$AAG?$AA?$AA@ 0000000180050b00     LIBCMT:winapinls.obj
 0002:00005b10       ??_C@_1M@HOIKODND@?$AAd?$AAe?$AA?9?$AAL?$AAU?$AA?$AA@ 0000000180050b10     LIBCMT:winapinls.obj
 0002:00005b20       ??_C@_1M@DDOCCGFG@?$AAe?$AAn?$AA?9?$AAC?$AAA?$AA?$AA@ 0000000180050b20     LIBCMT:winapinls.obj
 0002:00005b30       ??_C@_1M@BNOEMJLF@?$AAe?$AAs?$AA?9?$AAG?$AAT?$AA?$AA@ 0000000180050b30     LIBCMT:winapinls.obj
 0002:00005b40       ??_C@_1M@EOGNKEK@?$AAf?$AAr?$AA?9?$AAC?$AAH?$AA?$AA@ 0000000180050b40     LIBCMT:winapinls.obj
 0002:00005b50       ??_C@_1M@FLIDJFHL@?$AAh?$AAr?$AA?9?$AAB?$AAA?$AA?$AA@ 0000000180050b50     LIBCMT:winapinls.obj
 0002:00005b60       ??_C@_1O@FMCELNAJ@?$AAs?$AAm?$AAj?$AA?9?$AAN?$AAO?$AA?$AA@ 0000000180050b60     LIBCMT:winapinls.obj
 0002:00005b70       ??_C@_1M@JHGLJMGJ@?$AAa?$AAr?$AA?9?$AAD?$AAZ?$AA?$AA@ 0000000180050b70     LIBCMT:winapinls.obj
 0002:00005b80       ??_C@_1M@JKKFDCNP@?$AAz?$AAh?$AA?9?$AAM?$AAO?$AA?$AA@ 0000000180050b80     LIBCMT:winapinls.obj
 0002:00005b90       ??_C@_1M@GEEFALPE@?$AAd?$AAe?$AA?9?$AAL?$AAI?$AA?$AA@ 0000000180050b90     LIBCMT:winapinls.obj
 0002:00005ba0       ??_C@_1M@IGEOFBG@?$AAe?$AAn?$AA?9?$AAN?$AAZ?$AA?$AA@ 0000000180050ba0     LIBCMT:winapinls.obj
 0002:00005bb0       ??_C@_1M@KDBONEHP@?$AAe?$AAs?$AA?9?$AAC?$AAR?$AA?$AA@ 0000000180050bb0     LIBCMT:winapinls.obj
 0002:00005bc0       ??_C@_1M@FHMDOHNN@?$AAf?$AAr?$AA?9?$AAL?$AAU?$AA?$AA@ 0000000180050bc0     LIBCMT:winapinls.obj
 0002:00005bd0       ??_C@_1BG@NFKKMAFG@?$AAb?$AAs?$AA?9?$AAB?$AAA?$AA?9?$AAL?$AAa?$AAt?$AAn?$AA?$AA@ 0000000180050bd0     LIBCMT:winapinls.obj
 0002:00005be8       ??_C@_1O@IMNBEMCI@?$AAs?$AAm?$AAj?$AA?9?$AAS?$AAE?$AA?$AA@ 0000000180050be8     LIBCMT:winapinls.obj
 0002:00005bf8       ??_C@_1M@DHHMBNDP@?$AAa?$AAr?$AA?9?$AAM?$AAA?$AA?$AA@ 0000000180050bf8     LIBCMT:winapinls.obj
 0002:00005c08       ??_C@_1M@BNBLJCGH@?$AAe?$AAn?$AA?9?$AAI?$AAE?$AA?$AA@ 0000000180050c08     LIBCMT:winapinls.obj
 0002:00005c18       ??_C@_1M@GEPAFMDL@?$AAe?$AAs?$AA?9?$AAP?$AAA?$AA?$AA@ 0000000180050c18     LIBCMT:winapinls.obj
 0002:00005c28       ??_C@_1M@OJONDMDL@?$AAf?$AAr?$AA?9?$AAM?$AAC?$AA?$AA@ 0000000180050c28     LIBCMT:winapinls.obj
 0002:00005c38       ??_C@_1BG@OBCNFJB@?$AAs?$AAr?$AA?9?$AAB?$AAA?$AA?9?$AAL?$AAa?$AAt?$AAn?$AA?$AA@ 0000000180050c38     LIBCMT:winapinls.obj
 0002:00005c50       ??_C@_1O@KEMEEGPO@?$AAs?$AAm?$AAa?$AA?9?$AAN?$AAO?$AA?$AA@ 0000000180050c50     LIBCMT:winapinls.obj
 0002:00005c60       ??_C@_1M@ELMGFODK@?$AAa?$AAr?$AA?9?$AAT?$AAN?$AA?$AA@ 0000000180050c60     LIBCMT:winapinls.obj
 0002:00005c70       ??_C@_1M@BHDLHFAF@?$AAe?$AAn?$AA?9?$AAZ?$AAA?$AA?$AA@ 0000000180050c70     LIBCMT:winapinls.obj
 0002:00005c80       ??_C@_1M@BMGIGLIF@?$AAe?$AAs?$AA?9?$AAD?$AAO?$AA?$AA@ 0000000180050c80     LIBCMT:winapinls.obj
 0002:00005c90       ??_C@_1BG@CMBHIPBE@?$AAs?$AAr?$AA?9?$AAB?$AAA?$AA?9?$AAC?$AAy?$AAr?$AAl?$AA?$AA@ 0000000180050c90     LIBCMT:winapinls.obj
 0002:00005ca8       ??_C@_1O@HEDBLHNP@?$AAs?$AAm?$AAa?$AA?9?$AAS?$AAE?$AA?$AA@ 0000000180050ca8     LIBCMT:winapinls.obj
 0002:00005cb8       ??_C@_1M@DAGCADIM@?$AAa?$AAr?$AA?9?$AAO?$AAM?$AA?$AA@ 0000000180050cb8     LIBCMT:winapinls.obj
 0002:00005cc8       ??_C@_1M@FODLMICG@?$AAe?$AAn?$AA?9?$AAJ?$AAM?$AA?$AA@ 0000000180050cc8     LIBCMT:winapinls.obj
 0002:00005cd8       ??_C@_1M@DNMLCIHB@?$AAe?$AAs?$AA?9?$AAV?$AAE?$AA?$AA@ 0000000180050cd8     LIBCMT:winapinls.obj
 0002:00005ce8       ??_C@_1O@EOKHMKJK@?$AAs?$AAm?$AAs?$AA?9?$AAF?$AAI?$AA?$AA@ 0000000180050ce8     LIBCMT:winapinls.obj
 0002:00005cf8       ??_C@_1M@CAFJMKOF@?$AAa?$AAr?$AA?9?$AAY?$AAE?$AA?$AA@ 0000000180050cf8     LIBCMT:winapinls.obj
 0002:00005d08       ??_C@_1M@CBFHIJLI@?$AAe?$AAn?$AA?9?$AAC?$AAB?$AA?$AA@ 0000000180050d08     LIBCMT:winapinls.obj
 0002:00005d18       ??_C@_1M@BGNFLDN@?$AAe?$AAs?$AA?9?$AAC?$AAO?$AA?$AA@ 0000000180050d18     LIBCMT:winapinls.obj
 0002:00005d28       ??_C@_1O@JMPHMAMC@?$AAs?$AAm?$AAn?$AA?9?$AAF?$AAI?$AA?$AA@ 0000000180050d28     LIBCMT:winapinls.obj
 0002:00005d38       ??_C@_1M@JLANABKE@?$AAa?$AAr?$AA?9?$AAS?$AAY?$AA?$AA@ 0000000180050d38     LIBCMT:winapinls.obj
 0002:00005d48       ??_C@_1M@HPKGCFGN@?$AAe?$AAn?$AA?9?$AAB?$AAZ?$AA?$AA@ 0000000180050d48     LIBCMT:winapinls.obj
 0002:00005d58       ??_C@_1M@OLJCMLGM@?$AAe?$AAs?$AA?9?$AAP?$AAE?$AA?$AA@ 0000000180050d58     LIBCMT:winapinls.obj
 0002:00005d68       ??_C@_1M@MKKGFKLE@?$AAa?$AAr?$AA?9?$AAJ?$AAO?$AA?$AA@ 0000000180050d68     LIBCMT:winapinls.obj
 0002:00005d78       ??_C@_1M@EKPGLDNI@?$AAe?$AAn?$AA?9?$AAT?$AAT?$AA?$AA@ 0000000180050d78     LIBCMT:winapinls.obj
 0002:00005d88       ??_C@_1M@OONGHFHE@?$AAe?$AAs?$AA?9?$AAA?$AAR?$AA?$AA@ 0000000180050d88     LIBCMT:winapinls.obj
 0002:00005d98       ??_C@_1M@OOJFGBHE@?$AAa?$AAr?$AA?9?$AAL?$AAB?$AA?$AA@ 0000000180050d98     LIBCMT:winapinls.obj
 0002:00005da8       ??_C@_1M@GCEJHNEG@?$AAe?$AAn?$AA?9?$AAZ?$AAW?$AA?$AA@ 0000000180050da8     LIBCMT:winapinls.obj
 0002:00005db8       ??_C@_1M@JNOCAHJI@?$AAe?$AAs?$AA?9?$AAE?$AAC?$AA?$AA@ 0000000180050db8     LIBCMT:winapinls.obj
 0002:00005dc8       ??_C@_1M@JEFHPGGB@?$AAa?$AAr?$AA?9?$AAK?$AAW?$AA?$AA@ 0000000180050dc8     LIBCMT:winapinls.obj
 0002:00005dd8       ??_C@_1M@MLKIBJOJ@?$AAe?$AAn?$AA?9?$AAP?$AAH?$AA?$AA@ 0000000180050dd8     LIBCMT:winapinls.obj
 0002:00005de8       ??_C@_1M@BDNIPEND@?$AAe?$AAs?$AA?9?$AAC?$AAL?$AA?$AA@ 0000000180050de8     LIBCMT:winapinls.obj
 0002:00005df8       ??_C@_1M@MPNMEKBD@?$AAa?$AAr?$AA?9?$AAA?$AAE?$AA?$AA@ 0000000180050df8     LIBCMT:winapinls.obj
 0002:00005e08       ??_C@_1M@KBJALCPI@?$AAe?$AAs?$AA?9?$AAU?$AAY?$AA?$AA@ 0000000180050e08     LIBCMT:winapinls.obj
 0002:00005e18       ??_C@_1M@LLCCOAGA@?$AAa?$AAr?$AA?9?$AAB?$AAH?$AA?$AA@ 0000000180050e18     LIBCMT:winapinls.obj
 0002:00005e28       ??_C@_1M@PBFNCDEL@?$AAe?$AAs?$AA?9?$AAP?$AAY?$AA?$AA@ 0000000180050e28     LIBCMT:winapinls.obj
 0002:00005e38       ??_C@_1M@EDGINPNP@?$AAa?$AAr?$AA?9?$AAQ?$AAA?$AA?$AA@ 0000000180050e38     LIBCMT:winapinls.obj
 0002:00005e48       ??_C@_1M@MKDBIIJI@?$AAe?$AAs?$AA?9?$AAB?$AAO?$AA?$AA@ 0000000180050e48     LIBCMT:winapinls.obj
 0002:00005e58       ??_C@_1M@CPKKEBLD@?$AAe?$AAs?$AA?9?$AAS?$AAV?$AA?$AA@ 0000000180050e58     LIBCMT:winapinls.obj
 0002:00005e68       ??_C@_1M@NDBGMMJL@?$AAe?$AAs?$AA?9?$AAH?$AAN?$AA?$AA@ 0000000180050e68     LIBCMT:winapinls.obj
 0002:00005e78       ??_C@_1M@JIJIBHDP@?$AAe?$AAs?$AA?9?$AAN?$AAI?$AA?$AA@ 0000000180050e78     LIBCMT:winapinls.obj
 0002:00005e88       ??_C@_1M@CGFMKEEK@?$AAe?$AAs?$AA?9?$AAP?$AAR?$AA?$AA@ 0000000180050e88     LIBCMT:winapinls.obj
 0002:00005e98       ??_C@_1O@ICJHKIIK@?$AAz?$AAh?$AA?9?$AAC?$AAH?$AAT?$AA?$AA@ 0000000180050e98     LIBCMT:winapinls.obj
 0002:00005ea8       ??_C@_15CLNEJCE@?$AAs?$AAr?$AA?$AA@ 0000000180050ea8     LIBCMT:winapinls.obj
 0002:00005eb0       ??_C@_1M@KAHEKEIG@?$AAa?$AAf?$AA?9?$AAz?$AAa?$AA?$AA@ 0000000180050eb0     LIBCMT:winapinls.obj
 0002:00005ec0       ??_C@_1M@GIECOABL@?$AAa?$AAr?$AA?9?$AAa?$AAe?$AA?$AA@ 0000000180050ec0     LIBCMT:winapinls.obj
 0002:00005ed0       ??_C@_1M@BMLMEKGI@?$AAa?$AAr?$AA?9?$AAb?$AAh?$AA?$AA@ 0000000180050ed0     LIBCMT:winapinls.obj
 0002:00005ee0       ??_C@_1M@DAPFDGGB@?$AAa?$AAr?$AA?9?$AAd?$AAz?$AA?$AA@ 0000000180050ee0     LIBCMT:winapinls.obj
 0002:00005ef0       ??_C@_1M@FJNKGKIG@?$AAa?$AAr?$AA?9?$AAe?$AAg?$AA?$AA@ 0000000180050ef0     LIBCMT:winapinls.obj
 0002:00005f00       ??_C@_1M@FLGKKCLO@?$AAa?$AAr?$AA?9?$AAi?$AAq?$AA?$AA@ 0000000180050f00     LIBCMT:winapinls.obj
 0002:00005f10       ??_C@_1M@GNDIPALM@?$AAa?$AAr?$AA?9?$AAj?$AAo?$AA?$AA@ 0000000180050f10     LIBCMT:winapinls.obj
 0002:00005f20       ??_C@_1M@DDMJFMGJ@?$AAa?$AAr?$AA?9?$AAk?$AAw?$AA?$AA@ 0000000180050f20     LIBCMT:winapinls.obj
 0002:00005f30       ??_C@_1M@EJALMLHM@?$AAa?$AAr?$AA?9?$AAl?$AAb?$AA?$AA@ 0000000180050f30     LIBCMT:winapinls.obj
 0002:00005f40       ??_C@_1M@MOBDBLOC@?$AAa?$AAr?$AA?9?$AAl?$AAy?$AA?$AA@ 0000000180050f40     LIBCMT:winapinls.obj
 0002:00005f50       ??_C@_1M@JAOCLHDH@?$AAa?$AAr?$AA?9?$AAm?$AAa?$AA?$AA@ 0000000180050f50     LIBCMT:winapinls.obj
 0002:00005f60       ??_C@_1M@JHPMKJIE@?$AAa?$AAr?$AA?9?$AAo?$AAm?$AA?$AA@ 0000000180050f60     LIBCMT:winapinls.obj
 0002:00005f70       ??_C@_1M@OEPGHFNH@?$AAa?$AAr?$AA?9?$AAq?$AAa?$AA?$AA@ 0000000180050f70     LIBCMT:winapinls.obj
 0002:00005f80       ??_C@_1M@KJDONENM@?$AAa?$AAr?$AA?9?$AAs?$AAa?$AA?$AA@ 0000000180050f80     LIBCMT:winapinls.obj
 0002:00005f90       ??_C@_1M@DMJDKLKM@?$AAa?$AAr?$AA?9?$AAs?$AAy?$AA?$AA@ 0000000180050f90     LIBCMT:winapinls.obj
 0002:00005fa0       ??_C@_1M@OMFIPEDC@?$AAa?$AAr?$AA?9?$AAt?$AAn?$AA?$AA@ 0000000180050fa0     LIBCMT:winapinls.obj
 0002:00005fb0       ??_C@_1M@IHMHGAON@?$AAa?$AAr?$AA?9?$AAy?$AAe?$AA?$AA@ 0000000180050fb0     LIBCMT:winapinls.obj
 0002:00005fc0       ??_C@_1BG@KDCPGJGB@?$AAa?$AAz?$AA?9?$AAa?$AAz?$AA?9?$AAc?$AAy?$AAr?$AAl?$AA?$AA@ 0000000180050fc0     LIBCMT:winapinls.obj
 0002:00005fd8       ??_C@_1BG@IBCKDDOE@?$AAa?$AAz?$AA?9?$AAa?$AAz?$AA?9?$AAl?$AAa?$AAt?$AAn?$AA?$AA@ 0000000180050fd8     LIBCMT:winapinls.obj
 0002:00005ff0       ??_C@_1M@EGPFDCPD@?$AAb?$AAe?$AA?9?$AAb?$AAy?$AA?$AA@ 0000000180050ff0     LIBCMT:winapinls.obj
 0002:00006000       ??_C@_1M@PCMGMCGC@?$AAb?$AAg?$AA?9?$AAb?$AAg?$AA?$AA@ 0000000180051000     LIBCMT:winapinls.obj
 0002:00006010       ??_C@_1M@BJBMFGOB@?$AAb?$AAn?$AA?9?$AAi?$AAn?$AA?$AA@ 0000000180051010     LIBCMT:winapinls.obj
 0002:00006020       ??_C@_1BG@EAKMMACD@?$AAb?$AAs?$AA?9?$AAb?$AAa?$AA?9?$AAl?$AAa?$AAt?$AAn?$AA?$AA@ 0000000180051020     LIBCMT:winapinls.obj
 0002:00006038       ??_C@_1M@KGADAODK@?$AAc?$AAa?$AA?9?$AAe?$AAs?$AA?$AA@ 0000000180051038     LIBCMT:winapinls.obj
 0002:00006048       ??_C@_1M@COAJPDHI@?$AAc?$AAs?$AA?9?$AAc?$AAz?$AA?$AA@ 0000000180051048     LIBCMT:winapinls.obj
 0002:00006058       ??_C@_1M@DHBHFONH@?$AAc?$AAy?$AA?9?$AAg?$AAb?$AA?$AA@ 0000000180051058     LIBCMT:winapinls.obj
 0002:00006068       ??_C@_1M@IMGKELGA@?$AAd?$AAa?$AA?9?$AAd?$AAk?$AA?$AA@ 0000000180051068     LIBCMT:winapinls.obj
 0002:00006078       ??_C@_1M@NNDGDNGA@?$AAd?$AAe?$AA?9?$AAa?$AAt?$AA?$AA@ 0000000180051078     LIBCMT:winapinls.obj
 0002:00006088       ??_C@_1M@IKDBHEEM@?$AAd?$AAe?$AA?9?$AAc?$AAh?$AA?$AA@ 0000000180051088     LIBCMT:winapinls.obj
 0002:00006098       ??_C@_1M@GFFOJMCJ@?$AAd?$AAe?$AA?9?$AAd?$AAe?$AA?$AA@ 0000000180051098     LIBCMT:winapinls.obj
 0002:000060a8       ??_C@_1M@MDNLKBPM@?$AAd?$AAe?$AA?9?$AAl?$AAi?$AA?$AA@ 00000001800510a8     LIBCMT:winapinls.obj
 0002:000060b8       ??_C@_1M@NJBEEJNL@?$AAd?$AAe?$AA?9?$AAl?$AAu?$AA?$AA@ 00000001800510b8     LIBCMT:winapinls.obj
 0002:000060c8       ??_C@_1O@GNNELBAP@?$AAd?$AAi?$AAv?$AA?9?$AAm?$AAv?$AA?$AA@ 00000001800510c8     LIBCMT:winapinls.obj
 0002:000060d8       ??_C@_1M@EJLEOGAE@?$AAe?$AAl?$AA?9?$AAg?$AAr?$AA?$AA@ 00000001800510d8     LIBCMT:winapinls.obj
 0002:000060e8       ??_C@_1M@GMPONJN@?$AAe?$AAn?$AA?9?$AAa?$AAu?$AA?$AA@ 00000001800510e8     LIBCMT:winapinls.obj
 0002:000060f8       ??_C@_1M@NIDIIPGF@?$AAe?$AAn?$AA?9?$AAb?$AAz?$AA?$AA@ 00000001800510f8     LIBCMT:winapinls.obj
 0002:00006108       ??_C@_1M@JEHMIMFO@?$AAe?$AAn?$AA?9?$AAc?$AAa?$AA?$AA@ 0000000180051108     LIBCMT:winapinls.obj
 0002:00006118       ??_C@_1M@IGMJCDLA@?$AAe?$AAn?$AA?9?$AAc?$AAb?$AA?$AA@ 0000000180051118     LIBCMT:winapinls.obj
 0002:00006128       ??_C@_1M@BNFIGBKG@?$AAe?$AAn?$AA?9?$AAg?$AAb?$AA?$AA@ 0000000180051128     LIBCMT:winapinls.obj
 0002:00006138       ??_C@_1M@LKIFDIGP@?$AAe?$AAn?$AA?9?$AAi?$AAe?$AA?$AA@ 0000000180051138     LIBCMT:winapinls.obj
 0002:00006148       ??_C@_1M@PJKFGCCO@?$AAe?$AAn?$AA?9?$AAj?$AAm?$AA?$AA@ 0000000180051148     LIBCMT:winapinls.obj
 0002:00006158       ??_C@_1M@KPPKEPBO@?$AAe?$AAn?$AA?9?$AAn?$AAz?$AA?$AA@ 0000000180051158     LIBCMT:winapinls.obj
 0002:00006168       ??_C@_1M@GMDGLDOB@?$AAe?$AAn?$AA?9?$AAp?$AAh?$AA?$AA@ 0000000180051168     LIBCMT:winapinls.obj
 0002:00006178       ??_C@_1M@ONGIBJNA@?$AAe?$AAn?$AA?9?$AAt?$AAt?$AA?$AA@ 0000000180051178     LIBCMT:winapinls.obj
 0002:00006188       ??_C@_1M@LLODPCMM@?$AAe?$AAn?$AA?9?$AAu?$AAs?$AA?$AA@ 0000000180051188     LIBCMT:winapinls.obj
 0002:00006198       ??_C@_1M@LAKFNPAN@?$AAe?$AAn?$AA?9?$AAz?$AAa?$AA?$AA@ 0000000180051198     LIBCMT:winapinls.obj
 0002:000061a8       ??_C@_1M@MFNHNHEO@?$AAe?$AAn?$AA?9?$AAz?$AAw?$AA?$AA@ 00000001800511a8     LIBCMT:winapinls.obj
 0002:000061b8       ??_C@_1M@EJEINPHM@?$AAe?$AAs?$AA?9?$AAa?$AAr?$AA?$AA@ 00000001800511b8     LIBCMT:winapinls.obj
 0002:000061c8       ??_C@_1M@GNKPCCJA@?$AAe?$AAs?$AA?9?$AAb?$AAo?$AA?$AA@ 00000001800511c8     LIBCMT:winapinls.obj
 0002:000061d8       ??_C@_1M@LEEGFONL@?$AAe?$AAs?$AA?9?$AAc?$AAl?$AA?$AA@ 00000001800511d8     LIBCMT:winapinls.obj
 0002:000061e8       ??_C@_1M@KGPDPBDF@?$AAe?$AAs?$AA?9?$AAc?$AAo?$AA?$AA@ 00000001800511e8     LIBCMT:winapinls.obj
 0002:000061f8       ??_C@_1M@EIAHOHH@?$AAe?$AAs?$AA?9?$AAc?$AAr?$AA?$AA@ 00000001800511f8     LIBCMT:winapinls.obj
 0002:00006208       ??_C@_1M@LLPGMBIN@?$AAe?$AAs?$AA?9?$AAd?$AAo?$AA?$AA@ 0000000180051208     LIBCMT:winapinls.obj
 0002:00006218       ??_C@_1M@DKHMKNJA@?$AAe?$AAs?$AA?9?$AAe?$AAc?$AA?$AA@ 0000000180051218     LIBCMT:winapinls.obj
 0002:00006228       ??_C@_1M@GKGFPKAP@?$AAe?$AAs?$AA?9?$AAe?$AAs?$AA?$AA@ 0000000180051228     LIBCMT:winapinls.obj
 0002:00006238       ??_C@_1M@LKHKGDLN@?$AAe?$AAs?$AA?9?$AAg?$AAt?$AA?$AA@ 0000000180051238     LIBCMT:winapinls.obj
 0002:00006248       ??_C@_1M@HEIIGGJD@?$AAe?$AAs?$AA?9?$AAh?$AAn?$AA?$AA@ 0000000180051248     LIBCMT:winapinls.obj
 0002:00006258       ??_C@_1M@FBDHPPGD@?$AAe?$AAs?$AA?9?$AAm?$AAx?$AA?$AA@ 0000000180051258     LIBCMT:winapinls.obj
 0002:00006268       ??_C@_1M@DPAGLNDH@?$AAe?$AAs?$AA?9?$AAn?$AAi?$AA?$AA@ 0000000180051268     LIBCMT:winapinls.obj
 0002:00006278       ??_C@_1M@MDGOPGDD@?$AAe?$AAs?$AA?9?$AAp?$AAa?$AA?$AA@ 0000000180051278     LIBCMT:winapinls.obj
 0002:00006288       ??_C@_1M@EMAMGBGE@?$AAe?$AAs?$AA?9?$AAp?$AAe?$AA?$AA@ 0000000180051288     LIBCMT:winapinls.obj
 0002:00006298       ??_C@_1M@IBMCAOEC@?$AAe?$AAs?$AA?9?$AAp?$AAr?$AA?$AA@ 0000000180051298     LIBCMT:winapinls.obj
 0002:000062a8       ??_C@_1M@FGMDIJED@?$AAe?$AAs?$AA?9?$AAp?$AAy?$AA?$AA@ 00000001800512a8     LIBCMT:winapinls.obj
 0002:000062b8       ??_C@_1M@IIDEOLLL@?$AAe?$AAs?$AA?9?$AAs?$AAv?$AA?$AA@ 00000001800512b8     LIBCMT:winapinls.obj
 0002:000062c8       ??_C@_1M@GAOBIPA@?$AAe?$AAs?$AA?9?$AAu?$AAy?$AA?$AA@ 00000001800512c8     LIBCMT:winapinls.obj
 0002:000062d8       ??_C@_1M@JKFFICHJ@?$AAe?$AAs?$AA?9?$AAv?$AAe?$AA?$AA@ 00000001800512d8     LIBCMT:winapinls.obj
 0002:000062e8       ??_C@_1M@PNMLOJDF@?$AAe?$AAt?$AA?9?$AAe?$AAe?$AA?$AA@ 00000001800512e8     LIBCMT:winapinls.obj
 0002:000062f8       ??_C@_1M@GHHLIKEI@?$AAe?$AAu?$AA?9?$AAe?$AAs?$AA?$AA@ 00000001800512f8     LIBCMT:winapinls.obj
 0002:00006308       ??_C@_1M@PBNONODE@?$AAf?$AAa?$AA?9?$AAi?$AAr?$AA?$AA@ 0000000180051308     LIBCMT:winapinls.obj
 0002:00006318       ??_C@_1M@JEEHPMIL@?$AAf?$AAi?$AA?9?$AAf?$AAi?$AA?$AA@ 0000000180051318     LIBCMT:winapinls.obj
 0002:00006328       ??_C@_1M@LMDCNDBA@?$AAf?$AAo?$AA?9?$AAf?$AAo?$AA?$AA@ 0000000180051328     LIBCMT:winapinls.obj
 0002:00006338       ??_C@_1M@JKEOHLDK@?$AAf?$AAr?$AA?9?$AAb?$AAe?$AA?$AA@ 0000000180051338     LIBCMT:winapinls.obj
 0002:00006348       ??_C@_1M@NOHADPMI@?$AAf?$AAr?$AA?9?$AAc?$AAa?$AA?$AA@ 0000000180051348     LIBCMT:winapinls.obj
 0002:00006358       ??_C@_1M@KDHIHAEC@?$AAf?$AAr?$AA?9?$AAc?$AAh?$AA?$AA@ 0000000180051358     LIBCMT:winapinls.obj
 0002:00006368       ??_C@_1M@MMBBFGAK@?$AAf?$AAr?$AA?9?$AAf?$AAr?$AA?$AA@ 0000000180051368     LIBCMT:winapinls.obj
 0002:00006378       ??_C@_1M@PAFNENNF@?$AAf?$AAr?$AA?9?$AAl?$AAu?$AA?$AA@ 0000000180051378     LIBCMT:winapinls.obj
 0002:00006388       ??_C@_1M@EOHDJGDD@?$AAf?$AAr?$AA?9?$AAm?$AAc?$AA?$AA@ 0000000180051388     LIBCMT:winapinls.obj
 0002:00006398       ??_C@_1M@FAPLLOPF@?$AAg?$AAl?$AA?9?$AAe?$AAs?$AA?$AA@ 0000000180051398     LIBCMT:winapinls.obj
 0002:000063a8       ??_C@_1M@FOPBFLOO@?$AAg?$AAu?$AA?9?$AAi?$AAn?$AA?$AA@ 00000001800513a8     LIBCMT:winapinls.obj
 0002:000063b8       ??_C@_1M@KBMCINPM@?$AAh?$AAe?$AA?9?$AAi?$AAl?$AA?$AA@ 00000001800513b8     LIBCMT:winapinls.obj
 0002:000063c8       ??_C@_1M@BBPHKFPJ@?$AAh?$AAi?$AA?9?$AAi?$AAn?$AA?$AA@ 00000001800513c8     LIBCMT:winapinls.obj
 0002:000063d8       ??_C@_1M@PMBNDPHD@?$AAh?$AAr?$AA?9?$AAb?$AAa?$AA?$AA@ 00000001800513d8     LIBCMT:winapinls.obj
 0002:000063e8       ??_C@_1M@BPCKOEGE@?$AAh?$AAr?$AA?9?$AAh?$AAr?$AA?$AA@ 00000001800513e8     LIBCMT:winapinls.obj
 0002:000063f8       ??_C@_1M@GACBMHKE@?$AAh?$AAu?$AA?9?$AAh?$AAu?$AA?$AA@ 00000001800513f8     LIBCMT:winapinls.obj
 0002:00006408       ??_C@_1M@MILPAJJC@?$AAh?$AAy?$AA?9?$AAa?$AAm?$AA?$AA@ 0000000180051408     LIBCMT:winapinls.obj
 0002:00006418       ??_C@_1M@BABBICEC@?$AAi?$AAd?$AA?9?$AAi?$AAd?$AA?$AA@ 0000000180051418     LIBCMT:winapinls.obj
 0002:00006428       ??_C@_1M@BIKNHHPF@?$AAi?$AAs?$AA?9?$AAi?$AAs?$AA?$AA@ 0000000180051428     LIBCMT:winapinls.obj
 0002:00006438       ??_C@_1M@NMPCJPHE@?$AAi?$AAt?$AA?9?$AAc?$AAh?$AA?$AA@ 0000000180051438     LIBCMT:winapinls.obj
 0002:00006448       ??_C@_1M@GHKGFEDF@?$AAi?$AAt?$AA?9?$AAi?$AAt?$AA?$AA@ 0000000180051448     LIBCMT:winapinls.obj
 0002:00006458       ??_C@_1M@NIEJCJJA@?$AAj?$AAa?$AA?9?$AAj?$AAp?$AA?$AA@ 0000000180051458     LIBCMT:winapinls.obj
 0002:00006468       ??_C@_1M@JILFNBIM@?$AAk?$AAa?$AA?9?$AAg?$AAe?$AA?$AA@ 0000000180051468     LIBCMT:winapinls.obj
 0002:00006478       ??_C@_1M@PACPMGPH@?$AAk?$AAk?$AA?9?$AAk?$AAz?$AA?$AA@ 0000000180051478     LIBCMT:winapinls.obj
 0002:00006488       ??_C@_1M@IELFGMHA@?$AAk?$AAn?$AA?9?$AAi?$AAn?$AA?$AA@ 0000000180051488     LIBCMT:winapinls.obj
 0002:00006498       ??_C@_1O@IBBJHCH@?$AAk?$AAo?$AAk?$AA?9?$AAi?$AAn?$AA?$AA@ 0000000180051498     LIBCMT:winapinls.obj
 0002:000064a8       ??_C@_1M@DMHAEOGC@?$AAk?$AAo?$AA?9?$AAk?$AAr?$AA?$AA@ 00000001800514a8     LIBCMT:winapinls.obj
 0002:000064b8       ??_C@_1M@HBAHBIGA@?$AAk?$AAy?$AA?9?$AAk?$AAg?$AA?$AA@ 00000001800514b8     LIBCMT:winapinls.obj
 0002:000064c8       ??_C@_1M@KPMILCJG@?$AAl?$AAt?$AA?9?$AAl?$AAt?$AA?$AA@ 00000001800514c8     LIBCMT:winapinls.obj
 0002:000064d8       ??_C@_1M@BDEKKCA@?$AAl?$AAv?$AA?9?$AAl?$AAv?$AA?$AA@ 00000001800514d8     LIBCMT:winapinls.obj
 0002:000064e8       ??_C@_1M@ELCKCCJJ@?$AAm?$AAi?$AA?9?$AAn?$AAz?$AA?$AA@ 00000001800514e8     LIBCMT:winapinls.obj
 0002:000064f8       ??_C@_1M@CBOOLAPA@?$AAm?$AAk?$AA?9?$AAm?$AAk?$AA?$AA@ 00000001800514f8     LIBCMT:winapinls.obj
 0002:00006508       ??_C@_1M@GPHNBJKN@?$AAm?$AAl?$AA?9?$AAi?$AAn?$AA?$AA@ 0000000180051508     LIBCMT:winapinls.obj
 0002:00006518       ??_C@_1M@PABJILIG@?$AAm?$AAn?$AA?9?$AAm?$AAn?$AA?$AA@ 0000000180051518     LIBCMT:winapinls.obj
 0002:00006528       ??_C@_1M@FGBKKIPG@?$AAm?$AAr?$AA?9?$AAi?$AAn?$AA?$AA@ 0000000180051528     LIBCMT:winapinls.obj
 0002:00006538       ??_C@_1M@NDBPDDAL@?$AAm?$AAs?$AA?9?$AAb?$AAn?$AA?$AA@ 0000000180051538     LIBCMT:winapinls.obj
 0002:00006548       ??_C@_1M@OPIHOOPI@?$AAm?$AAs?$AA?9?$AAm?$AAy?$AA?$AA@ 0000000180051548     LIBCMT:winapinls.obj
 0002:00006558       ??_C@_1M@PPDBCNFM@?$AAm?$AAt?$AA?9?$AAm?$AAt?$AA?$AA@ 0000000180051558     LIBCMT:winapinls.obj
 0002:00006568       ??_C@_1M@KDJDKMDD@?$AAn?$AAb?$AA?9?$AAn?$AAo?$AA?$AA@ 0000000180051568     LIBCMT:winapinls.obj
 0002:00006578       ??_C@_1M@KFCFLMJP@?$AAn?$AAl?$AA?9?$AAb?$AAe?$AA?$AA@ 0000000180051578     LIBCMT:winapinls.obj
 0002:00006588       ??_C@_1M@KPOPDDGO@?$AAn?$AAl?$AA?9?$AAn?$AAl?$AA?$AA@ 0000000180051588     LIBCMT:winapinls.obj
 0002:00006598       ??_C@_1M@LJKPEMLN@?$AAn?$AAn?$AA?9?$AAn?$AAo?$AA?$AA@ 0000000180051598     LIBCMT:winapinls.obj
 0002:000065a8       ??_C@_1M@BDGHHBFL@?$AAn?$AAs?$AA?9?$AAz?$AAa?$AA?$AA@ 00000001800515a8     LIBCMT:winapinls.obj
 0002:000065b8       ??_C@_1M@IDEHOAP@?$AAp?$AAa?$AA?9?$AAi?$AAn?$AA?$AA@ 00000001800515b8     LIBCMT:winapinls.obj
 0002:000065c8       ??_C@_1M@HDBKGOGH@?$AAp?$AAl?$AA?9?$AAp?$AAl?$AA?$AA@ 00000001800515c8     LIBCMT:winapinls.obj
 0002:000065d8       ??_C@_1M@LJLLCMEH@?$AAp?$AAt?$AA?9?$AAb?$AAr?$AA?$AA@ 00000001800515d8     LIBCMT:winapinls.obj
 0002:000065e8       ??_C@_1M@NCMONAAL@?$AAp?$AAt?$AA?9?$AAp?$AAt?$AA?$AA@ 00000001800515e8     LIBCMT:winapinls.obj
 0002:000065f8       ??_C@_1O@EAKMAJDN@?$AAq?$AAu?$AAz?$AA?9?$AAb?$AAo?$AA?$AA@ 00000001800515f8     LIBCMT:winapinls.obj
 0002:00006608       ??_C@_1O@BHHPIGDN@?$AAq?$AAu?$AAz?$AA?9?$AAe?$AAc?$AA?$AA@ 0000000180051608     LIBCMT:winapinls.obj
 0002:00006618       ??_C@_1O@GBAPEKMJ@?$AAq?$AAu?$AAz?$AA?9?$AAp?$AAe?$AA?$AA@ 0000000180051618     LIBCMT:winapinls.obj
 0002:00006628       ??_C@_1M@CLGLEFBO@?$AAr?$AAo?$AA?9?$AAr?$AAo?$AA?$AA@ 0000000180051628     LIBCMT:winapinls.obj
 0002:00006638       ??_C@_1M@CEEDODME@?$AAr?$AAu?$AA?9?$AAr?$AAu?$AA?$AA@ 0000000180051638     LIBCMT:winapinls.obj
 0002:00006648       ??_C@_1M@HPKKKMPP@?$AAs?$AAa?$AA?9?$AAi?$AAn?$AA?$AA@ 0000000180051648     LIBCMT:winapinls.obj
 0002:00006658       ??_C@_1M@BKMAIGOJ@?$AAs?$AAe?$AA?9?$AAf?$AAi?$AA?$AA@ 0000000180051658     LIBCMT:winapinls.obj
 0002:00006668       ??_C@_1M@NDPIFLFI@?$AAs?$AAe?$AA?9?$AAn?$AAo?$AA?$AA@ 0000000180051668     LIBCMT:winapinls.obj
 0002:00006678       ??_C@_1M@DANKKHJ@?$AAs?$AAe?$AA?9?$AAs?$AAe?$AA?$AA@ 0000000180051678     LIBCMT:winapinls.obj
 0002:00006688       ??_C@_1M@PNBLONPJ@?$AAs?$AAk?$AA?9?$AAs?$AAk?$AA?$AA@ 0000000180051688     LIBCMT:winapinls.obj
 0002:00006698       ??_C@_1M@LFMODOAL@?$AAs?$AAl?$AA?9?$AAs?$AAi?$AA?$AA@ 0000000180051698     LIBCMT:winapinls.obj
 0002:000066a8       ??_C@_1O@DFKOMPG@?$AAs?$AAm?$AAa?$AA?9?$AAn?$AAo?$AA?$AA@ 00000001800516a8     LIBCMT:winapinls.obj
 0002:000066b8       ??_C@_1O@NDKPBNNH@?$AAs?$AAm?$AAa?$AA?9?$AAs?$AAe?$AA?$AA@ 00000001800516b8     LIBCMT:winapinls.obj
 0002:000066c8       ??_C@_1O@PLLKBHAB@?$AAs?$AAm?$AAj?$AA?9?$AAn?$AAo?$AA?$AA@ 00000001800516c8     LIBCMT:winapinls.obj
 0002:000066d8       ??_C@_1O@CLEPOGCA@?$AAs?$AAm?$AAj?$AA?9?$AAs?$AAe?$AA?$AA@ 00000001800516d8     LIBCMT:winapinls.obj
 0002:000066e8       ??_C@_1O@DLGJGKMK@?$AAs?$AAm?$AAn?$AA?9?$AAf?$AAi?$AA?$AA@ 00000001800516e8     LIBCMT:winapinls.obj
 0002:000066f8       ??_C@_1O@OJDJGAJC@?$AAs?$AAm?$AAs?$AA?9?$AAf?$AAi?$AA?$AA@ 00000001800516f8     LIBCMT:winapinls.obj
 0002:00006708       ??_C@_1M@BOFOGHPB@?$AAs?$AAq?$AA?9?$AAa?$AAl?$AA?$AA@ 0000000180051708     LIBCMT:winapinls.obj
 0002:00006718       ??_C@_1BG@LJBBIPGB@?$AAs?$AAr?$AA?9?$AAb?$AAa?$AA?9?$AAc?$AAy?$AAr?$AAl?$AA?$AA@ 0000000180051718     LIBCMT:winapinls.obj
 0002:00006730       ??_C@_1BG@JLBENFOE@?$AAs?$AAr?$AA?9?$AAb?$AAa?$AA?9?$AAl?$AAa?$AAt?$AAn?$AA?$AA@ 0000000180051730     LIBCMT:winapinls.obj
 0002:00006748       ??_C@_1BG@KODPNHE@?$AAs?$AAr?$AA?9?$AAs?$AAp?$AA?9?$AAc?$AAy?$AAr?$AAl?$AA?$AA@ 0000000180051748     LIBCMT:winapinls.obj
 0002:00006760       ??_C@_1BG@CIOGKHPB@?$AAs?$AAr?$AA?9?$AAs?$AAp?$AA?9?$AAl?$AAa?$AAt?$AAn?$AA?$AA@ 0000000180051760     LIBCMT:winapinls.obj
 0002:00006778       ??_C@_1M@NGFJLMAC@?$AAs?$AAv?$AA?9?$AAf?$AAi?$AA?$AA@ 0000000180051778     LIBCMT:winapinls.obj
 0002:00006788       ??_C@_1M@MPJEJAJC@?$AAs?$AAv?$AA?9?$AAs?$AAe?$AA?$AA@ 0000000180051788     LIBCMT:winapinls.obj
 0002:00006798       ??_C@_1M@MPNDHLFK@?$AAs?$AAw?$AA?9?$AAk?$AAe?$AA?$AA@ 0000000180051798     LIBCMT:winapinls.obj
 0002:000067a8       ??_C@_1O@KOHBJJI@?$AAs?$AAy?$AAr?$AA?9?$AAs?$AAy?$AA?$AA@ 00000001800517a8     LIBCMT:winapinls.obj
 0002:000067b8       ??_C@_1M@LDCEFHA@?$AAt?$AAa?$AA?9?$AAi?$AAn?$AA?$AA@ 00000001800517b8     LIBCMT:winapinls.obj
 0002:000067c8       ??_C@_1M@CNJOFAK@?$AAt?$AAe?$AA?9?$AAi?$AAn?$AA?$AA@ 00000001800517c8     LIBCMT:winapinls.obj
 0002:000067d8       ??_C@_1M@GNAECACD@?$AAt?$AAh?$AA?9?$AAt?$AAh?$AA?$AA@ 00000001800517d8     LIBCMT:winapinls.obj
 0002:000067e8       ??_C@_1M@CHBIHOJO@?$AAt?$AAn?$AA?9?$AAz?$AAa?$AA?$AA@ 00000001800517e8     LIBCMT:winapinls.obj
 0002:000067f8       ??_C@_1M@GCCMIGPJ@?$AAt?$AAr?$AA?9?$AAt?$AAr?$AA?$AA@ 00000001800517f8     LIBCMT:winapinls.obj
 0002:00006808       ??_C@_1M@CELMCNBK@?$AAt?$AAt?$AA?9?$AAr?$AAu?$AA?$AA@ 0000000180051808     LIBCMT:winapinls.obj
 0002:00006818       ??_C@_1M@KLMCELGA@?$AAu?$AAk?$AA?9?$AAu?$AAa?$AA?$AA@ 0000000180051818     LIBCMT:winapinls.obj
 0002:00006828       ??_C@_1M@EPAJJAJF@?$AAu?$AAr?$AA?9?$AAp?$AAk?$AA?$AA@ 0000000180051828     LIBCMT:winapinls.obj
 0002:00006838       ??_C@_1BG@GEGPMCDJ@?$AAu?$AAz?$AA?9?$AAu?$AAz?$AA?9?$AAc?$AAy?$AAr?$AAl?$AA?$AA@ 0000000180051838     LIBCMT:winapinls.obj
 0002:00006850       ??_C@_1BG@EGGKJILM@?$AAu?$AAz?$AA?9?$AAu?$AAz?$AA?9?$AAl?$AAa?$AAt?$AAn?$AA?$AA@ 0000000180051850     LIBCMT:winapinls.obj
 0002:00006868       ??_C@_1M@GFOCLFF@?$AAv?$AAi?$AA?9?$AAv?$AAn?$AA?$AA@ 0000000180051868     LIBCMT:winapinls.obj
 0002:00006878       ??_C@_1M@CPAMEDFI@?$AAx?$AAh?$AA?9?$AAz?$AAa?$AA?$AA@ 0000000180051878     LIBCMT:winapinls.obj
 0002:00006888       ??_C@_1O@EBKIFIGN@?$AAz?$AAh?$AA?9?$AAc?$AAh?$AAs?$AA?$AA@ 0000000180051888     LIBCMT:winapinls.obj
 0002:00006898       ??_C@_1O@NMHPGANE@?$AAz?$AAh?$AA?9?$AAc?$AAh?$AAt?$AA?$AA@ 0000000180051898     LIBCMT:winapinls.obj
 0002:000068a8       ??_C@_1M@LPINJOMC@?$AAz?$AAh?$AA?9?$AAc?$AAn?$AA?$AA@ 00000001800518a8     LIBCMT:winapinls.obj
 0002:000068b8       ??_C@_1M@OCJEJODD@?$AAz?$AAh?$AA?9?$AAh?$AAk?$AA?$AA@ 00000001800518b8     LIBCMT:winapinls.obj
 0002:000068c8       ??_C@_1M@DNDLJINH@?$AAz?$AAh?$AA?9?$AAm?$AAo?$AA?$AA@ 00000001800518c8     LIBCMT:winapinls.obj
 0002:000068d8       ??_C@_1M@MBFDNDND@?$AAz?$AAh?$AA?9?$AAs?$AAg?$AA?$AA@ 00000001800518d8     LIBCMT:winapinls.obj
 0002:000068e8       ??_C@_1M@IMEPLEPE@?$AAz?$AAh?$AA?9?$AAt?$AAw?$AA?$AA@ 00000001800518e8     LIBCMT:winapinls.obj
 0002:000068f8       ??_C@_1M@BBGHNHJP@?$AAz?$AAu?$AA?9?$AAz?$AAa?$AA?$AA@ 00000001800518f8     LIBCMT:winapinls.obj
 0002:00006c38       ??_C@_08EHJDFFNH@__based?$CI?$AA@ 0000000180051c38     LIBCMT:undname.obj
 0002:00006c48       ??_C@_07KOLFKCDI@__cdecl?$AA@ 0000000180051c48     LIBCMT:undname.obj
 0002:00006c50       ??_C@_08GHMPAG@__pascal?$AA@ 0000000180051c50     LIBCMT:undname.obj
 0002:00006c60       ??_C@_09IFJBGAPI@__stdcall?$AA@ 0000000180051c60     LIBCMT:undname.obj
 0002:00006c70       ??_C@_0L@NPHFGOKO@__thiscall?$AA@ 0000000180051c70     LIBCMT:undname.obj
 0002:00006c80       ??_C@_0L@JMKHOMEK@__fastcall?$AA@ 0000000180051c80     LIBCMT:undname.obj
 0002:00006c90       ??_C@_0N@BCKKPABJ@__vectorcall?$AA@ 0000000180051c90     LIBCMT:undname.obj
 0002:00006ca0       ??_C@_09HIJEGCPM@__clrcall?$AA@ 0000000180051ca0     LIBCMT:undname.obj
 0002:00006cac       ??_C@_06GHPCKEAG@__eabi?$AA@ 0000000180051cac     LIBCMT:undname.obj
 0002:00006cb8       ??_C@_07JOMMBBKO@__ptr64?$AA@ 0000000180051cb8     LIBCMT:undname.obj
 0002:00006cc0       ??_C@_0L@PILCLIHE@__restrict?$AA@ 0000000180051cc0     LIBCMT:undname.obj
 0002:00006cd0       ??_C@_0M@GFIIJFMG@__unaligned?$AA@ 0000000180051cd0     LIBCMT:undname.obj
 0002:00006ce0       ??_C@_09DHDLOLLB@restrict?$CI?$AA@ 0000000180051ce0     LIBCMT:undname.obj
 0002:00006cec       ??_C@_04NIHEBCM@?5new?$AA@ 0000000180051cec     LIBCMT:undname.obj
 0002:00006cf8       ??_C@_07FPCDHGMM@?5delete?$AA@ 0000000180051cf8     LIBCMT:undname.obj
 0002:00006d00       ??_C@_01NEMOKFLO@?$DN?$AA@ 0000000180051d00     LIBCMT:undname.obj
 0002:00006d04       ??_C@_02GPIOPFAK@?$DO?$DO?$AA@ 0000000180051d04     LIBCMT:undname.obj
 0002:00006d08       ??_C@_02FODMEDOG@?$DM?$DM?$AA@ 0000000180051d08     LIBCMT:undname.obj
 0002:00006d0c       ??_C@_01DCLJPIOD@?$CB?$AA@ 0000000180051d0c     LIBCMT:undname.obj
 0002:00006d10       ??_C@_02EGOFBIJA@?$DN?$DN?$AA@ 0000000180051d10     LIBCMT:undname.obj
 0002:00006d14       ??_C@_02FDNJECIE@?$CB?$DN?$AA@ 0000000180051d14     LIBCMT:undname.obj
 0002:00006d18       ??_C@_02GPECMEKF@?$FL?$FN?$AA@ 0000000180051d18     LIBCMT:undname.obj
 0002:00006d20       ??_C@_08LHJFAFGD@operator?$AA@ 0000000180051d20     LIBCMT:undname.obj
 0002:00006d2c       ??_C@_02HBOOOICD@?9?$DO?$AA@ 0000000180051d2c     LIBCMT:undname.obj
 0002:00006d30       ??_C@_01NBENCBCI@?$CK?$AA@ 0000000180051d30     LIBCMT:undname.obj
 0002:00006d34       ??_C@_02ECNGHCIF@?$CL?$CL?$AA@ 0000000180051d34     LIBCMT:undname.obj
 0002:00006d38       ??_C@_02BAABKJLB@?9?9?$AA@ 0000000180051d38     LIBCMT:undname.obj
 0002:00006d3c       ??_C@_01JOAMLHOP@?9?$AA@   0000000180051d3c     LIBCMT:undname.obj
 0002:00006d40       ??_C@_01MIFGBAGJ@?$CL?$AA@ 0000000180051d40     LIBCMT:undname.obj
 0002:00006d44       ??_C@_01HNPIGOCE@?$CG?$AA@ 0000000180051d44     LIBCMT:undname.obj
 0002:00006d48       ??_C@_03MNHNFDLC@?9?$DO?$CK?$AA@ 0000000180051d48     LIBCMT:undname.obj
 0002:00006d4c       ??_C@_01KMDKNFGN@?1?$AA@   0000000180051d4c     LIBCMT:undname.obj
 0002:00006d50       ??_C@_01FGNFDNOH@?$CF?$AA@ 0000000180051d50     LIBCMT:undname.obj
 0002:00006d54       ??_C@_01MNNFJEPP@?$DM?$AA@ 0000000180051d54     LIBCMT:undname.obj
 0002:00006d58       ??_C@_02EHCHHCKH@?$DM?$DN?$AA@ 0000000180051d58     LIBCMT:undname.obj
 0002:00006d5c       ??_C@_01PPODPGHN@?$DO?$AA@ 0000000180051d5c     LIBCMT:undname.obj
 0002:00006d60       ??_C@_02EEKDKGMJ@?$DO?$DN?$AA@ 0000000180051d60     LIBCMT:undname.obj
 0002:00006d64       ??_C@_01IHBHIGKO@?0?$AA@   0000000180051d64     LIBCMT:undname.obj
 0002:00006d68       ??_C@_02HCKGKOFO@?$CI?$CJ?$AA@ 0000000180051d68     LIBCMT:undname.obj
 0002:00006d6c       ??_C@_01PJKLJHI@?$HO?$AA@  0000000180051d6c     LIBCMT:undname.obj
 0002:00006d70       ??_C@_01JKBOJNNK@?$FO?$AA@ 0000000180051d70     LIBCMT:undname.obj
 0002:00006d74       ??_C@_01DNKMNLPK@?$HM?$AA@ 0000000180051d74     LIBCMT:undname.obj
 0002:00006d78       ??_C@_02PPKAJPJL@?$CG?$CG?$AA@ 0000000180051d78     LIBCMT:undname.obj
 0002:00006d7c       ??_C@_02NONPIBCD@?$HM?$HM?$AA@ 0000000180051d7c     LIBCMT:undname.obj
 0002:00006d80       ??_C@_02FPIMKNGF@?$CK?$DN?$AA@ 0000000180051d80     LIBCMT:undname.obj
 0002:00006d84       ??_C@_02FOEOMHFC@?$CL?$DN?$AA@ 0000000180051d84     LIBCMT:undname.obj
 0002:00006d88       ??_C@_02FKMDLLOA@?9?$DN?$AA@ 0000000180051d88     LIBCMT:undname.obj
 0002:00006d8c       ??_C@_02FJEHGPIO@?1?$DN?$AA@ 0000000180051d8c     LIBCMT:undname.obj
 0002:00006d90       ??_C@_02FENAOKFI@?$CF?$DN?$AA@ 0000000180051d90     LIBCMT:undname.obj
 0002:00006d94       ??_C@_03IKFCCPFF@?$DO?$DO?$DN?$AA@ 0000000180051d94     LIBCMT:undname.obj
 0002:00006d98       ??_C@_03CDNPDDLA@?$DM?$DM?$DN?$AA@ 0000000180051d98     LIBCMT:undname.obj
 0002:00006d9c       ??_C@_02FGJGFEAB@?$CG?$DN?$AA@ 0000000180051d9c     LIBCMT:undname.obj
 0002:00006da0       ??_C@_02DHLNPPGH@?$HM?$DN?$AA@ 0000000180051da0     LIBCMT:undname.obj
 0002:00006da4       ??_C@_02MHEGNOJ@?$FO?$DN?$AA@ 0000000180051da4     LIBCMT:undname.obj
 0002:00006da8       ??_C@_09IFPLHPGF@?$GAvftable?8?$AA@ 0000000180051da8     LIBCMT:undname.obj
 0002:00006db8       ??_C@_09BLBHBJP@?$GAvbtable?8?$AA@ 0000000180051db8     LIBCMT:undname.obj
 0002:00006dc8       ??_C@_07FEEIOKP@?$GAvcall?8?$AA@ 0000000180051dc8     LIBCMT:undname.obj
 0002:00006dd0       ??_C@_08LLFFHHDJ@?$GAtypeof?8?$AA@ 0000000180051dd0     LIBCMT:undname.obj
 0002:00006de0       ??_C@_0BF@KDPPACIK@?$GAlocal?5static?5guard?8?$AA@ 0000000180051de0     LIBCMT:undname.obj
 0002:00006df8       ??_C@_08OBABFOLI@?$GAstring?8?$AA@ 0000000180051df8     LIBCMT:undname.obj
 0002:00006e08       ??_C@_0BD@JDLKDPAB@?$GAvbase?5destructor?8?$AA@ 0000000180051e08     LIBCMT:undname.obj
 0002:00006e20       ??_C@_0BN@DEGPLNFK@?$GAvector?5deleting?5destructor?8?$AA@ 0000000180051e20     LIBCMT:undname.obj
 0002:00006e40       ??_C@_0BO@OBMKPJIG@?$GAdefault?5constructor?5closure?8?$AA@ 0000000180051e40     LIBCMT:undname.obj
 0002:00006e60       ??_C@_0BN@IMDCHIKM@?$GAscalar?5deleting?5destructor?8?$AA@ 0000000180051e60     LIBCMT:undname.obj
 0002:00006e80       ??_C@_0BO@PFGOCPJJ@?$GAvector?5constructor?5iterator?8?$AA@ 0000000180051e80     LIBCMT:undname.obj
 0002:00006ea0       ??_C@_0BN@LFPFMEDL@?$GAvector?5destructor?5iterator?8?$AA@ 0000000180051ea0     LIBCMT:undname.obj
 0002:00006ec0       ??_C@_0CE@IKBNEHA@?$GAvector?5vbase?5constructor?5iterat@ 0000000180051ec0     LIBCMT:undname.obj
 0002:00006ee8       ??_C@_0BL@NILFHHPC@?$GAvirtual?5displacement?5map?8?$AA@ 0000000180051ee8     LIBCMT:undname.obj
 0002:00006f08       ??_C@_0CB@JONCMFFK@?$GAeh?5vector?5constructor?5iterator?8@ 0000000180051f08     LIBCMT:undname.obj
 0002:00006f30       ??_C@_0CA@GCEOPDGL@?$GAeh?5vector?5destructor?5iterator?8?$AA@ 0000000180051f30     LIBCMT:undname.obj
 0002:00006f50       ??_C@_0CH@OOJPLCPH@?$GAeh?5vector?5vbase?5constructor?5ite@ 0000000180051f50     LIBCMT:undname.obj
 0002:00006f78       ??_C@_0BL@LLKPOHJI@?$GAcopy?5constructor?5closure?8?$AA@ 0000000180051f78     LIBCMT:undname.obj
 0002:00006f98       ??_C@_0BA@KBCDOMBN@?$GAudt?5returning?8?$AA@ 0000000180051f98     LIBCMT:undname.obj
 0002:00006fa8       ??_C@_03KLGMFNMG@?$GAEH?$AA@ 0000000180051fa8     LIBCMT:undname.obj
 0002:00006fac       ??_C@_05KHLCHHI@?$GARTTI?$AA@ 0000000180051fac     LIBCMT:undname.obj
 0002:00006fb8       ??_C@_0BA@KKLDJDLB@?$GAlocal?5vftable?8?$AA@ 0000000180051fb8     LIBCMT:undname.obj
 0002:00006fc8       ??_C@_0CE@IIHCMGGL@?$GAlocal?5vftable?5constructor?5closu@ 0000000180051fc8     LIBCMT:undname.obj
 0002:00006fec       ??_C@_06FHBGPFGH@?5new?$FL?$FN?$AA@ 0000000180051fec     LIBCMT:undname.obj
 0002:00006ff8       ??_C@_09LBNFPBCA@?5delete?$FL?$FN?$AA@ 0000000180051ff8     LIBCMT:undname.obj
 0002:00007008       ??_C@_0P@HJKNJFNN@?$GAomni?5callsig?8?$AA@ 0000000180052008     LIBCMT:undname.obj
 0002:00007018       ??_C@_0BL@CNOONJFP@?$GAplacement?5delete?5closure?8?$AA@ 0000000180052018     LIBCMT:undname.obj
 0002:00007038       ??_C@_0BN@CKNJLHMB@?$GAplacement?5delete?$FL?$FN?5closure?8?$AA@ 0000000180052038     LIBCMT:undname.obj
 0002:00007058       ??_C@_0CG@CFDHKGGD@?$GAmanaged?5vector?5constructor?5iter@ 0000000180052058     LIBCMT:undname.obj
 0002:00007080       ??_C@_0CF@IMGKMJNO@?$GAmanaged?5vector?5destructor?5itera@ 0000000180052080     LIBCMT:undname.obj
 0002:000070a8       ??_C@_0CG@HLDDJMAG@?$GAeh?5vector?5copy?5constructor?5iter@ 00000001800520a8     LIBCMT:undname.obj
 0002:000070d0       ??_C@_0CM@FCBBDIGB@?$GAeh?5vector?5vbase?5copy?5constructo@ 00000001800520d0     LIBCMT:undname.obj
 0002:00007100       ??_C@_0BL@CLIPGLGB@?$GAdynamic?5initializer?5for?5?8?$AA@ 0000000180052100     LIBCMT:undname.obj
 0002:00007120       ??_C@_0CB@PDBIFEP@?$GAdynamic?5atexit?5destructor?5for?5?8@ 0000000180052120     LIBCMT:undname.obj
 0002:00007148       ??_C@_0CD@CGAJBKEJ@?$GAvector?5copy?5constructor?5iterato@ 0000000180052148     LIBCMT:undname.obj
 0002:00007170       ??_C@_0CJ@GJELGAMM@?$GAvector?5vbase?5copy?5constructor?5i@ 0000000180052170     LIBCMT:undname.obj
 0002:000071a0       ??_C@_0CL@FGIJHLCE@?$GAmanaged?5vector?5copy?5constructor@ 00000001800521a0     LIBCMT:undname.obj
 0002:000071d0       ??_C@_0BM@PMGGMLDN@?$GAlocal?5static?5thread?5guard?8?$AA@ 00000001800521d0     LIBCMT:undname.obj
 0002:000071f0       ??_C@_0BC@DAFEJGAK@?5Type?5Descriptor?8?$AA@ 00000001800521f0     LIBCMT:undname.obj
 0002:00007208       ??_C@_0BM@LDKODKLH@?5Base?5Class?5Descriptor?5at?5?$CI?$AA@ 0000000180052208     LIBCMT:undname.obj
 0002:00007228       ??_C@_0BD@LGICGFMM@?5Base?5Class?5Array?8?$AA@ 0000000180052228     LIBCMT:undname.obj
 0002:00007240       ??_C@_0BN@MECKDCOJ@?5Class?5Hierarchy?5Descriptor?8?$AA@ 0000000180052240     LIBCMT:undname.obj
 0002:00007260       ??_C@_0BK@CFCOFLF@?5Complete?5Object?5Locator?8?$AA@ 0000000180052260     LIBCMT:undname.obj
 0002:00007280       __newctype                 0000000180052280     LIBCMT:ctype.obj
 0002:00007580       _wctype                    0000000180052580     LIBCMT:ctype.obj
 0002:00007790       __newclmap                 0000000180052790     LIBCMT:ctype.obj
 0002:00007910       __newcumap                 0000000180052910     LIBCMT:ctype.obj
 0002:00007a90       __rg_language_count        0000000180052a90     LIBCMT:getqloc.obj
 0002:00007a94       __rg_country_count         0000000180052a94     LIBCMT:getqloc.obj
 0002:00007a98       ??_C@_1BA@BALFACEM@?$AAC?$AAO?$AAN?$AAO?$AAU?$AAT?$AA$?$AA?$AA@ 0000000180052a98     LIBCMT:initcon.obj
 0002:00007aa8       ??_C@_06PGGFOGJG@1?$CDSNAN?$AA@ 0000000180052aa8     LIBCMT:x10fout.obj
 0002:00007ab0       ??_C@_05PHHOCPM@1?$CDIND?$AA@ 0000000180052ab0     LIBCMT:x10fout.obj
 0002:00007ab8       ??_C@_05DNEBIAHO@1?$CDINF?$AA@ 0000000180052ab8     LIBCMT:x10fout.obj
 0002:00007ac0       ??_C@_06IMKFLFPG@1?$CDQNAN?$AA@ 0000000180052ac0     LIBCMT:x10fout.obj
 0002:00007ac8       ??_C@_03MOLNDNH@gif?$AA@   0000000180052ac8     init.obj
 0002:00007acc       ??_C@_03NNHBJLDF@png?$AA@  0000000180052acc     init.obj
 0002:00007ad0       ??_C@_04OFMADDDJ@jpeg?$AA@ 0000000180052ad0     init.obj
 0002:00007ad8       ??_C@_0BI@EEAIDBAK@?4?4?2src?2encoder?2init?4cpp?$AA@ 0000000180052ad8     init.obj
 0002:00007af0       ??_C@_0N@HFPKGHMF@lwip_encoder?$AA@ 0000000180052af0     init.obj
 0002:0000c2c0       jpeg_std_message_table     00000001800572c0     jerror.obj
 0002:0000c6c0       jpeg_natural_order4        00000001800576c0     jutils.obj
 0002:0000c740       jpeg_natural_order7        0000000180057740     jutils.obj
 0002:0000c850       jpeg_natural_order3        0000000180057850     jutils.obj
 0002:0000c8c0       jpeg_natural_order         00000001800578c0     jutils.obj
 0002:0000ca00       jpeg_natural_order2        0000000180057a00     jutils.obj
 0002:0000ca50       jpeg_natural_order6        0000000180057a50     jutils.obj
 0002:0000cb20       jpeg_natural_order5        0000000180057b20     jutils.obj
 0002:0000cc10       jpeg_aritab                0000000180057c10     jaricom.obj
 0002:0000d3f0       png_sRGB_delta             00000001800583f0     png.obj
 0002:0000d700       png_sRGB_base              0000000180058700     png.obj
 0002:0000fe90       z_errmsg                   000000018005ae90     zutil.obj
 0002:0000ff80       _dist_code                 000000018005af80     trees.obj
 0002:00010180       _length_code               000000018005b180     trees.obj
 0002:000109f8       ??_7CImgInstanceException@cimg_library@@6B@ 000000018005b9f8     jpeg_worker.obj
 0002:000109f8       ??_7CImgException@cimg_library@@6B@ 000000018005b9f8     jpeg_worker.obj
 0002:000109f8       ??_7CImgArgumentException@cimg_library@@6B@ 000000018005b9f8     jpeg_worker.obj
 0002:000109f8       ??_7CImgIOException@cimg_library@@6B@ 000000018005b9f8     jpeg_worker.obj
 0002:00010a10       ??_7exception@stdext@@6B@  000000018005ba10     jpeg_worker.obj
 0002:00010a28       ??_7AsyncWorker@Nan@@6B@   000000018005ba28     jpeg_worker.obj
 0002:00010a58       ??_7EncodeToJpegBufferWorker@@6B@ 000000018005ba58     jpeg_worker.obj
 0002:00010a88       ??_C@_0BC@BDKFLDHL@unknown?5exception?$AA@ 000000018005ba88     jpeg_worker.obj
 0002:00010a9a       ??_C@_00CNPNBAHC@?$AA@     000000018005ba9a     jpeg_worker.obj
 0002:00010aa0       ??_C@_1GE@MEOPLBFN@?$AAe?$AA?3?$AA?2?$AAC?$AAo?$AAd?$AAe?$AA?2?$AAd?$AAp?$AAr?$AAo?$AAj?$AA?2?$AAt?$AAr?$AAi?$AAp?$AA_?$AAb?$AAa?$AAc?$AAk?$AAe?$AAn?$AAd?$AA?2?$AAn?$AAo?$AAd?$AAe?$AA_@ 000000018005baa0     jpeg_worker.obj
 0002:00010b10       ??_C@_1FM@LOELJOFK@?$AAs?$AAi?$AAz?$AAe?$AA?5?$AA?$DM?$AA?$DN?$AA?5?$AAi?$AAm?$AAp?$AA?3?$AA?3?$AAk?$AAM?$AAa?$AAx?$AAL?$AAe?$AAn?$AAg?$AAt?$AAh?$AA?5?$AA?$CG?$AA?$CG?$AA?5?$AA?$CC?$AAt?$AAo?$AAo?$AA?5@ 000000018005bb10     jpeg_worker.obj
 0002:00010b70       ??_C@_07CIFAGBMG@unknown?$AA@ 000000018005bb70     jpeg_worker.obj
 0002:00010b78       ??_C@_0BL@EAGPGGJL@?6?$CFs?$FLCImg?$FN?5?$CK?$CK?$CK?5?$CFs?5?$CK?$CK?$CK?$CFs?5?$CFs?6?$AA@ 000000018005bb78     jpeg_worker.obj
 0002:00010b98       ??_C@_0BG@KMDADBLO@CImgArgumentException?$AA@ 000000018005bb98     jpeg_worker.obj
 0002:00010bb0       ??_C@_0BG@IOCOPDAE@CImgInstanceException?$AA@ 000000018005bbb0     jpeg_worker.obj
 0002:00010bc8       ??_C@_0BA@EFAPIJMM@CImgIOException?$AA@ 000000018005bbc8     jpeg_worker.obj
 0002:00010bd8       ??_C@_02DKCKIIND@?$CFs?$AA@ 000000018005bbd8     jpeg_worker.obj
 0002:00010be0       ??_C@_0O@PPAIJIHF@unsigned?5char?$AA@ 000000018005bbe0     jpeg_worker.obj
 0002:00010bf0       ??_C@_04ENMBGAPA@char?$AA@ 000000018005bbf0     jpeg_worker.obj
 0002:00010bf8       ??_C@_0BO@KMOFCCNE@?6?$CFs?$FLCImg?$FN?5?$CK?$CK?$CK?5Warning?5?$CK?$CK?$CK?$CFs?$CFs?$AA@ 000000018005bbf8     jpeg_worker.obj
 0002:00010c18       ??_C@_07LDLFNPGN@Windows?$AA@ 000000018005bc18     jpeg_worker.obj
 0002:00010c20       ??_C@_0CK@NEJGLCGN@cimg?3?3fclose?$CI?$CJ?3?5Specified?5file?5i@ 000000018005bc20     jpeg_worker.obj
 0002:00010c50       ??_C@_0DM@IBNMJMCA@cimg?3?3fclose?$CI?$CJ?3?5Error?5code?5?$CFd?5re@ 000000018005bc50     jpeg_worker.obj
 0002:00010c8c       ??_C@_02GMLFBBN@wb?$AA@    000000018005bc8c     jpeg_worker.obj
 0002:00010c90       ??_C@_08NFDLPMJL@10?326?335?$AA@ 000000018005bc90     jpeg_worker.obj
 0002:00010ca0       ??_C@_0M@BPCKMONA@Jun?5?55?52016?$AA@ 000000018005bca0     jpeg_worker.obj
 0002:00010cb0       ??_C@_0EO@PPEPCMLA@?6?5?$CFs?$CFsCImg?5Library?5?$CFu?4?$CFu?4?$CFu?$CFs?0?5c@ 000000018005bcb0     jpeg_worker.obj
 0002:00010d00       ??_C@_0DK@CAOOHPPH@?5?5?$DO?5Operating?5System?3?5?5?5?5?5?5?5?$CFs?$CF?9@ 000000018005bd00     jpeg_worker.obj
 0002:00010d3c       ??_C@_06HPILLNHM@Little?$AA@ 000000018005bd3c     jpeg_worker.obj
 0002:00010d48       ??_C@_0CL@MALEOICL@?5?5?$DO?5CPU?5endianness?3?5?5?5?5?5?5?5?5?5?$CFs?$CFs@ 000000018005bd48     jpeg_worker.obj
 0002:00010d74       ??_C@_05PLLMOHAB@Quiet?$AA@ 000000018005bd74     jpeg_worker.obj
 0002:00010d80       ??_C@_0EB@IDKGNHGM@?5?5?$DO?5Verbosity?5mode?3?5?5?5?5?5?5?5?5?5?$CFs?$CF?9@ 000000018005bd80     jpeg_worker.obj
 0002:00010dc8       ??_C@_09MLGAJAED@undefined?$AA@ 000000018005bdc8     jpeg_worker.obj
 0002:00010dd4       ??_C@_02JINPPBEP@No?$AA@   000000018005bdd4     jpeg_worker.obj
 0002:00010de0       ??_C@_0EH@LAGENLPE@?5?5?$DO?5Stricts?5warnings?3?5?5?5?5?5?5?5?$CFs?$CF?9@ 000000018005bde0     jpeg_worker.obj
 0002:00010e30       ??_C@_0EB@JAEOMHJH@?5?5?$DO?5Using?5VT100?5messages?3?5?5?5?$CFs?$CF?9@ 000000018005be30     jpeg_worker.obj
 0002:00010e78       ??_C@_0L@EKKILCGA@No?5display?$AA@ 000000018005be78     jpeg_worker.obj
 0002:00010e88       ??_C@_0DP@CBALMADN@?5?5?$DO?5Display?5type?3?5?5?5?5?5?5?5?5?5?5?5?$CFs?$CF?9@ 000000018005be88     jpeg_worker.obj
 0002:00010ed0       ??_C@_0EC@DJMNKPJN@?5?5?$DO?5Using?5OpenMP?3?5?5?5?5?5?5?5?5?5?5?5?$CFs?$CF?9@ 000000018005bed0     jpeg_worker.obj
 0002:00010f18       ??_C@_0DP@ELDHPPAH@?5?5?$DO?5Using?5PNG?5library?3?5?5?5?5?5?5?$CFs?$CF?9@ 000000018005bf18     jpeg_worker.obj
 0002:00010f60       ??_C@_0EA@BIPAABKJ@?5?5?$DO?5Using?5JPEG?5library?3?5?5?5?5?5?$CFs?$CF?9@ 000000018005bf60     jpeg_worker.obj
 0002:00010fa0       ??_C@_0EA@GNPBIGKO@?5?5?$DO?5Using?5TIFF?5library?3?5?5?5?5?5?$CFs?$CF?9@ 000000018005bfa0     jpeg_worker.obj
 0002:00010fe0       ??_C@_0EC@LHFPOJJ@?5?5?$DO?5Using?5Magick?$CL?$CL?5library?3?5?$CFs?$CF?9@ 000000018005bfe0     jpeg_worker.obj
 0002:00011030       ??_C@_0EB@IMBGEGC@?5?5?$DO?5Using?5FFTW3?5library?3?5?5?5?5?$CFs?$CF?9@ 000000018005c030     jpeg_worker.obj
 0002:00011080       ??_C@_0EC@EDAJEHKG@?5?5?$DO?5Using?5LAPACK?5library?3?5?5?5?$CFs?$CF?9@ 000000018005c080     jpeg_worker.obj
 0002:000110c8       ??_C@_09KDOGNJMJ@?$CC?$CF?41020s?$CC?$AA@ 000000018005c0c8     jpeg_worker.obj
 0002:000110d8       ??_C@_0CH@JOMNENBJ@?5?5?$DO?5Path?5of?5ImageMagick?3?5?5?5?5?$CFs?$CF?9@ 000000018005c0d8     jpeg_worker.obj
 0002:00011100       ??_C@_0CH@GJHENCAJ@?5?5?$DO?5Path?5of?5GraphicsMagick?3?5?$CFs?$CF?9@ 000000018005c100     jpeg_worker.obj
 0002:00011128       ??_C@_0CH@DIFINHOM@?5?5?$DO?5Path?5of?5?8medcon?8?3?5?5?5?5?5?5?5?$CFs?$CF?9@ 000000018005c128     jpeg_worker.obj
 0002:00011150       ??_C@_0CH@NBHEOCD@?5?5?$DO?5Temporary?5path?3?5?5?5?5?5?5?5?5?5?$CFs?$CF?9@ 000000018005c150     jpeg_worker.obj
 0002:00011178       ??_C@_01EEMJAFIK@?6?$AA@   000000018005c178     jpeg_worker.obj
 0002:0001117c       ??_C@_06IHDMMOPO@?$CFs?4tmp?$AA@ 000000018005c17c     jpeg_worker.obj
 0002:00011184       ??_C@_03FICNPLNB@TMP?$AA@  000000018005c184     jpeg_worker.obj
 0002:00011188       ??_C@_04JKHNIKCB@TEMP?$AA@ 000000018005c188     jpeg_worker.obj
 0002:00011190       ??_C@_06GIIGBPHC@?$CFs?$CFc?$CFs?$AA@ 000000018005c190     jpeg_worker.obj
 0002:00011198       ??_C@_0O@MCLGOIG@C?3?2WINNT?2Temp?$AA@ 000000018005c198     jpeg_worker.obj
 0002:000111a8       ??_C@_0BA@OBBKBLLO@C?3?2WINDOWS?2Temp?$AA@ 000000018005c1a8     jpeg_worker.obj
 0002:000111b8       ??_C@_07OEMLJILH@C?3?2Temp?$AA@ 000000018005c1b8     jpeg_worker.obj
 0002:000111c0       ??_C@_02FHMLMLAN@C?3?$AA@  000000018005c1c0     jpeg_worker.obj
 0002:000111c8       ??_C@_0O@GJOGMEEG@D?3?2WINNT?2Temp?$AA@ 000000018005c1c8     jpeg_worker.obj
 0002:000111d8       ??_C@_0BA@BMODODML@D?3?2WINDOWS?2Temp?$AA@ 000000018005c1d8     jpeg_worker.obj
 0002:000111e8       ??_C@_07OOAOJBKO@D?3?2Temp?$AA@ 000000018005c1e8     jpeg_worker.obj
 0002:000111f0       ??_C@_02FCIENNII@D?3?$AA@  000000018005c1f0     jpeg_worker.obj
 0002:00011200       ??_C@_0EM@MFNNFKJO@cimg?3?3temporary_path?$CI?$CJ?3?5Failed?5t@ 000000018005c200     jpeg_worker.obj
 0002:00011250       ??_C@_0N@DGDPHBCF@PROGRAMFILES?$AA@ 000000018005c250     jpeg_worker.obj
 0002:00011260       ??_C@_0M@JGDMECFM@C?3?2PROGRA?$HO1?$AA@ 000000018005c260     jpeg_worker.obj
 0002:00011270       ??_C@_0O@CINCGHCE@?4?2convert?4exe?$AA@ 000000018005c270     jpeg_worker.obj
 0002:00011280       ??_C@_01KDCPPGHE@r?$AA@    000000018005c280     jpeg_worker.obj
 0002:00011288       ??_C@_0BO@BEENKDDB@?$CFs?2IMAGEM?$HO1?4?$CF?42d?9?2convert?4exe?$AA@ 000000018005c288     jpeg_worker.obj
 0002:000112a8       ??_C@_0BN@DEFKOHAO@?$CFs?2IMAGEM?$HO1?4?$CFd?9Q?2convert?4exe?$AA@ 000000018005c2a8     jpeg_worker.obj
 0002:000112c8       ??_C@_0BL@MJEIJKFG@?$CFs?2IMAGEM?$HO1?4?$CFd?2convert?4exe?$AA@ 000000018005c2c8     jpeg_worker.obj
 0002:000112e8       ??_C@_0CK@IDDGABKN@?$CFs?2IMAGEM?$HO1?4?$CF?42d?9?2VISUA?$HO1?2BIN?2co@ 000000018005c2e8     jpeg_worker.obj
 0002:00011318       ??_C@_0CJ@MEJJNKIH@?$CFs?2IMAGEM?$HO1?4?$CFd?9Q?2VISUA?$HO1?2BIN?2con@ 000000018005c318     jpeg_worker.obj
 0002:00011348       ??_C@_0CH@IPLKJMJJ@?$CFs?2IMAGEM?$HO1?4?$CFd?2VISUA?$HO1?2BIN?2conve@ 000000018005c348     jpeg_worker.obj
 0002:00011370       ??_C@_0BO@NPHMEFBN@C?3?2IMAGEM?$HO1?4?$CF?42d?9?2convert?4exe?$AA@ 000000018005c370     jpeg_worker.obj
 0002:00011390       ??_C@_0BN@GEAPEHLO@C?3?2IMAGEM?$HO1?4?$CFd?9Q?2convert?4exe?$AA@ 000000018005c390     jpeg_worker.obj
 0002:000113b0       ??_C@_0BL@BNLFNGCG@C?3?2IMAGEM?$HO1?4?$CFd?2convert?4exe?$AA@ 000000018005c3b0     jpeg_worker.obj
 0002:000113d0       ??_C@_0CK@OMCOIKKD@C?3?2IMAGEM?$HO1?4?$CF?42d?9?2VISUA?$HO1?2BIN?2co@ 000000018005c3d0     jpeg_worker.obj
 0002:00011400       ??_C@_0CJ@GMGFDFFB@C?3?2IMAGEM?$HO1?4?$CFd?9Q?2VISUA?$HO1?2BIN?2con@ 000000018005c400     jpeg_worker.obj
 0002:00011430       ??_C@_0CH@NLPLIBFJ@C?3?2IMAGEM?$HO1?4?$CFd?2VISUA?$HO1?2BIN?2conve@ 000000018005c430     jpeg_worker.obj
 0002:00011458       ??_C@_0BO@GKFOOMCF@D?3?2IMAGEM?$HO1?4?$CF?42d?9?2convert?4exe?$AA@ 000000018005c458     jpeg_worker.obj
 0002:00011478       ??_C@_0BN@JGGJEOAD@D?3?2IMAGEM?$HO1?4?$CFd?9Q?2convert?4exe?$AA@ 000000018005c478     jpeg_worker.obj
 0002:00011498       ??_C@_0BL@MPGAJAKA@D?3?2IMAGEM?$HO1?4?$CFd?2convert?4exe?$AA@ 000000018005c498     jpeg_worker.obj
 0002:000114b8       ??_C@_0CK@DNGABIKL@D?3?2IMAGEM?$HO1?4?$CF?42d?9?2VISUA?$HO1?2BIN?2co@ 000000018005c4b8     jpeg_worker.obj
 0002:000114e8       ??_C@_0CJ@JJJAMMPF@D?3?2IMAGEM?$HO1?4?$CFd?9Q?2VISUA?$HO1?2BIN?2con@ 000000018005c4e8     jpeg_worker.obj
 0002:00011518       ??_C@_0CH@OJDFLFEH@D?3?2IMAGEM?$HO1?4?$CFd?2VISUA?$HO1?2BIN?2conve@ 000000018005c518     jpeg_worker.obj
 0002:00011540       ??_C@_0M@BHHDHLFO@convert?4exe?$AA@ 000000018005c540     jpeg_worker.obj
 0002:00011550       ??_C@_08JLFGAKFI@?4?2gm?4exe?$AA@ 000000018005c550     jpeg_worker.obj
 0002:00011560       ??_C@_0BJ@KIJEJDFC@?$CFs?2GRAPHI?$HO1?4?$CF?42d?9?2gm?4exe?$AA@ 000000018005c560     jpeg_worker.obj
 0002:00011580       ??_C@_0BI@JLKBGOLD@?$CFs?2GRAPHI?$HO1?4?$CFd?9Q?2gm?4exe?$AA@ 000000018005c580     jpeg_worker.obj
 0002:00011598       ??_C@_0BG@NEOPBCGI@?$CFs?2GRAPHI?$HO1?4?$CFd?2gm?4exe?$AA@ 000000018005c598     jpeg_worker.obj
 0002:000115b0       ??_C@_0CF@HGNIKPKC@?$CFs?2GRAPHI?$HO1?4?$CF?42d?9?2VISUA?$HO1?2BIN?2gm@ 000000018005c5b0     jpeg_worker.obj
 0002:000115d8       ??_C@_0CE@HONJHPCF@?$CFs?2GRAPHI?$HO1?4?$CFd?9Q?2VISUA?$HO1?2BIN?2gm?4@ 000000018005c5d8     jpeg_worker.obj
 0002:00011600       ??_C@_0CC@CGJHNFDG@?$CFs?2GRAPHI?$HO1?4?$CFd?2VISUA?$HO1?2BIN?2gm?4ex@ 000000018005c600     jpeg_worker.obj
 0002:00011628       ??_C@_0BJ@LNLIIJPN@C?3?2GRAPHI?$HO1?4?$CF?42d?9?2gm?4exe?$AA@ 000000018005c628     jpeg_worker.obj
 0002:00011648       ??_C@_0BI@GNJGIIOO@C?3?2GRAPHI?$HO1?4?$CFd?9Q?2gm?4exe?$AA@ 000000018005c648     jpeg_worker.obj
 0002:00011660       ??_C@_0BG@KKAGDOPF@C?3?2GRAPHI?$HO1?4?$CFd?2gm?4exe?$AA@ 000000018005c660     jpeg_worker.obj
 0002:00011678       ??_C@_0CF@IDNFPMOE@C?3?2GRAPHI?$HO1?4?$CF?42d?9?2VISUA?$HO1?2BIN?2gm@ 000000018005c678     jpeg_worker.obj
 0002:000116a0       ??_C@_0CE@HMEOGOHC@C?3?2GRAPHI?$HO1?4?$CFd?9Q?2VISUA?$HO1?2BIN?2gm?4@ 000000018005c6a0     jpeg_worker.obj
 0002:000116c8       ??_C@_0CC@KLPHHFCI@C?3?2GRAPHI?$HO1?4?$CFd?2VISUA?$HO1?2BIN?2gm?4ex@ 000000018005c6c8     jpeg_worker.obj
 0002:000116f0       ??_C@_0BJ@HDOIHFFF@D?3?2GRAPHI?$HO1?4?$CF?42d?9?2gm?4exe?$AA@ 000000018005c6f0     jpeg_worker.obj
 0002:00011710       ??_C@_0BI@FMIOLPJJ@D?3?2GRAPHI?$HO1?4?$CFd?9Q?2gm?4exe?$AA@ 000000018005c710     jpeg_worker.obj
 0002:00011728       ??_C@_0BG@MPNPAALF@D?3?2GRAPHI?$HO1?4?$CFd?2gm?4exe?$AA@ 000000018005c728     jpeg_worker.obj
 0002:00011740       ??_C@_0CF@LHOHJFDL@D?3?2GRAPHI?$HO1?4?$CF?42d?9?2VISUA?$HO1?2BIN?2gm@ 000000018005c740     jpeg_worker.obj
 0002:00011768       ??_C@_0CE@CAPOENBL@D?3?2GRAPHI?$HO1?4?$CFd?9Q?2VISUA?$HO1?2BIN?2gm?4@ 000000018005c768     jpeg_worker.obj
 0002:00011790       ??_C@_0CC@FEHIMCKK@D?3?2GRAPHI?$HO1?4?$CFd?2VISUA?$HO1?2BIN?2gm?4ex@ 000000018005c790     jpeg_worker.obj
 0002:000117b4       ??_C@_06KIIJHODA@gm?4exe?$AA@ 000000018005c7b4     jpeg_worker.obj
 0002:000117c0       ??_C@_0N@MGGOIDG@?4?2medcon?4exe?$AA@ 000000018005c7c0     jpeg_worker.obj
 0002:000117d0       ??_C@_0BK@NDJGANHB@?$CFs?2XMedCon?2bin?2medcon?4bat?$AA@ 000000018005c7d0     jpeg_worker.obj
 0002:000117f0       ??_C@_0BK@OGPIOCH@?$CFs?2XMedCon?2bin?2medcon?4exe?$AA@ 000000018005c7f0     jpeg_worker.obj
 0002:00011810       ??_C@_0BK@EIBDBMEE@C?3?2XMedCon?2bin?2medcon?4exe?$AA@ 000000018005c810     jpeg_worker.obj
 0002:00011830       ??_C@_0L@BIHMEPJA@medcon?4exe?$AA@ 000000018005c830     jpeg_worker.obj
 0002:0001183c       ??_C@_01LKDEMHDF@s?$AA@    000000018005c83c     jpeg_worker.obj
 0002:00011840       ??_C@_0L@OBBAIDHB@?$CFlu?5byte?$CFs?$AA@ 000000018005c840     jpeg_worker.obj
 0002:00011850       ??_C@_08MFGCGJIH@?$CF?41f?5Kio?$AA@ 000000018005c850     jpeg_worker.obj
 0002:00011860       ??_C@_08OAAJDGFL@?$CF?41f?5Mio?$AA@ 000000018005c860     jpeg_worker.obj
 0002:00011870       ??_C@_08IPLENGDP@?$CF?41f?5Gio?$AA@ 000000018005c870     jpeg_worker.obj
 0002:0001187c       ??_C@_04PJDDAHNC@buff?$AA@ 000000018005c87c     jpeg_worker.obj
 0002:00011888       ??_C@_0BH@MPCGKEKN@JPEG?5compression?5error?$AA@ 000000018005c888     jpeg_worker.obj
 0002:000118a0       ??_C@_0O@NALGGDJF@Out?5of?5memory?$AA@ 000000018005c8a0     jpeg_worker.obj
 0002:000118b0       ??_C@_04BOPJJKFO@non?9?$AA@ 000000018005c8b0     jpeg_worker.obj
 0002:000118c0       ??_C@_0GO@IJKBBBF@?$FLinstance?$CI?$CFu?0?$CFu?0?$CFu?0?$CFu?0?$CFp?0?$CFsshare@ 000000018005c8c0     jpeg_worker.obj
 0002:00011930       ??_C@_0IL@FBEMFEEL@?$FLinstance?$CI?$CFu?0?$CFu?0?$CFu?0?$CFu?0?$CFp?0?$CFsshare@ 000000018005c930     jpeg_worker.obj
 0002:000119c0       ??_C@_0HA@LNIOEEDA@?$FLinstance?$CI?$CFu?0?$CFu?0?$CFu?0?$CFu?0?$CFp?0?$CFsshare@ 000000018005c9c0     jpeg_worker.obj
 0002:00011a30       ??_C@_06NJLEMFG@1?46?418?$AA@ 000000018005ca30     png_worker.obj
 0002:00011a38       ??_C@_0BG@KDKGDDGD@PNG?5compression?5error?$AA@ 000000018005ca38     png_worker.obj
 0002:00011a50       ??_C@_09FNEONHHD@lwip_data?$AA@ 000000018005ca50     png_worker.obj
 0002:00011a60       ??_C@_0EI@JNFBCHHF@?$FLinstance?$CI?$CFu?0?$CFu?0?$CFu?0?$CFu?0?$CFp?0?$CFsshare@ 000000018005ca60     png_worker.obj
 0002:00011aa8       ??_7EncodeToPngBufferWorker@@6B@ 000000018005caa8     png_worker.obj
 0002:00011ad8       ??_7EncodeToGifBufferWorker@@6B@ 000000018005cad8     gif_worker.obj
 0002:00011b08       ??_C@_0BJ@PNOFJKPM@Unable?5to?5quantize?5image?$AA@ 000000018005cb08     gif_worker.obj
 0002:00011b28       ??_C@_0BG@MIBALFBH@Bogus?5message?5code?5?$CFd?$AA@ 000000018005cb28     jerror.obj
 0002:00011b40       ??_C@_0CA@FDMPGPNI@ALIGN_TYPE?5is?5wrong?0?5please?5fix?$AA@ 000000018005cb40     jerror.obj
 0002:00011b60       ??_C@_0CF@DENLILGA@MAX_ALLOC_CHUNK?5is?5wrong?0?5please@ 000000018005cb60     jerror.obj
 0002:00011b88       ??_C@_0BK@DKALDNKG@Bogus?5buffer?5control?5mode?$AA@ 000000018005cb88     jerror.obj
 0002:00011ba8       ??_C@_0BP@ONFLCDHG@Invalid?5component?5ID?5?$CFd?5in?5SOS?$AA@ 000000018005cba8     jerror.obj
 0002:00011bc8       ??_C@_0BF@DHNDJDFN@Invalid?5crop?5request?$AA@ 000000018005cbc8     jerror.obj
 0002:00011be0       ??_C@_0BN@OJEJKKDL@DCT?5coefficient?5out?5of?5range?$AA@ 000000018005cbe0     jerror.obj
 0002:00011c00       ??_C@_0CK@JDGFICDL@DCT?5scaled?5block?5size?5?$CFdx?$CFd?5not?5@ 000000018005cc00     jerror.obj
 0002:00011c30       ??_C@_0EA@INILHCIJ@Component?5index?5?$CFd?3?5mismatching?5@ 000000018005cc30     jerror.obj
 0002:00011c70       ??_C@_0BP@EOFJNLFD@Bogus?5Huffman?5table?5definition?$AA@ 000000018005cc70     jerror.obj
 0002:00011c90       ??_C@_0BH@BGDIGLHC@Bogus?5input?5colorspace?$AA@ 000000018005cc90     jerror.obj
 0002:00011ca8       ??_C@_0BG@NEGIHEMC@Bogus?5JPEG?5colorspace?$AA@ 000000018005cca8     jerror.obj
 0002:00011cc0       ??_C@_0BE@OGLAEMOG@Bogus?5marker?5length?$AA@ 000000018005ccc0     jerror.obj
 0002:00011cd8       ??_C@_0DN@ELFKFKL@Wrong?5JPEG?5library?5version?3?5libr@ 000000018005ccd8     jerror.obj
 0002:00011d18       ??_C@_0DA@HLEOHNPA@Sampling?5factors?5too?5large?5for?5i@ 000000018005cd18     jerror.obj
 0002:00011d48       ??_C@_0BM@OEMICEFD@Invalid?5memory?5pool?5code?5?$CFd?$AA@ 000000018005cd48     jerror.obj
 0002:00011d68       ??_C@_0CD@LDBDNLHK@Unsupported?5JPEG?5data?5precision?5@ 000000018005cd68     jerror.obj
 0002:00011d90       ??_C@_0DH@LNGGEGOL@Invalid?5progressive?5parameters?5S@ 000000018005cd90     jerror.obj
 0002:00011dc8       ??_C@_0DH@HIKEGPKP@Invalid?5progressive?5parameters?5a@ 000000018005cdc8     jerror.obj
 0002:00011e00       ??_C@_0BH@HMMHPOPE@Bogus?5sampling?5factors?$AA@ 000000018005ce00     jerror.obj
 0002:00011e18       ??_C@_0CA@MJDDICLK@Invalid?5scan?5script?5at?5entry?5?$CFd?$AA@ 000000018005ce18     jerror.obj
 0002:00011e38       ??_C@_0CK@BAMFIBMM@Improper?5call?5to?5JPEG?5library?5in@ 000000018005ce38     jerror.obj
 0002:00011e70       ??_C@_0EN@DKAEGIBH@JPEG?5parameter?5struct?5mismatch?3?5@ 000000018005ce70     jerror.obj
 0002:00011ec0       ??_C@_0BL@CBOEEPLK@Bogus?5virtual?5array?5access?$AA@ 000000018005cec0     jerror.obj
 0002:00011ee0       ??_C@_0CL@JKHIPJLJ@Buffer?5passed?5to?5JPEG?5library?5is@ 000000018005cee0     jerror.obj
 0002:00011f10       ??_C@_0BM@PKHCPJDH@Suspension?5not?5allowed?5here?$AA@ 000000018005cf10     jerror.obj
 0002:00011f30       ??_C@_0CF@LAEFHNAH@CCIR601?5sampling?5not?5implemented@ 000000018005cf30     jerror.obj
 0002:00011f58       ??_C@_0CG@BEBDNOCG@Too?5many?5color?5components?3?5?$CFd?0?5m@ 000000018005cf58     jerror.obj
 0002:00011f80       ??_C@_0CF@JDLOPNGO@Unsupported?5color?5conversion?5req@ 000000018005cf80     jerror.obj
 0002:00011fa8       ??_C@_0BD@LDBBBMFL@Bogus?5DAC?5index?5?$CFd?$AA@ 000000018005cfa8     jerror.obj
 0002:00011fc0       ??_C@_0BF@CLIOOJFM@Bogus?5DAC?5value?50x?$CFx?$AA@ 000000018005cfc0     jerror.obj
 0002:00011fd8       ??_C@_0BD@KJHFPHIC@Bogus?5DHT?5index?5?$CFd?$AA@ 000000018005cfd8     jerror.obj
 0002:00011ff0       ??_C@_0BD@DIMECAOP@Bogus?5DQT?5index?5?$CFd?$AA@ 000000018005cff0     jerror.obj
 0002:00012008       ??_C@_0CF@DAGGEAPM@Empty?5JPEG?5image?5?$CIDNL?5not?5suppor@ 000000018005d008     jerror.obj
 0002:00012030       ??_C@_0BF@CPNENPBA@Read?5from?5EMS?5failed?$AA@ 000000018005d030     jerror.obj
 0002:00012048       ??_C@_0BE@DGJBKIEB@Write?5to?5EMS?5failed?$AA@ 000000018005d048     jerror.obj
 0002:00012060       ??_C@_0CB@DMGINPNE@Didn?8t?5expect?5more?5than?5one?5scan@ 000000018005d060     jerror.obj
 0002:00012088       ??_C@_0BG@BALCKDNL@Input?5file?5read?5error?$AA@ 000000018005d088     jerror.obj
 0002:000120a0       ??_C@_0CP@IDOBLGGD@Output?5file?5write?5error?5?9?9?9?5out?5@ 000000018005d0a0     jerror.obj
 0002:000120d0       ??_C@_0CI@EKDDDHFF@Fractional?5sampling?5not?5implemen@ 000000018005d0d0     jerror.obj
 0002:000120f8       ??_C@_0CB@LLDOGNPJ@Huffman?5code?5size?5table?5overflow@ 000000018005d0f8     jerror.obj
 0002:00012120       ??_C@_0CB@LFBMFPHI@Missing?5Huffman?5code?5table?5entry@ 000000018005d120     jerror.obj
 0002:00012148       ??_C@_0CP@EKFPGPNP@Maximum?5supported?5image?5dimensio@ 000000018005d148     jerror.obj
 0002:00012178       ??_C@_0BB@JJAIKFBB@Empty?5input?5file?$AA@ 000000018005d178     jerror.obj
 0002:00012190       ??_C@_0BM@KEKMMNGA@Premature?5end?5of?5input?5file?$AA@ 000000018005d190     jerror.obj
 0002:000121b0       ??_C@_0DO@OPNPKGO@Cannot?5transcode?5due?5to?5multiple@ 000000018005d1b0     jerror.obj
 0002:000121f0       ??_C@_0CH@NIBDNILP@Scan?5script?5does?5not?5transmit?5al@ 000000018005d1f0     jerror.obj
 0002:00012218       ??_C@_0CH@EFBBPPCK@Invalid?5color?5quantization?5mode?5@ 000000018005d218     jerror.obj
 0002:00012240       ??_C@_0BE@EOAAHHJ@Not?5implemented?5yet?$AA@ 000000018005d240     jerror.obj
 0002:00012258       ??_C@_0CO@BEHINNOI@Requested?5feature?5was?5omitted?5at@ 000000018005d258     jerror.obj
 0002:00012288       ??_C@_0CI@NFDPNIK@Arithmetic?5table?50x?$CF02x?5was?5not?5@ 000000018005d288     jerror.obj
 0002:000122b0       ??_C@_0BM@HJHFKLAF@Backing?5store?5not?5supported?$AA@ 000000018005d2b0     jerror.obj
 0002:000122d0       ??_C@_0CF@BKANFCCL@Huffman?5table?50x?$CF02x?5was?5not?5def@ 000000018005d2d0     jerror.obj
 0002:000122f8       ??_C@_0CC@BKPLBDLJ@JPEG?5datastream?5contains?5no?5imag@ 000000018005d2f8     jerror.obj
 0002:00012320       ??_C@_0CK@CCHKIENB@Quantization?5table?50x?$CF02x?5was?5no@ 000000018005d320     jerror.obj
 0002:00012350       ??_C@_0CL@GNLFDFCL@Not?5a?5JPEG?5file?3?5starts?5with?50x?$CF@ 000000018005d350     jerror.obj
 0002:00012380       ??_C@_0BO@DJPLELIB@Insufficient?5memory?5?$CIcase?5?$CFd?$CJ?$AA@ 000000018005d380     jerror.obj
 0002:000123a0       ??_C@_0CO@HPDBAEEA@Cannot?5quantize?5more?5than?5?$CFd?5col@ 000000018005d3a0     jerror.obj
 0002:000123d0       ??_C@_0CI@PLMPLCNO@Cannot?5quantize?5to?5fewer?5than?5?$CFd@ 000000018005d3d0     jerror.obj
 0002:000123f8       ??_C@_0CH@NHMNHHIB@Cannot?5quantize?5to?5more?5than?5?$CFd?5@ 000000018005d3f8     jerror.obj
 0002:00012420       ??_C@_0CL@FGONDLAJ@Invalid?5JPEG?5file?5structure?3?5?$CFs?5@ 000000018005d420     jerror.obj
 0002:00012450       ??_C@_0CN@IHJJJAFJ@Invalid?5JPEG?5file?5structure?3?5two@ 000000018005d450     jerror.obj
 0002:00012480       ??_C@_0DA@GJIJGINK@Invalid?5JPEG?5file?5structure?3?5mis@ 000000018005d480     jerror.obj
 0002:000124b0       ??_C@_0CK@HMKECJK@Unsupported?5JPEG?5process?3?5SOF?5ty@ 000000018005d4b0     jerror.obj
 0002:000124e0       ??_C@_0CN@HGJCMLNE@Invalid?5JPEG?5file?5structure?3?5two@ 000000018005d4e0     jerror.obj
 0002:00012510       ??_C@_0CD@POKNOPOF@Failed?5to?5create?5temporary?5file?5@ 000000018005d510     jerror.obj
 0002:00012538       ??_C@_0BO@EEPJGHHI@Read?5failed?5on?5temporary?5file?$AA@ 000000018005d538     jerror.obj
 0002:00012558       ??_C@_0BO@GOBJOAAI@Seek?5failed?5on?5temporary?5file?$AA@ 000000018005d558     jerror.obj
 0002:00012578       ??_C@_0DG@KALDLIJB@Write?5failed?5on?5temporary?5file?5?9@ 000000018005d578     jerror.obj
 0002:000125b0       ??_C@_0CK@EPADOAKC@Application?5transferred?5too?5few?5@ 000000018005d5b0     jerror.obj
 0002:000125e0       ??_C@_0BP@BPKOBOIP@Unsupported?5marker?5type?50x?$CF02x?$AA@ 000000018005d5e0     jerror.obj
 0002:00012600       ??_C@_0CD@GCLFJCHC@Virtual?5array?5controller?5messed?5@ 000000018005d600     jerror.obj
 0002:00012628       ??_C@_0CH@LJLHCCHC@Image?5too?5wide?5for?5this?5implemen@ 000000018005d628     jerror.obj
 0002:00012650       ??_C@_0BF@EKLGFGNM@Read?5from?5XMS?5failed?$AA@ 000000018005d650     jerror.obj
 0002:00012668       ??_C@_0BE@FDPDCBIN@Write?5to?5XMS?5failed?$AA@ 000000018005d668     jerror.obj
 0002:00012680       ??_C@_0DF@GCPGGGPA@Copyright?5?$CIC?$CJ?52014?0?5Thomas?5G?4?5La@ 000000018005d680     jerror.obj
 0002:000126b8       ??_C@_0BA@FOPPLCNI@9a?5?519?9Jan?92014?$AA@ 000000018005d6b8     jerror.obj
 0002:000126c8       ??_C@_0DO@EGLODMBB@Caution?3?5quantization?5tables?5are@ 000000018005d6c8     jerror.obj
 0002:00012710       ??_C@_0EC@EHPKAOHA@Adobe?5APP14?5marker?3?5version?5?$CFd?0?5@ 000000018005d710     jerror.obj
 0002:00012758       ??_C@_0CK@HCPFFNKJ@Unknown?5APP0?5marker?5?$CInot?5JFIF?$CJ?0?5@ 000000018005d758     jerror.obj
 0002:00012788       ??_C@_0CM@CAEPHFAA@Unknown?5APP14?5marker?5?$CInot?5Adobe?$CJ@ 000000018005d788     jerror.obj
 0002:000127b8       ??_C@_0CH@KIJGKPAA@Define?5Arithmetic?5Table?50x?$CF02x?3?5@ 000000018005d7b8     jerror.obj
 0002:000127e0       ??_C@_0BM@MDIEILCE@Define?5Huffman?5Table?50x?$CF02x?$AA@ 000000018005d7e0     jerror.obj
 0002:00012800       ??_C@_0CL@KLDOJIKN@Define?5Quantization?5Table?5?$CFd?5?5pr@ 000000018005d800     jerror.obj
 0002:00012830       ??_C@_0BL@EMFIKBEK@Define?5Restart?5Interval?5?$CFu?$AA@ 000000018005d830     jerror.obj
 0002:00012850       ??_C@_0BE@IPCOOGDJ@Freed?5EMS?5handle?5?$CFu?$AA@ 000000018005d850     jerror.obj
 0002:00012868       ??_C@_0BH@GIPOLIGC@Obtained?5EMS?5handle?5?$CFu?$AA@ 000000018005d868     jerror.obj
 0002:00012880       ??_C@_0N@HJHFKELG@End?5Of?5Image?$AA@ 000000018005d880     jerror.obj
 0002:00012890       ??_C@_0CI@FKGPAJC@?5?5?5?5?5?5?5?5?$CF3d?5?$CF3d?5?$CF3d?5?$CF3d?5?$CF3d?5?$CF3d?5@ 000000018005d890     jerror.obj
 0002:000128b8       ??_C@_0DF@LOKNABIG@JFIF?5APP0?5marker?3?5version?5?$CFd?4?$CF02@ 000000018005d8b8     jerror.obj
 0002:000128f0       ??_C@_0DM@JLHNPIBE@Warning?3?5thumbnail?5image?5size?5do@ 000000018005d8f0     jerror.obj
 0002:00012930       ??_C@_0CO@KKPHGHBA@JFIF?5extension?5marker?3?5type?50x?$CF0@ 000000018005d930     jerror.obj
 0002:00012960       ??_C@_0CB@BADBMAAB@?5?5?5?5with?5?$CFd?5x?5?$CFd?5thumbnail?5image@ 000000018005d960     jerror.obj
 0002:00012988       ??_C@_0CH@EHHJCMGA@Miscellaneous?5marker?50x?$CF02x?0?5len@ 000000018005d988     jerror.obj
 0002:000129b0       ??_C@_0BJ@COPODLDN@Unexpected?5marker?50x?$CF02x?$AA@ 000000018005d9b0     jerror.obj
 0002:000129d0       ??_C@_0CI@GHPOCOCL@?5?5?5?5?5?5?5?5?$CF4u?5?$CF4u?5?$CF4u?5?$CF4u?5?$CF4u?5?$CF4u?5@ 000000018005d9d0     jerror.obj
 0002:000129f8       ??_C@_0CD@CNNAOOFA@Quantizing?5to?5?$CFd?5?$DN?5?$CFd?$CK?$CFd?$CK?$CFd?5colo@ 000000018005d9f8     jerror.obj
 0002:00012a20       ??_C@_0BI@NEIBNACE@Quantizing?5to?5?$CFd?5colors?$AA@ 000000018005da20     jerror.obj
 0002:00012a38       ??_C@_0CE@FDPBEAOO@Selected?5?$CFd?5colors?5for?5quantizat@ 000000018005da38     jerror.obj
 0002:00012a60       ??_C@_0CF@NIMOLBCP@At?5marker?50x?$CF02x?0?5recovery?5actio@ 000000018005da60     jerror.obj
 0002:00012a88       ??_C@_05LLAPAOG@RST?$CFd?$AA@ 000000018005da88     jerror.obj
 0002:00012a90       ??_C@_0DJ@PCBCLFML@Smoothing?5not?5supported?5with?5non@ 000000018005da90     jerror.obj
 0002:00012ad0       ??_C@_0DK@DMINKOGN@Start?5Of?5Frame?50x?$CF02x?3?5width?$DN?$CFu?0@ 000000018005dad0     jerror.obj
 0002:00012b10       ??_C@_0BP@EDCAMHHE@?5?5?5?5Component?5?$CFd?3?5?$CFdhx?$CFdv?5q?$DN?$CFd?$AA@ 000000018005db10     jerror.obj
 0002:00012b30       ??_C@_0P@JLCHJELA@Start?5of?5Image?$AA@ 000000018005db30     jerror.obj
 0002:00012b40       ??_C@_0BN@BLOOHNC@Start?5Of?5Scan?3?5?$CFd?5components?$AA@ 000000018005db40     jerror.obj
 0002:00012b60       ??_C@_0BO@CDEKFGLC@?5?5?5?5Component?5?$CFd?3?5dc?$DN?$CFd?5ac?$DN?$CFd?$AA@ 000000018005db60     jerror.obj
 0002:00012b80       ??_C@_0BN@GAMIJLDC@?5?5Ss?$DN?$CFd?0?5Se?$DN?$CFd?0?5Ah?$DN?$CFd?0?5Al?$DN?$CFd?$AA@ 000000018005db80     jerror.obj
 0002:00012ba0       ??_C@_0BJ@KDCGAOJB@Closed?5temporary?5file?5?$CFs?$AA@ 000000018005dba0     jerror.obj
 0002:00012bc0       ??_C@_0BJ@GOCABEP@Opened?5temporary?5file?5?$CFs?$AA@ 000000018005dbc0     jerror.obj
 0002:00012be0       ??_C@_0EC@ELDEPOJP@JFIF?5extension?5marker?3?5JPEG?9comp@ 000000018005dbe0     jerror.obj
 0002:00012c28       ??_C@_0DK@JGAPDCJL@JFIF?5extension?5marker?3?5palette?5t@ 000000018005dc28     jerror.obj
 0002:00012c68       ??_C@_0DG@FCFDGNHE@JFIF?5extension?5marker?3?5RGB?5thumb@ 000000018005dc68     jerror.obj
 0002:00012ca0       ??_C@_0DE@EEJCDLOO@Unrecognized?5component?5IDs?5?$CFd?5?$CFd@ 000000018005dca0     jerror.obj
 0002:00012cd8       ??_C@_0BE@FOGGKKAO@Freed?5XMS?5handle?5?$CFu?$AA@ 000000018005dcd8     jerror.obj
 0002:00012cf0       ??_C@_0BH@LJLGPEFF@Obtained?5XMS?5handle?5?$CFu?$AA@ 000000018005dcf0     jerror.obj
 0002:00012d08       ??_C@_0CG@KEGHCDOM@Unknown?5Adobe?5color?5transform?5co@ 000000018005dd08     jerror.obj
 0002:00012d30       ??_C@_0CH@LMKBDJBK@Corrupt?5JPEG?5data?3?5bad?5arithmeti@ 000000018005dd30     jerror.obj
 0002:00012d60       ??_C@_0EC@CBCJOINE@Inconsistent?5progression?5sequenc@ 000000018005dd60     jerror.obj
 0002:00012da8       ??_C@_0DM@PCOGCKJB@Corrupt?5JPEG?5data?3?5?$CFu?5extraneous@ 000000018005dda8     jerror.obj
 0002:00012de8       ??_C@_0DB@PGMEPGHN@Corrupt?5JPEG?5data?3?5premature?5end@ 000000018005dde8     jerror.obj
 0002:00012e20       ??_C@_0CE@PBLDOPKB@Corrupt?5JPEG?5data?3?5bad?5Huffman?5c@ 000000018005de20     jerror.obj
 0002:00012e48       ??_C@_0CO@ODCCEDLN@Warning?3?5unknown?5JFIF?5revision?5n@ 000000018005de48     jerror.obj
 0002:00012e78       ??_C@_0BL@DPFPFMLM@Premature?5end?5of?5JPEG?5file?$AA@ 000000018005de78     jerror.obj
 0002:00012e98       ??_C@_0DI@NFMBADOH@Corrupt?5JPEG?5data?3?5found?5marker?5@ 000000018005de98     jerror.obj
 0002:00012ed0       ??_C@_0CL@BAKCGOKJ@Invalid?5SOS?5parameters?5for?5seque@ 000000018005ded0     jerror.obj
 0002:00012f00       ??_C@_0CL@OCGBAKPF@Application?5transferred?5too?5many@ 000000018005df00     jerror.obj
 0002:00012f2c       ??_C@_03OFAPEBGM@?$CFs?6?$AA@ 000000018005df2c     jerror.obj
 0002:00012f30       ??_C@_07OOOLPGAB@JPEGMEM?$AA@ 000000018005df30     jmemmgr.obj
 0002:00012f38       ??_C@_05IBIMIMKO@?$CFld?$CFc?$AA@ 000000018005df38     jmemmgr.obj
 0002:00012f40       ??_C@_0CD@PGGPKBFM@Potential?5overflow?5in?5png_zalloc@ 000000018005df40     png.obj
 0002:00012f70       ??_C@_0BP@LLMNPADO@Application?5built?5with?5libpng?9?$AA@ 000000018005df70     png.obj
 0002:00012f90       ??_C@_0BD@IECHPOPJ@?5but?5running?5with?5?$AA@ 000000018005df90     png.obj
 0002:00012fa8       ??_C@_0CK@NLJEIHPL@Unknown?5freer?5parameter?5in?5png_d@ 000000018005dfa8     png.obj
 0002:00012fd4       ??_C@_06GKGCHPKM@?5?$CL0000?$AA@ 000000018005dfd4     png.obj
 0002:00012fe0       ??_C@_0BM@FGHKPJNF@Ignoring?5invalid?5time?5value?$AA@ 000000018005dfe0     png.obj
 0002:00013000       ??_C@_0ME@CEMKBGJD@libpng?5version?51?46?418?5?9?5July?523?0@ 000000018005e000     png.obj
 0002:000130c8       ??_C@_0CI@EOOCLOOB@?5libpng?5version?51?46?418?5?9?5July?523@ 000000018005e0c8     png.obj
 0002:000130f0       ??_C@_0BM@FGGHCFBF@unexpected?5zlib?5return?5code?$AA@ 000000018005e0f0     png.obj
 0002:00013110       ??_C@_0BM@DCGHBGGB@unexpected?5end?5of?5LZ?5stream?$AA@ 000000018005e110     png.obj
 0002:00013130       ??_C@_0BG@MPHEFODE@missing?5LZ?5dictionary?$AA@ 000000018005e130     png.obj
 0002:00013148       ??_C@_0O@HJOFHIEK@zlib?5IO?5error?$AA@ 000000018005e148     png.obj
 0002:00013158       ??_C@_0BH@MLOBAKCG@bad?5parameters?5to?5zlib?$AA@ 000000018005e158     png.obj
 0002:00013170       ??_C@_0BC@NNBNLNOK@damaged?5LZ?5stream?$AA@ 000000018005e170     png.obj
 0002:00013188       ??_C@_0BE@OGGJBMCE@insufficient?5memory?$AA@ 000000018005e188     png.obj
 0002:000131a0       ??_C@_09IDFJECNO@truncated?$AA@ 000000018005e1a0     png.obj
 0002:000131b0       ??_C@_0BJ@EHGGFMEH@unsupported?5zlib?5version?$AA@ 000000018005e1b0     png.obj
 0002:000131d0       ??_C@_0BH@MPOINNNJ@unexpected?5zlib?5return?$AA@ 000000018005e1d0     png.obj
 0002:000131e8       ??_C@_0CA@CLCNGBEC@gamma?5value?5does?5not?5match?5sRGB?$AA@ 000000018005e1e8     png.obj
 0002:00013208       ??_C@_0CL@GOLDHPHF@gamma?5value?5does?5not?5match?5libpn@ 000000018005e208     png.obj
 0002:00013238       ??_C@_0BJ@PAAJEMGL@gamma?5value?5out?5of?5range?$AA@ 000000018005e238     png.obj
 0002:00013258       ??_C@_0BH@LBOFIDPO@invalid?5chromaticities?$AA@ 000000018005e258     png.obj
 0002:00013270       ??_C@_0CH@BBPMHCN@internal?5error?5checking?5chromati@ 000000018005e270     png.obj
 0002:00013298       ??_C@_0BD@NCODNHMN@invalid?5end?5points?$AA@ 000000018005e298     png.obj
 0002:000132b0       ??_C@_09EIINAFOA@profile?5?8?$AA@ 000000018005e2b0     png.obj
 0002:000132bc       ??_C@_03FPCGPDIA@?8?3?5?$AA@ 000000018005e2bc     png.obj
 0002:000132c0       ??_C@_03JMFBLLOL@h?3?5?$AA@ 000000018005e2c0     png.obj
 0002:000132d0       ??_C@_0BO@IGFOGDFM@invalid?5sRGB?5rendering?5intent?$AA@ 000000018005e2d0     png.obj
 0002:000132f0       ??_C@_04FBDBODBG@sRGB?$AA@ 000000018005e2f0     png.obj
 0002:00013300       ??_C@_0BP@PJLHGALD@inconsistent?5rendering?5intents?$AA@ 000000018005e300     png.obj
 0002:00013320       ??_C@_0CD@CDNBECKE@duplicate?5sRGB?5information?5ignor@ 000000018005e320     png.obj
 0002:00013348       ??_C@_0BP@NCEJAGKE@cHRM?5chunk?5does?5not?5match?5sRGB?$AA@ 000000018005e348     png.obj
 0002:00013368       ??_C@_09PNOMNDOP@too?5short?$AA@ 000000018005e368     png.obj
 0002:00013380       ??_C@_0BO@EOFNLIJI@length?5does?5not?5match?5profile?$AA@ 000000018005e380     png.obj
 0002:000133a0       ??_C@_0P@BHAFPBHF@invalid?5length?$AA@ 000000018005e3a0     png.obj
 0002:000133b0       ??_C@_0BE@CNFFOELI@tag?5count?5too?5large?$AA@ 000000018005e3b0     png.obj
 0002:000133d0       ??_C@_0BJ@NOHNGFGM@invalid?5rendering?5intent?$AA@ 000000018005e3d0     png.obj
 0002:000133f0       ??_C@_0BN@BMHOENEG@intent?5outside?5defined?5range?$AA@ 000000018005e3f0     png.obj
 0002:00013410       ??_C@_0BC@HAKEGDIP@invalid?5signature?$AA@ 000000018005e410     png.obj
 0002:00013430       ??_C@_0BK@MEJNAFGD@PCS?5illuminant?5is?5not?5D50?$AA@ 000000018005e430     png.obj
 0002:00013450       ??_C@_0CP@GHPMDODC@RGB?5color?5space?5not?5permitted?5on@ 000000018005e450     png.obj
 0002:00013480       ??_C@_0CK@CEMFCLCA@Gray?5color?5space?5not?5permitted?5o@ 000000018005e480     png.obj
 0002:000134b0       ??_C@_0CA@HOHKIILJ@invalid?5ICC?5profile?5color?5space?$AA@ 000000018005e4b0     png.obj
 0002:000134d0       ??_C@_0CG@INEPEFFI@invalid?5embedded?5Abstract?5ICC?5pr@ 000000018005e4d0     png.obj
 0002:00013500       ??_C@_0CI@NFBGKLIH@unexpected?5DeviceLink?5ICC?5profil@ 000000018005e500     png.obj
 0002:00013530       ??_C@_0CI@NDFPJEMP@unexpected?5NamedColor?5ICC?5profil@ 000000018005e530     png.obj
 0002:00013560       ??_C@_0BP@DOFHBNBO@unrecognized?5ICC?5profile?5class?$AA@ 000000018005e560     png.obj
 0002:00013580       ??_C@_0BM@BPHIMDPD@unexpected?5ICC?5PCS?5encoding?$AA@ 000000018005e580     png.obj
 0002:000135a0       ??_C@_0CK@FLMCLBG@ICC?5profile?5tag?5start?5not?5a?5mult@ 000000018005e5a0     png.obj
 0002:000135d0       ??_C@_0CA@NKEPDGAJ@ICC?5profile?5tag?5outside?5profile?$AA@ 000000018005e5d0     png.obj
 0002:000135f0       ??_C@_0BN@NGLMALGM@known?5incorrect?5sRGB?5profile?$AA@ 000000018005e5f0     png.obj
 0002:00013610       ??_C@_0CL@KMCEELKM@out?9of?9date?5sRGB?5profile?5with?5no@ 000000018005e610     png.obj
 0002:00013640       ??_C@_0DI@OPGPJMBN@Not?5recognizing?5known?5sRGB?5profi@ 000000018005e640     png.obj
 0002:00013678       ??_C@_0BM@CEAELHL@Image?5width?5is?5zero?5in?5IHDR?$AA@ 000000018005e678     png.obj
 0002:00013698       ??_C@_0BM@KHHGCJLE@Invalid?5image?5width?5in?5IHDR?$AA@ 000000018005e698     png.obj
 0002:000136b8       ??_C@_0CP@HOJKPAHE@Image?5width?5is?5too?5large?5for?5thi@ 000000018005e6b8     png.obj
 0002:000136e8       ??_C@_0CH@COHNFPDF@Image?5width?5exceeds?5user?5limit?5i@ 000000018005e6e8     png.obj
 0002:00013710       ??_C@_0BN@CMEOFBLN@Image?5height?5is?5zero?5in?5IHDR?$AA@ 000000018005e710     png.obj
 0002:00013730       ??_C@_0BN@NOEKCPOM@Invalid?5image?5height?5in?5IHDR?$AA@ 000000018005e730     png.obj
 0002:00013750       ??_C@_0CI@HDNDADNB@Image?5height?5exceeds?5user?5limit?5@ 000000018005e750     png.obj
 0002:00013778       ??_C@_0BK@OAKOLNFJ@Invalid?5bit?5depth?5in?5IHDR?$AA@ 000000018005e778     png.obj
 0002:00013798       ??_C@_0BL@KPIFPGMP@Invalid?5color?5type?5in?5IHDR?$AA@ 000000018005e798     png.obj
 0002:000137b8       ??_C@_0DB@FGMBGHOJ@Invalid?5color?5type?1bit?5depth?5com@ 000000018005e7b8     png.obj
 0002:000137f0       ??_C@_0CB@EMHJMLOA@Unknown?5interlace?5method?5in?5IHDR@ 000000018005e7f0     png.obj
 0002:00013818       ??_C@_0CD@DDOOCEDP@Unknown?5compression?5method?5in?5IH@ 000000018005e818     png.obj
 0002:00013840       ??_C@_0DB@CJBLKABO@MNG?5features?5are?5not?5allowed?5in?5@ 000000018005e840     png.obj
 0002:00013878       ??_C@_0BO@KOOEGEDO@Unknown?5filter?5method?5in?5IHDR?$AA@ 000000018005e878     png.obj
 0002:00013898       ??_C@_0BO@PAJOKPHG@Invalid?5filter?5method?5in?5IHDR?$AA@ 000000018005e898     png.obj
 0002:000138b8       ??_C@_0BC@MEPNMCAI@Invalid?5IHDR?5data?$AA@ 000000018005e8b8     png.obj
 0002:000138d0       ??_C@_0CC@CGOHABGI@ASCII?5conversion?5buffer?5too?5smal@ 000000018005e8d0     png.obj
 0002:000138f8       ??_C@_0BN@JAKEKIAL@fixed?5point?5overflow?5ignored?$AA@ 000000018005e8f8     png.obj
 0002:00013918       ??_C@_0BO@JDLPLHM@simplified?5read?5not?5supported?$AA@ 000000018005e918     png.obj
 0002:00013938       ??_C@_0M@BOHLMMLD@cHRM?5Blue?5Y?$AA@ 000000018005e938     pngset.obj
 0002:00013948       ??_C@_0M@HGAPNPC@cHRM?5Blue?5X?$AA@ 000000018005e948     pngset.obj
 0002:00013958       ??_C@_0N@GFDDOIFK@cHRM?5Green?5Y?$AA@ 000000018005e958     pngset.obj
 0002:00013968       ??_C@_0N@HMCINJBL@cHRM?5Green?5X?$AA@ 000000018005e968     pngset.obj
 0002:00013978       ??_C@_0L@GEGOPEG@cHRM?5Red?5Y?$AA@ 000000018005e978     pngset.obj
 0002:00013988       ??_C@_0L@BPFNNOAH@cHRM?5Red?5X?$AA@ 000000018005e988     pngset.obj
 0002:00013998       ??_C@_0N@CHGFODLJ@cHRM?5White?5Y?$AA@ 000000018005e998     pngset.obj
 0002:000139a8       ??_C@_0N@DOHONCPI@cHRM?5White?5X?$AA@ 000000018005e9a8     pngset.obj
 0002:000139b8       ??_C@_0L@CNGLLMIF@cHRM?5Red?5Z?$AA@ 000000018005e9b8     pngset.obj
 0002:000139c8       ??_C@_0N@JHKMMPJG@png_set_gAMA?$AA@ 000000018005e9c8     pngset.obj
 0002:000139d8       ??_C@_0CO@CLNKJNCD@Invalid?5palette?5size?0?5hIST?5alloc@ 000000018005e9d8     pngset.obj
 0002:00013a08       ??_C@_0CI@FEJILDIH@Insufficient?5memory?5for?5hIST?5chu@ 000000018005ea08     pngset.obj
 0002:00013a30       ??_C@_0BL@BGONKFBB@Invalid?5pCAL?5equation?5type?$AA@ 000000018005ea30     pngset.obj
 0002:00013a50       ??_C@_0BN@FHGDAAAD@Invalid?5pCAL?5parameter?5count?$AA@ 000000018005ea50     pngset.obj
 0002:00013a70       ??_C@_0CC@LPAJHANK@Invalid?5format?5for?5pCAL?5paramete@ 000000018005ea70     pngset.obj
 0002:00013a98       ??_C@_0CF@CKIMKPAH@Insufficient?5memory?5for?5pCAL?5pur@ 000000018005ea98     pngset.obj
 0002:00013ac0       ??_C@_0CD@PAPNLFE@Insufficient?5memory?5for?5pCAL?5uni@ 000000018005eac0     pngset.obj
 0002:00013ae8       ??_C@_0CE@KNDKKCDF@Insufficient?5memory?5for?5pCAL?5par@ 000000018005eae8     pngset.obj
 0002:00013b10       ??_C@_0CH@CAHFGHFJ@Insufficient?5memory?5for?5pCAL?5par@ 000000018005eb10     pngset.obj
 0002:00013b38       ??_C@_0BC@GANANPIA@Invalid?5sCAL?5unit?$AA@ 000000018005eb38     pngset.obj
 0002:00013b50       ??_C@_0BD@ENHOBHJG@Invalid?5sCAL?5width?$AA@ 000000018005eb50     pngset.obj
 0002:00013b68       ??_C@_0BE@OBKOEAI@Invalid?5sCAL?5height?$AA@ 000000018005eb68     pngset.obj
 0002:00013b80       ??_C@_0CP@EHHAKMDE@Memory?5allocation?5failed?5while?5p@ 000000018005eb80     pngset.obj
 0002:00013bb0       ??_C@_0BL@HOLOOFOO@Invalid?5sCAL?5width?5ignored?$AA@ 000000018005ebb0     pngset.obj
 0002:00013bd0       ??_C@_0BM@JNBEAMLM@Invalid?5sCAL?5height?5ignored?$AA@ 000000018005ebd0     pngset.obj
 0002:00013bf0       ??_C@_0BH@IKBNLCFC@Invalid?5palette?5length?$AA@ 000000018005ebf0     pngset.obj
 0002:00013c08       ??_C@_0BA@NCKCMMNF@Invalid?5palette?$AA@ 000000018005ec08     pngset.obj
 0002:00013c18       ??_C@_0CA@HHPCDBHO@Invalid?5iCCP?5compression?5method?$AA@ 000000018005ec18     pngset.obj
 0002:00013c38       ??_C@_0CK@MANBEKHI@Insufficient?5memory?5to?5process?5i@ 000000018005ec38     pngset.obj
 0002:00013c68       ??_C@_0CM@CBAGGBPI@Insufficient?5memory?5to?5process?5i@ 000000018005ec68     pngset.obj
 0002:00013c98       ??_C@_0CC@LLCCFJFC@Insufficient?5memory?5to?5store?5tex@ 000000018005ec98     pngset.obj
 0002:00013cc0       ??_C@_0BF@EPLDENLO@too?5many?5text?5chunks?$AA@ 000000018005ecc0     pngset.obj
 0002:00013cd8       ??_C@_0CG@KOBFBGAM@text?5compression?5mode?5is?5out?5of?5@ 000000018005ecd8     pngset.obj
 0002:00013d00       ??_C@_0BK@FPMAJGNB@text?5chunk?3?5out?5of?5memory?$AA@ 000000018005ed00     pngset.obj
 0002:00013d20       ??_C@_0DC@BAKLMMNF@tRNS?5chunk?5has?5out?9of?9range?5samp@ 000000018005ed20     pngset.obj
 0002:00013d58       ??_C@_0BF@IBPPODIO@too?5many?5sPLT?5chunks?$AA@ 000000018005ed58     pngset.obj
 0002:00013d70       ??_C@_0BL@FDLCPBMN@png_set_sPLT?3?5invalid?5sPLT?$AA@ 000000018005ed70     pngset.obj
 0002:00013d90       ??_C@_0BD@FCEBHNK@sPLT?5out?5of?5memory?$AA@ 000000018005ed90     pngset.obj
 0002:00013da8       ??_C@_0DE@GDJFMIAK@png_set_unknown_chunks?5now?5expec@ 000000018005eda8     pngset.obj
 0002:00013de0       ??_C@_0CL@HCECGJBJ@invalid?5location?5in?5png_set_unkn@ 000000018005ede0     pngset.obj
 0002:00013e10       ??_C@_0BI@DHBNAPDO@too?5many?5unknown?5chunks?$AA@ 000000018005ee10     pngset.obj
 0002:00013e28       ??_C@_0BN@IMBDGIBC@unknown?5chunk?3?5out?5of?5memory?$AA@ 000000018005ee28     pngset.obj
 0002:00013e48       ??_C@_0BP@LMHHLBLJ@invalid?5unknown?5chunk?5location?$AA@ 000000018005ee48     pngset.obj
 0002:00013e68       ??_C@_0CK@GPJPIGHK@png_set_keep_unknown_chunks?3?5inv@ 000000018005ee68     pngset.obj
 0002:00013e98       ??_C@_0CL@HMFBDLFF@png_set_keep_unknown_chunks?3?5no?5@ 000000018005ee98     pngset.obj
 0002:00013ec8       ??_C@_0CN@LKODEDPJ@png_set_keep_unknown_chunks?3?5too@ 000000018005eec8     pngset.obj
 0002:00013ef8       ??_C@_0CA@NMFAJIDM@invalid?5compression?5buffer?5size?$AA@ 000000018005eef8     pngset.obj
 0002:00013f18       ??_C@_0DP@PIBLJBDL@Compression?5buffer?5size?5cannot?5b@ 000000018005ef18     pngset.obj
 0002:00013f58       ??_C@_0DC@KCMCGJEI@Compression?5buffer?5size?5limited?5@ 000000018005ef58     pngset.obj
 0002:00013f90       ??_C@_0DC@CCEHJGJK@Compression?5buffer?5size?5cannot?5b@ 000000018005ef90     pngset.obj
 0002:00013fc8       ??_C@_0L@DGMOFGAK@sCAL?5width?$AA@ 000000018005efc8     pngget.obj
 0002:00013fd8       ??_C@_0M@PHNIILCG@sCAL?5height?$AA@ 000000018005efd8     pngget.obj
 0002:00013fe8       ??_C@_0CF@FJHFAANP@png_set_filler?5not?5supported?5on?5@ 000000018005efe8     pngtrans.obj
 0002:00014010       ??_C@_0DI@HJFBOCDP@png_set_filler?5is?5invalid?5for?5lo@ 000000018005f010     pngtrans.obj
 0002:00014048       ??_C@_0CJ@ICFACDLO@png_set_filler?3?5inappropriate?5co@ 000000018005f048     pngtrans.obj
 0002:00014078       ??_C@_0BM@JALLIJNF@internal?5error?3?5array?5alloc?$AA@ 000000018005f078     pngmem.obj
 0002:00014098       ??_C@_0BO@KBIBCEFP@internal?5error?3?5array?5realloc?$AA@ 000000018005f098     pngmem.obj
 0002:000140b8       ??_C@_0O@BPALFKAJ@Out?5of?5Memory?$AA@ 000000018005f0b8     pngmem.obj
 0002:000140c8       ??_C@_0BJ@BIPJEANG@fixed?5point?5overflow?5in?5?$AA@ 000000018005f0c8     pngerror.obj
 0002:000140e8       ??_C@_0BP@OGHIMAJC@Libpng?5jmp_buf?5still?5allocated?$AA@ 000000018005f0e8     pngerror.obj
 0002:00014108       ??_C@_0CB@MNPMICGC@Application?5jmp_buf?5size?5changed@ 000000018005f108     pngerror.obj
 0002:00014130       ??_C@_0O@OBKBAHBG@bad?5longjmp?3?5?$AA@ 000000018005f130     pngerror.obj
 0002:00014140       ??_C@_0CC@MDLFHCPJ@Writing?5zero?9length?5unknown?5chun@ 000000018005f140     pngwrite.obj
 0002:00014168       ??_C@_0CO@EFONKKHE@profile?5matches?5sRGB?5but?5writing@ 000000018005f168     pngwrite.obj
 0002:00014198       ??_C@_0CL@BBINJHDH@Valid?5palette?5required?5for?5palet@ 000000018005f198     pngwrite.obj
 0002:000141c8       ??_C@_0BL@LMBFPIMK@No?5IDATs?5written?5into?5file?$AA@ 000000018005f1c8     pngwrite.obj
 0002:000141e8       ??_C@_0CK@IDMGDACI@Wrote?5palette?5index?5exceeding?5nu@ 000000018005f1e8     pngwrite.obj
 0002:00014218       ??_C@_0DF@HCKCLABC@png_write_info?5was?5never?5called?5@ 000000018005f218     pngwrite.obj
 0002:00014250       ??_C@_0CF@LGBPMINO@internal?5write?5transform?5logic?5e@ 000000018005f250     pngwrite.obj
 0002:00014278       ??_C@_0CA@EENAMDIO@Unknown?5row?5filter?5for?5method?50?$AA@ 000000018005f278     pngwrite.obj
 0002:00014298       ??_C@_0DJ@KOBMPKOG@png_set_filter?3?5UP?1AVG?1PAETH?5can@ 000000018005f298     pngwrite.obj
 0002:000142d8       ??_C@_0BN@FEBFJLIP@Unknown?5custom?5filter?5method?$AA@ 000000018005f2d8     pngwrite.obj
 0002:000142f8       ??_C@_0DB@JHPDBBJC@Only?5compression?5windows?5?$DM?$DN?532k?5@ 000000018005f2f8     pngwrite.obj
 0002:00014330       ??_C@_0DB@FJDHLPIN@Only?5compression?5windows?5?$DO?$DN?5256?5@ 000000018005f330     pngwrite.obj
 0002:00014368       ??_C@_0CO@BHFFHNIH@Only?5compression?5method?58?5is?5sup@ 000000018005f368     pngwrite.obj
 0002:00014398       ??_C@_0CF@BOPBPFII@no?5rows?5for?5png_write_image?5to?5w@ 000000018005f398     pngwrite.obj
 0002:000143c0       ??_C@_0DH@DDBNIDDC@PNG_TRANSFORM_STRIP_FILLER?3?5BEFO@ 000000018005f3c0     pngwrite.obj
 0002:000143f8       ??_C@_0CA@JHMDJGBI@png_image_write_?3?5out?5of?5memory?$AA@ 000000018005f3f8     pngwrite.obj
 0002:00014418       ??_C@_0CF@MDMKPFDG@png_write_image?3?5internal?5call?5e@ 000000018005f418     pngwrite.obj
 0002:00014440       ??_C@_0CE@COEMFNFC@no?5color?9map?5for?5color?9mapped?5im@ 000000018005f440     pngwrite.obj
 0002:00014468       ??_C@_0CM@LFLHAOME@png_write_image?3?5unsupported?5tra@ 000000018005f468     pngwrite.obj
 0002:00014498       ??_C@_0CL@PNJPFJEO@png_image_write_to_stdio?3?5invali@ 000000018005f498     pngwrite.obj
 0002:000144c8       ??_C@_0DG@DENGKEBB@png_image_write_to_stdio?3?5incorr@ 000000018005f4c8     pngwrite.obj
 0002:00014500       ??_C@_0CK@GCCENBEP@png_image_write_to_file?3?5invalid@ 000000018005f500     pngwrite.obj
 0002:00014530       ??_C@_0DF@DMBLMKDJ@png_image_write_to_file?3?5incorre@ 000000018005f530     pngwrite.obj
 0002:00014568       ??_C@_0BL@FIFGACAA@length?5exceeds?5PNG?5maximum?$AA@ 000000018005f568     pngwutil.obj
 0002:00014588       ??_C@_0P@KJIHHBLD@?5using?5zstream?$AA@ 000000018005f588     pngwutil.obj
 0002:00014598       ??_C@_0P@IEMGANLE@in?5use?5by?5IDAT?$AA@ 000000018005f598     pngwutil.obj
 0002:000145a8       ??_C@_0BM@OCCEEGNK@deflateEnd?5failed?5?$CIignored?$CJ?$AA@ 000000018005f5a8     pngwutil.obj
 0002:000145c8       ??_C@_0BJ@IAKKIGHC@compressed?5data?5too?5long?$AA@ 000000018005f5c8     pngwutil.obj
 0002:000145e8       ??_C@_0DA@PBMGOJBC@error?5writing?5ancillary?5chunked?5@ 000000018005f5e8     pngwutil.obj
 0002:00014618       ??_C@_0BC@KIPGKHJI@keyword?5truncated?$AA@ 000000018005f618     pngwutil.obj
 0002:00014630       ??_C@_0CD@ECFBBIHG@keyword?5?$CC?$EA1?$CC?3?5bad?5character?5?80x?$EA@ 000000018005f630     pngwutil.obj
 0002:00014658       ??_C@_0CG@NMBHOEGJ@Invalid?5bit?5depth?5for?5grayscale?5@ 000000018005f658     pngwutil.obj
 0002:00014680       ??_C@_0CA@JFINDAEN@Invalid?5bit?5depth?5for?5RGB?5image?$AA@ 000000018005f680     pngwutil.obj
 0002:000146a0       ??_C@_0CF@KCHGLJIB@Invalid?5bit?5depth?5for?5paletted?5i@ 000000018005f6a0     pngwutil.obj
 0002:000146c8       ??_C@_0CM@FPEKKHEM@Invalid?5bit?5depth?5for?5grayscale?$CL@ 000000018005f6c8     pngwutil.obj
 0002:000146f8       ??_C@_0CB@KFCOJLNF@Invalid?5bit?5depth?5for?5RGBA?5image@ 000000018005f6f8     pngwutil.obj
 0002:00014720       ??_C@_0CD@BMDFBAM@Invalid?5image?5color?5type?5specifi@ 000000018005f720     pngwutil.obj
 0002:00014748       ??_C@_0CD@KAANFJDM@Invalid?5compression?5type?5specifi@ 000000018005f748     pngwutil.obj
 0002:00014770       ??_C@_0BO@NHOMDFKG@Invalid?5filter?5type?5specified?$AA@ 000000018005f770     pngwutil.obj
 0002:00014790       ??_C@_0CB@INFMBLLB@Invalid?5interlace?5type?5specified@ 000000018005f790     pngwutil.obj
 0002:000147b8       ??_C@_0CE@HMOECEJ@Invalid?5number?5of?5colors?5in?5pale@ 000000018005f7b8     pngwutil.obj
 0002:000147e0       ??_C@_0DI@EOMIECBC@Ignoring?5request?5to?5write?5a?5PLTE@ 000000018005f7e0     pngwutil.obj
 0002:00014818       ??_C@_0CD@BPNHOCCE@Z_OK?5on?5Z_FINISH?5with?5output?5spa@ 000000018005f818     pngwutil.obj
 0002:00014840       ??_C@_0CI@CGCNKNIG@Invalid?5sRGB?5rendering?5intent?5sp@ 000000018005f840     pngwutil.obj
 0002:00014868       ??_C@_0BK@JEAONDOG@No?5profile?5for?5iCCP?5chunk?$AA@ 000000018005f868     pngwutil.obj
 0002:00014888       ??_C@_0BG@MPGAAJPH@ICC?5profile?5too?5short?$AA@ 000000018005f888     pngwutil.obj
 0002:000148a0       ??_C@_0DB@CAJKDDJN@ICC?5profile?5length?5invalid?5?$CInot?5@ 000000018005f8a0     pngwutil.obj
 0002:000148d8       ??_C@_0BG@GPLJJLKB@iCCP?3?5invalid?5keyword?$AA@ 000000018005f8d8     pngwutil.obj
 0002:000148f0       ??_C@_0BG@PEFANDKM@sPLT?3?5invalid?5keyword?$AA@ 000000018005f8f0     pngwutil.obj
 0002:00014908       ??_C@_0BN@EBBMENIF@Invalid?5sBIT?5depth?5specified?$AA@ 000000018005f908     pngwutil.obj
 0002:00014928       ??_C@_0CP@PFJBFCBG@Invalid?5number?5of?5transparent?5co@ 000000018005f928     pngwutil.obj
 0002:00014960       ??_C@_0EA@GMIFOPEM@Ignoring?5attempt?5to?5write?5tRNS?5c@ 000000018005f960     pngwutil.obj
 0002:000149a0       ??_C@_0EA@JIMPJFKJ@Ignoring?5attempt?5to?5write?516?9bit@ 000000018005f9a0     pngwutil.obj
 0002:000149e0       ??_C@_0CH@JCFDIEK@Can?8t?5write?5tRNS?5with?5an?5alpha?5c@ 000000018005f9e0     pngwutil.obj
 0002:00014a08       ??_C@_0CB@BIGCBPLL@Invalid?5background?5palette?5index@ 000000018005fa08     pngwutil.obj
 0002:00014a30       ??_C@_0EA@PGJGJFFB@Ignoring?5attempt?5to?5write?516?9bit@ 000000018005fa30     pngwutil.obj
 0002:00014a70       ??_C@_0EA@NFOOLGHI@Ignoring?5attempt?5to?5write?5bKGD?5c@ 000000018005fa70     pngwutil.obj
 0002:00014ab0       ??_C@_0CO@KLGKHOE@Invalid?5number?5of?5histogram?5entr@ 000000018005fab0     pngwutil.obj
 0002:00014ae0       ??_C@_0BG@NPOBEOEN@tEXt?3?5invalid?5keyword?$AA@ 000000018005fae0     pngwutil.obj
 0002:00014af8       ??_C@_0BE@FBHBOAAH@tEXt?3?5text?5too?5long?$AA@ 000000018005faf8     pngwutil.obj
 0002:00014b10       ??_C@_0BP@JDMOLNCF@zTXt?3?5invalid?5compression?5type?$AA@ 000000018005fb10     pngwutil.obj
 0002:00014b30       ??_C@_0BG@MAGNKDLP@zTXt?3?5invalid?5keyword?$AA@ 000000018005fb30     pngwutil.obj
 0002:00014b48       ??_C@_0BG@FAOCEELO@iTXt?3?5invalid?5keyword?$AA@ 000000018005fb48     pngwutil.obj
 0002:00014b60       ??_C@_0BK@DICHOCDF@iTXt?3?5invalid?5compression?$AA@ 000000018005fb60     pngwutil.obj
 0002:00014b80       ??_C@_0CB@BLFBJFOA@iTXt?3?5uncompressed?5text?5too?5long@ 000000018005fb80     pngwutil.obj
 0002:00014ba8       ??_C@_0CG@LALPJLHA@Unrecognized?5unit?5type?5for?5oFFs?5@ 000000018005fba8     pngwutil.obj
 0002:00014bd0       ??_C@_0CK@GBCGFDCK@Unrecognized?5equation?5type?5for?5p@ 000000018005fbd0     pngwutil.obj
 0002:00014c00       ??_C@_0BG@FBGAMOMB@pCAL?3?5invalid?5keyword?$AA@ 000000018005fc00     pngwutil.obj
 0002:00014c18       ??_C@_0CE@GHBDGPIG@Can?8t?5write?5sCAL?5?$CIbuffer?5too?5sma@ 000000018005fc18     pngwutil.obj
 0002:00014c40       ??_C@_0CG@OAABBGGO@Unrecognized?5unit?5type?5for?5pHYs?5@ 000000018005fc40     pngwutil.obj
 0002:00014c68       ??_C@_0CG@IADLICLG@Invalid?5time?5specified?5for?5tIME?5@ 000000018005fc68     pngwutil.obj
 0002:00014c90       ??_C@_0BM@HGGPCIDB@Call?5to?5NULL?5write?5function?$AA@ 000000018005fc90     pngwio.obj
 0002:00014cb0       ??_C@_0M@POLPJMAP@Write?5Error?$AA@ 000000018005fcb0     pngwio.obj
 0002:00014cc0       ??_C@_0BA@MOKMMFOD@need?5dictionary?$AA@ 000000018005fcc0     zutil.obj
 0002:00014cd0       ??_C@_0L@FNAOCBOG@stream?5end?$AA@ 000000018005fcd0     zutil.obj
 0002:00014ce0       ??_C@_0L@KIJFAKBJ@file?5error?$AA@ 000000018005fce0     zutil.obj
 0002:00014cf0       ??_C@_0N@MKKNPMJD@stream?5error?$AA@ 000000018005fcf0     zutil.obj
 0002:00014d00       ??_C@_0L@HAHMBNLP@data?5error?$AA@ 000000018005fd00     zutil.obj
 0002:00014d10       ??_C@_0N@DFPGLBGC@buffer?5error?$AA@ 000000018005fd10     zutil.obj
 0002:00014d20       ??_C@_0BF@CJFPCCEG@incompatible?5version?$AA@ 000000018005fd20     zutil.obj
 0002:00014d38       ??_C@_06HOBIMJIM@GIF89a?$AA@ 000000018005fd38     egif_lib.obj
 0002:00014d40       ??_C@_06HEIGOEIG@GIF87a?$AA@ 000000018005fd40     egif_lib.obj
 0002:00014d48       ??_C@_0BK@IKIOFNPK@Failed?5to?5open?5given?5file?$AA@ 000000018005fd48     gif_err.obj
 0002:00014d68       ??_C@_0BO@HJKEPHBI@Failed?5to?5write?5to?5given?5file?$AA@ 000000018005fd68     gif_err.obj
 0002:00014d88       ??_C@_0CH@PBNCLFPP@Screen?5descriptor?5has?5already?5be@ 000000018005fd88     gif_err.obj
 0002:00014db0       ??_C@_0CB@KNLMJIBN@Image?5descriptor?5is?5still?5active@ 000000018005fdb0     gif_err.obj
 0002:00014dd8       ??_C@_0CD@JFGMLFL@Neither?5global?5nor?5local?5color?5m@ 000000018005fdd8     gif_err.obj
 0002:00014e00       ??_C@_0CM@JPHCHKPD@Number?5of?5pixels?5bigger?5than?5wid@ 000000018005fe00     gif_err.obj
 0002:00014e30       ??_C@_0CD@LLAGPEFG@Failed?5to?5allocate?5required?5memo@ 000000018005fe30     gif_err.obj
 0002:00014e58       ??_C@_0BK@LIJPGAOG@Write?5failed?5?$CIdisk?5full?$DP?$CJ?$AA@ 000000018005fe58     gif_err.obj
 0002:00014e78       ??_C@_0BL@PIPFOKOE@Failed?5to?5close?5given?5file?$AA@ 000000018005fe78     gif_err.obj
 0002:00014e98       ??_C@_0CE@NFDFMCNL@Given?5file?5was?5not?5opened?5for?5wr@ 000000018005fe98     gif_err.obj
 0002:00014ec0       ??_C@_0BP@NDAFCNML@Failed?5to?5read?5from?5given?5file?$AA@ 000000018005fec0     gif_err.obj
 0002:00014ee0       ??_C@_0BK@MDNNIAEK@Data?5is?5not?5in?5GIF?5format?$AA@ 000000018005fee0     gif_err.obj
 0002:00014f00       ??_C@_0BO@HDIDEIIA@No?5screen?5descriptor?5detected?$AA@ 000000018005ff00     gif_err.obj
 0002:00014f20       ??_C@_0BN@CEPGKNJC@No?5Image?5Descriptor?5detected?$AA@ 000000018005ff20     gif_err.obj
 0002:00014f40       ??_C@_0BL@HJMBBCBI@Wrong?5record?5type?5detected?$AA@ 000000018005ff40     gif_err.obj
 0002:00014f60       ??_C@_0CD@CJKEAJEK@Given?5file?5was?5not?5opened?5for?5re@ 000000018005ff60     gif_err.obj
 0002:00014f88       ??_C@_0CF@CEHOLGAH@Image?5is?5defective?0?5decoding?5abo@ 000000018005ff88     gif_err.obj
 0002:00014fb0       ??_C@_0CJ@MLIKCJGE@Image?5EOF?5detected?5before?5image?5@ 000000018005ffb0     gif_err.obj
 0002:00014fe0       ??_C@_08HCOMDCCD@iojs?4exe?$AA@ 000000018005ffe0     win_delay_load_hook.obj
 0002:00014ff0       ??_C@_08JDDNMFDB@node?4exe?$AA@ 000000018005fff0     win_delay_load_hook.obj
 0002:00015118       __real@0010000000000000    0000000180060118     init.obj
 0002:00015120       __real@30800000            0000000180060120     init.obj
 0002:00015124       __real@35800000            0000000180060124     init.obj
 0002:00015128       __real@3a800000            0000000180060128     init.obj
 0002:0001512c       __real@3ec3ef15            000000018006012c     init.obj
 0002:00015130       __real@3ee4f8b588e368f1    0000000180060130     init.obj
 0002:00015138       __real@3f04a426e648c9c8    0000000180060138     init.obj
 0002:00015140       __real@3f0a8bd4            0000000180060140     init.obj
 0002:00015144       __real@3f3504f3            0000000180060144     init.obj
 0002:00015148       __real@3f9a027525460aa6    0000000180060148     init.obj
 0002:00015150       __real@3fa73d75            0000000180060150     init.obj
 0002:00015158       __real@3fd1a855de72ab5d    0000000180060158     init.obj
 0002:00015160       __real@3fe0000000000000    0000000180060160     init.obj
 0002:00015168       __real@3fe1517a7bc720bb    0000000180060168     init.obj
 0002:00015170       __real@3fe92469c0a7bf3b    0000000180060170     init.obj
 0002:00015178       __real@3ff0000000000000    0000000180060178     init.obj
 0002:00015180       __real@3ff2d062ef6c11aa    0000000180060180     init.obj
 0002:00015188       __real@3ff4e7ae914d6fca    0000000180060188     init.obj
 0002:00015190       __real@3ff63150b14861ef    0000000180060190     init.obj
 0002:00015198       __real@401c000000000000    0000000180060198     init.obj
 0002:000151a0       __real@4020000000000000    00000001800601a0     init.obj
 0002:000151a8       __real@4022000000000000    00000001800601a8     init.obj
 0002:000151b0       __real@4024000000000000    00000001800601b0     init.obj
 0002:000151b8       __real@4030000000000000    00000001800601b8     init.obj
 0002:000151c0       __real@4059000000000000    00000001800601c0     init.obj
 0002:000151c8       __real@405fc00000000000    00000001800601c8     init.obj
 0002:000151d0       __real@406fe00000000000    00000001800601d0     init.obj
 0002:000151d8       __real@407f400000000000    00000001800601d8     init.obj
 0002:000151e0       __real@40b3880000000000    00000001800601e0     init.obj
 0002:000151e8       __real@40f86a0000000000    00000001800601e8     init.obj
 0002:000151f0       __real@41dfffffffc00000    00000001800601f0     init.obj
 0002:000151f8       __real@4202a05f20000000    00000001800601f8     init.obj
 0002:00015200       __real@44800000            0000000180060200     init.obj
 0002:00015204       __real@46800100            0000000180060204     init.obj
 0002:00015208       __real@7fefffffffffffff    0000000180060208     init.obj
 0002:00015210       __real@c1e0000000000000    0000000180060210     init.obj
 0002:00015220       __xmm@00000001000000020000000400000000 0000000180060220     init.obj
 0002:00015230       __xmm@00000002000000040000000800000008 0000000180060230     init.obj
 0002:00015240       __xmm@00000003000000020000000100000000 0000000180060240     init.obj
 0002:00015250       __xmm@00001d2f00001d2f00001d2f00001d2f 0000000180060250     init.obj
 0002:00015260       __xmm@00004c8b00004c8b00004c8b00004c8b 0000000180060260     init.obj
 0002:00015270       __xmm@00008000000080000000800000008000 0000000180060270     init.obj
 0002:00015280       __xmm@00009646000096460000964600009646 0000000180060280     init.obj
 0002:00015290       __xmm@00807fff00807fff00807fff00807fff 0000000180060290     init.obj
 0002:000152a0       __xmm@40004000400040004000400040004000 00000001800602a0     init.obj
 0002:000152b0       __xmm@46800100468001004680010046800100 00000001800602b0     init.obj
 0002:000152c0       __xmm@80000000000000008000000000000000 00000001800602c0     init.obj
 0002:000152d0       __xmm@ffff94d1ffff94d1ffff94d1ffff94d1 00000001800602d0     init.obj
 0002:000152e0       __xmm@ffffab32ffffab32ffffab32ffffab32 00000001800602e0     init.obj
 0002:000152f0       __xmm@ffffd4ceffffd4ceffffd4ceffffd4ce 00000001800602f0     init.obj
 0002:00015300       __xmm@ffffeb2fffffeb2fffffeb2fffffeb2f 0000000180060300     init.obj
 0002:00015310       __xmm@ffffffffffffffffffffffffffffffff 0000000180060310     init.obj
 0002:00015678       __real@bff0000000000000    0000000180060678     LIBCMT:floor.obj
 0002:00015680       _load_config_used          0000000180060680     LIBCMT:loadcfg.obj
 0002:00015768       ??_R1A@?0A@EA@exception@std@@8 0000000180060768     libcpmt:xthrow.obj
 0002:00015790       ??_R3exception@std@@8      0000000180060790     libcpmt:xthrow.obj
 0002:000157a8       ??_R2exception@std@@8      00000001800607a8     libcpmt:xthrow.obj
 0002:000157b8       ??_R4bad_alloc@std@@6B@    00000001800607b8     libcpmt:xthrow.obj
 0002:000157e0       ??_R3bad_alloc@std@@8      00000001800607e0     libcpmt:xthrow.obj
 0002:000157f8       ??_R2bad_alloc@std@@8      00000001800607f8     libcpmt:xthrow.obj
 0002:00015810       ??_R1A@?0A@EA@bad_alloc@std@@8 0000000180060810     libcpmt:xthrow.obj
 0002:00015838       ??_R4type_info@@6B@        0000000180060838     LIBCMT:typinfo.obj
 0002:00015860       ??_R3type_info@@8          0000000180060860     LIBCMT:typinfo.obj
 0002:00015878       ??_R2type_info@@8          0000000180060878     LIBCMT:typinfo.obj
 0002:00015888       ??_R1A@?0A@EA@type_info@@8 0000000180060888     LIBCMT:typinfo.obj
 0002:000158b0       ??_R4exception@std@@6B@    00000001800608b0     LIBCMT:stdexcpt.obj
 0002:000158d8       ??_R4bad_exception@std@@6B@ 00000001800608d8     LIBCMT:frame.obj
 0002:00015900       ??_R3bad_exception@std@@8  0000000180060900     LIBCMT:frame.obj
 0002:00015918       ??_R2bad_exception@std@@8  0000000180060918     LIBCMT:frame.obj
 0002:00015930       ??_R1A@?0A@EA@bad_exception@std@@8 0000000180060930     LIBCMT:frame.obj
 0002:00015958       __rtc_iaa                  0000000180060958     LIBCMT:initsect.obj
 0002:00015960       __rtc_izz                  0000000180060960     LIBCMT:initsect.obj
 0002:00015968       __rtc_taa                  0000000180060968     LIBCMT:initsect.obj
 0002:00015970       __rtc_tzz                  0000000180060970     LIBCMT:initsect.obj
 0002:0001a370       _TI2?AVbad_alloc@std@@     0000000180065370     libcpmt:xthrow.obj
 0002:0001a390       _CTA2?AVbad_alloc@std@@    0000000180065390     libcpmt:xthrow.obj
 0002:0001a3a8       _CT??_R0?AVbad_alloc@std@@@8??0bad_alloc@std@@QEAA@AEBV01@@Z24 00000001800653a8     libcpmt:xthrow.obj
 0002:0001a3d0       _CT??_R0?AVexception@std@@@8??0exception@std@@QEAA@AEBV01@@Z24 00000001800653d0     libcpmt:xthrow.obj
 0002:0001a3f8       _TI2?AVbad_exception@std@@ 00000001800653f8     LIBCMT:frame.obj
 0002:0001a418       _CTA2?AVbad_exception@std@@ 0000000180065418     LIBCMT:frame.obj
 0002:0001a430       _CT??_R0?AVbad_exception@std@@@8??0bad_exception@std@@QEAA@AEBV01@@Z24 0000000180065430     LIBCMT:frame.obj
 0002:0001a458       _TI3?AUCImgIOException@cimg_library@@ 0000000180065458     jpeg_worker.obj
 0002:0001a478       _CTA3?AUCImgInstanceException@cimg_library@@ 0000000180065478     jpeg_worker.obj
 0002:0001a498       _TI3?AUCImgArgumentException@cimg_library@@ 0000000180065498     jpeg_worker.obj
 0002:0001a4b8       _CT??_R0?AUCImgException@cimg_library@@@8??0CImgException@cimg_library@@QEAA@AEBU01@@Z24 00000001800654b8     jpeg_worker.obj
 0002:0001a4e0       _CT??_R0?AUCImgInstanceException@cimg_library@@@8??0CImgInstanceException@cimg_library@@QEAA@AEBU01@@Z24 00000001800654e0     jpeg_worker.obj
 0002:0001a508       _TI3?AUCImgInstanceException@cimg_library@@ 0000000180065508     jpeg_worker.obj
 0002:0001a528       _CT??_R0?AUCImgIOException@cimg_library@@@8??0CImgIOException@cimg_library@@QEAA@AEBU01@@Z24 0000000180065528     jpeg_worker.obj
 0002:0001a550       _CT??_R0?AVexception@stdext@@@8??0exception@stdext@@QEAA@AEBV01@@Z16 0000000180065550     jpeg_worker.obj
 0002:0001a578       _CTA3?AUCImgIOException@cimg_library@@ 0000000180065578     jpeg_worker.obj
 0002:0001a598       _CTA3?AUCImgArgumentException@cimg_library@@ 0000000180065598     jpeg_worker.obj
 0002:0001a5b8       _CT??_R0?AUCImgArgumentException@cimg_library@@@8??0CImgArgumentException@cimg_library@@QEAA@AEBU01@@Z24 00000001800655b8     jpeg_worker.obj
 0002:0001a5dc       __DELAY_IMPORT_DESCRIPTOR_node_exe 00000001800655dc     node:node.exe
 0002:0001a5fc       __NULL_DELAY_IMPORT_DESCRIPTOR 00000001800655fc     node:node.exe
 0002:0001a758       \177node_NULL_THUNK_DATA_DLN 0000000180065758     node:node.exe
 0002:0001b148       \177node_NULL_THUNK_DATA_DLB 0000000180066148     node:node.exe
 0002:0001c868       __IMPORT_DESCRIPTOR_KERNEL32 0000000180067868     kernel32:KERNEL32.dll
 0002:0001c87c       __IMPORT_DESCRIPTOR_SHELL32 000000018006787c     shell32:SHELL32.dll
 0002:0001c890       __NULL_IMPORT_DESCRIPTOR   0000000180067890     kernel32:KERNEL32.dll
 0003:00000000       _iob                       0000000180069000     LIBCMT:_file.obj
 0003:00000430       __abort_behavior           0000000180069430     LIBCMT:abort.obj
 0003:000005b0       _fltused                   00000001800695b0     LIBCMT:fpinit.obj
 0003:000005b4       _ldused                    00000001800695b4     LIBCMT:fpinit.obj
 0003:000005b8       __security_cookie          00000001800695b8     LIBCMT:gs_cookie.obj
 0003:000005c0       __security_cookie_complement 00000001800695c0     LIBCMT:gs_cookie.obj
 0003:000005c8       __isa_available            00000001800695c8     LIBCMT:cpu_disp.obj
 0003:000005cc       __isa_enabled              00000001800695cc     LIBCMT:cpu_disp.obj
 0003:000005d8       __nullstring               00000001800695d8     LIBCMT:output.obj
 0003:000005e0       __wnullstring              00000001800695e0     LIBCMT:output.obj
 0003:00000830       __badioinfo                0000000180069830     LIBCMT:ioinit.obj
 0003:00000888       __flsindex                 0000000180069888     LIBCMT:tidtable.obj
 0003:000008a0       _cfltcvt_tab               00000001800698a0     LIBCMT:cmiscdat.obj
 0003:000008f0       _mbctype                   00000001800698f0     LIBCMT:mbctype.obj
 0003:00000a00       _mbcasemap                 0000000180069a00     LIBCMT:mbctype.obj
 0003:00000b00       __initialmbcinfo           0000000180069b00     LIBCMT:mbctype.obj
 0003:00000e20       __ptmbcinfo                0000000180069e20     LIBCMT:mbctype.obj
 0003:00001000       _d_inf                     000000018006a000     LIBCMT:util.obj
 0003:00001008       _d_ind                     000000018006a008     LIBCMT:util.obj
 0003:00001010       _d_max                     000000018006a010     LIBCMT:util.obj
 0003:00001018       _d_min                     000000018006a018     LIBCMT:util.obj
 0003:00001020       _d_mzero                   000000018006a020     LIBCMT:util.obj
 0003:00001028       __mb_cur_max               000000018006a028     LIBCMT:nlsdata.obj
 0003:0000102c       __wclocalestr              000000018006a02c     LIBCMT:nlsdata.obj
 0003:00001030       __lc_time_c                000000018006a030     LIBCMT:nlsdata.obj
 0003:000012f0       __ptlocinfo                000000018006a2f0     LIBCMT:nlsdata.obj
 0003:00001300       __initiallocinfo           000000018006a300     LIBCMT:nlsdata.obj
 0003:00001458       __globallocalestatus       000000018006a458     LIBCMT:glstatus.obj
 0003:00001460       _days                      000000018006a460     LIBCMT:days.obj
 0003:00001498       _lpdays                    000000018006a498     LIBCMT:days.obj
 0003:000014cc       _sys_nerr                  000000018006a4cc     LIBCMT:syserr.obj
 0003:000014d0       _lookuptrailbytes          000000018006a4d0     LIBCMT:read.obj
 0003:000015e0       _matherr_flag              000000018006a5e0     LIBCMT:matherr.obj
 0003:00001620       _pow10pos                  000000018006a620     LIBCMT:constpow.obj
 0003:00001780       _pow10neg                  000000018006a780     LIBCMT:constpow.obj
 0003:000018e0       __lconv_c                  000000018006a8e0     LIBCMT:lconv.obj
 0003:00001978       __lconv_static_decimal     000000018006a978     LIBCMT:lconv.obj
 0003:0000197c       __lconv_static_W_decimal   000000018006a97c     LIBCMT:lconv.obj
 0003:00001980       __lconv                    000000018006a980     LIBCMT:lconv.obj
 0003:00001988       _pctype                    000000018006a988     LIBCMT:ctype.obj
 0003:00001990       _pwctype                   000000018006a990     LIBCMT:ctype.obj
 0003:000019a0       _confh                     000000018006a9a0     LIBCMT:initcon.obj
 0003:000019b0       _HUGE                      000000018006a9b0     LIBCMT:huge.obj
 0003:00001a60       __pfnDliNotifyHook2        000000018006aa60     win_delay_load_hook.obj
 0003:00001a70       ??_R0?AVbad_alloc@std@@@8  000000018006aa70     libcpmt:xthrow.obj
 0003:00001a98       ??_R0?AVexception@std@@@8  000000018006aa98     libcpmt:xthrow.obj
 0003:00001ac0       ??_R0?AVtype_info@@@8      000000018006aac0     LIBCMT:typinfo.obj
 0003:00001ae0       ??_R0?AVbad_exception@std@@@8 000000018006aae0     LIBCMT:frame.obj
 0003:00001b08       ??_R0?AUCImgIOException@cimg_library@@@8 000000018006ab08     jpeg_worker.obj
 0003:00001b40       ??_R0?AUCImgInstanceException@cimg_library@@@8 000000018006ab40     jpeg_worker.obj
 0003:00001b80       ??_R0?AUCImgException@cimg_library@@@8 000000018006ab80     jpeg_worker.obj
 0003:00001bb8       ??_R0?AVexception@stdext@@@8 000000018006abb8     jpeg_worker.obj
 0003:00001be0       ??_R0?AUCImgArgumentException@cimg_library@@@8 000000018006abe0     jpeg_worker.obj
 0003:00001c20       __imp_node_module_register 000000018006ac20     node:node.exe
 0003:00001c28       __imp_uv_default_loop      000000018006ac28     node:node.exe
 0003:00001c30       __imp_?ToLocalEmpty@V8@v8@@CAXXZ 000000018006ac30     node:node.exe
 0003:00001c38       __imp_?DisposeGlobal@V8@v8@@CAXPEAPEAVObject@internal@2@@Z 000000018006ac38     node:node.exe
 0003:00001c40       __imp_?GlobalizeReference@V8@v8@@CAPEAPEAVObject@internal@2@PEAVIsolate@42@PEAPEAV342@@Z 000000018006ac40     node:node.exe
 0003:00001c48       __imp_?Escape@EscapableHandleScope@v8@@AEAAPEAPEAVObject@internal@2@PEAPEAV342@@Z 000000018006ac48     node:node.exe
 0003:00001c50       __imp_??0EscapableHandleScope@v8@@QEAA@PEAVIsolate@1@@Z 000000018006ac50     node:node.exe
 0003:00001c58       __imp_?BooleanValue@Value@v8@@QEBA_NXZ 000000018006ac58     node:node.exe
 0003:00001c60       __imp_?GetFunction@FunctionTemplate@v8@@QEAA?AV?$MaybeLocal@VFunction@v8@@@2@V?$Local@VContext@v8@@@2@@Z 000000018006ac60     node:node.exe
 0003:00001c68       __imp_?New@FunctionTemplate@v8@@SA?AV?$Local@VFunctionTemplate@v8@@@2@PEAVIsolate@2@P6AXAEBV?$FunctionCallbackInfo@VValue@v8@@@2@@ZV?$Local@VValue@v8@@@2@V?$Local@VSignature@v8@@@2@H@Z 000000018006ac68     node:node.exe
 0003:00001c70       __imp_?NewFromUtf8@String@v8@@SA?AV?$MaybeLocal@VString@v8@@@2@PEAVIsolate@2@PEBDW4NewStringType@2@H@Z 000000018006ac70     node:node.exe
 0003:00001c78       __imp_?WriteUtf8@String@v8@@QEBAHPEADHPEAHH@Z 000000018006ac78     node:node.exe
 0003:00001c80       __imp_?Utf8Length@String@v8@@QEBAHXZ 000000018006ac80     node:node.exe
 0003:00001c88       __imp_?CreateHandle@HandleScope@v8@@KAPEAPEAVObject@internal@2@PEAVIsolate@42@PEAV342@@Z 000000018006ac88     node:node.exe
 0003:00001c90       __imp_?CreateHandle@HandleScope@v8@@CAPEAPEAVObject@internal@2@PEAVHeapObject@42@PEAV342@@Z 000000018006ac90     node:node.exe
 0003:00001c98       __imp_??1HandleScope@v8@@QEAA@XZ 000000018006ac98     node:node.exe
 0003:00001ca0       __imp_??0HandleScope@v8@@QEAA@PEAVIsolate@1@@Z 000000018006aca0     node:node.exe
 0003:00001ca8       __imp_?SlowGetInternalField@Object@v8@@AEAA?AV?$Local@VValue@v8@@@2@H@Z 000000018006aca8     node:node.exe
 0003:00001cb0       __imp_?New@Object@v8@@SA?AV?$Local@VObject@v8@@@2@PEAVIsolate@2@@Z 000000018006acb0     node:node.exe
 0003:00001cb8       __imp_?SetInternalField@Object@v8@@QEAAXHV?$Local@VValue@v8@@@2@@Z 000000018006acb8     node:node.exe
 0003:00001cc0       __imp_?Set@Object@v8@@QEAA?AV?$Maybe@_N@2@V?$Local@VContext@v8@@@2@V?$Local@VValue@v8@@@2@1@Z 000000018006acc0     node:node.exe
 0003:00001cc8       __imp_?Set@Object@v8@@QEAA?AV?$Maybe@_N@2@V?$Local@VContext@v8@@@2@IV?$Local@VValue@v8@@@2@@Z 000000018006acc8     node:node.exe
 0003:00001cd0       __imp_?SetInternalFieldCount@ObjectTemplate@v8@@QEAAXH@Z 000000018006acd0     node:node.exe
 0003:00001cd8       __imp_?NewInstance@ObjectTemplate@v8@@QEAA?AV?$MaybeLocal@VObject@v8@@@2@V?$Local@VContext@v8@@@2@@Z 000000018006acd8     node:node.exe
 0003:00001ce0       __imp_?New@ObjectTemplate@v8@@SA?AV?$Local@VObjectTemplate@v8@@@2@PEAVIsolate@2@V?$Local@VFunctionTemplate@v8@@@2@@Z 000000018006ace0     node:node.exe
 0003:00001ce8       __imp_?Value@Integer@v8@@QEBA_JXZ 000000018006ace8     node:node.exe
 0003:00001cf0       __imp_?GetCurrentContext@Isolate@v8@@QEAA?AV?$Local@VContext@v8@@@2@XZ 000000018006acf0     node:node.exe
 0003:00001cf8       __imp_?GetCurrent@Isolate@v8@@SAPEAV12@XZ 000000018006acf8     node:node.exe
 0003:00001d00       __imp_?Value@External@v8@@QEBAPEAXXZ 000000018006ad00     node:node.exe
 0003:00001d08       __imp_?New@External@v8@@SA?AV?$Local@VExternal@v8@@@2@PEAVIsolate@2@PEAX@Z 000000018006ad08     node:node.exe
 0003:00001d10       __imp_uv_queue_work        000000018006ad10     node:node.exe
 0003:00001d18       __imp_??1EscapableHandleScope@v8@@QEAA@XZ 000000018006ad18     node:node.exe
 0003:00001d20       __imp_?Data@Buffer@node@@YAPEADV?$Local@VObject@v8@@@v8@@@Z 000000018006ad20     node:node.exe
 0003:00001d28       __imp_?New@Buffer@node@@YA?AV?$MaybeLocal@VObject@v8@@@v8@@PEAVIsolate@4@PEAD_K@Z 000000018006ad28     node:node.exe
 0003:00001d30       __imp_?MakeCallback@node@@YA?AV?$Local@VValue@v8@@@v8@@PEAVIsolate@3@V?$Local@VObject@v8@@@3@V?$Local@VFunction@v8@@@3@HPEAV23@@Z 000000018006ad30     node:node.exe
 0003:00001d38       __imp_?Global@Context@v8@@QEAA?AV?$Local@VObject@v8@@@2@XZ 000000018006ad38     node:node.exe
 0003:00001d40       __imp_?Error@Exception@v8@@SA?AV?$Local@VValue@v8@@@2@V?$Local@VString@v8@@@2@@Z 000000018006ad40     node:node.exe
 0003:00001d48       __imp_?Get@Object@v8@@QEAA?AV?$Local@VValue@v8@@@2@I@Z 000000018006ad48     node:node.exe
 0003:00001d50       __imp_?Set@Object@v8@@QEAA_NV?$Local@VValue@v8@@@2@0@Z 000000018006ad50     node:node.exe
 0003:00001d58       \177node_NULL_THUNK_DATA_DLA 000000018006ad58     node:node.exe
 0003:00001d60       __hmod__node_exe           000000018006ad60     node:node.exe
 0003:00001d70       _cflush                    000000018006ad70     LIBCMT:_file.obj
 0003:00001d78       _C_Exit_Done               000000018006ad78     LIBCMT:crt0dat.obj
 0003:00001d7c       __argc                     000000018006ad7c     LIBCMT:crt0dat.obj
 0003:00001d80       __argv                     000000018006ad80     LIBCMT:crt0dat.obj
 0003:00001d88       __wargv                    000000018006ad88     LIBCMT:crt0dat.obj
 0003:00001d90       _environ                   000000018006ad90     LIBCMT:crt0dat.obj
 0003:00001d98       _wenviron                  000000018006ad98     LIBCMT:crt0dat.obj
 0003:00001da0       _pgmptr                    000000018006ada0     LIBCMT:crt0dat.obj
 0003:00001da8       _wpgmptr                   000000018006ada8     LIBCMT:crt0dat.obj
 0003:00001db0       _umaskval                  000000018006adb0     LIBCMT:crt0dat.obj
 0003:00001db4       _exitflag                  000000018006adb4     LIBCMT:crt0dat.obj
 0003:00001db8       _C_Termination_Done        000000018006adb8     LIBCMT:crt0dat.obj
 0003:00001dc0       __winitenv                 000000018006adc0     LIBCMT:crt0dat.obj
 0003:00001dc8       __initenv                  000000018006adc8     LIBCMT:crt0dat.obj
 0003:00002350       _aenvptr                   000000018006b350     LIBCMT:dllcrt0.obj
 0003:00002358       _wenvptr                   000000018006b358     LIBCMT:dllcrt0.obj
 0003:00002360       __fastflag                 000000018006b360     LIBCMT:fpinit.obj
 0003:00002364       __favor                    000000018006b364     LIBCMT:cpu_disp.obj
 0003:00002368       ?_pnhHeap@@3P6AH_K@ZEA     000000018006b368     LIBCMT:handler.obj
 0003:00002370       __app_type                 000000018006b370     LIBCMT:crt0msg.obj
 0003:000029a8       _newmode                   000000018006b9a8     LIBCMT:_newmode.obj
 0003:000029b0       _crtheap                   000000018006b9b0     LIBCMT:heapinit.obj
 0003:000029b8       ?__pInconsistency@@3P6AXXZEA 000000018006b9b8     LIBCMT:hooks.obj
 0003:000029c0       _maxwait                   000000018006b9c0     LIBCMT:crtheap.obj
 0003:000029c8       __pPurecall                000000018006b9c8     LIBCMT:inithelp.obj
 0003:000029d0       __pInvalidArgHandler       000000018006b9d0     LIBCMT:invarg.obj
 0003:00002c10       __error_mode               000000018006bc10     LIBCMT:errmode.obj
 0003:00002c68       _stdbuf                    000000018006bc68     LIBCMT:_sftbuf.obj
 0003:00002c80       __pioinfo                  000000018006bc80     LIBCMT:ioinit.obj
 0003:00002e98       __mbcodepage               000000018006be98     LIBCMT:mbctype.obj
 0003:00002e9c       __ismbcodepage             000000018006be9c     LIBCMT:mbctype.obj
 0003:00002ea0       __mbulinfo                 000000018006bea0     LIBCMT:mbctype.obj
 0003:00002eb0       __mblocalename             000000018006beb0     LIBCMT:mbctype.obj
 0003:00002ebc       _fmode                     000000018006bebc     LIBCMT:txtmode.obj
 0003:00002ec0       __locale_changed           000000018006bec0     LIBCMT:wsetloca.obj
 0003:00002fd8       ?g_OutOfMemoryExceptionCallback@@3P6APEAXXZEA 000000018006bfd8     LIBCMT:frame.obj
 0003:00002ff0       _commode                   000000018006bff0     LIBCMT:ncommode.obj
 0003:00002ff8       ?m_pGetParameter@UnDecorator@@0P6APEADJ@ZEA 000000018006bff8     LIBCMT:undname.obj
 0003:00003000       ?pArgList@UnDecorator@@0PEAVReplicator@@EA 000000018006c000     LIBCMT:undname.obj
 0003:00003008       ?pZNameList@UnDecorator@@0PEAVReplicator@@EA 000000018006c008     LIBCMT:undname.obj
 0003:00003010       ?pTemplateArgList@UnDecorator@@0PEAVReplicator@@EA 000000018006c010     LIBCMT:undname.obj
 0003:00003018       ?gName@UnDecorator@@0PEBDEB 000000018006c018     LIBCMT:undname.obj
 0003:00003020       ?name@UnDecorator@@0PEBDEB 000000018006c020     LIBCMT:undname.obj
 0003:00003028       ?outputString@UnDecorator@@0PEADEA 000000018006c028     LIBCMT:undname.obj
 0003:00003030       ?maxStringLength@UnDecorator@@0HA 000000018006c030     LIBCMT:undname.obj
 0003:00003034       ?disableFlags@UnDecorator@@0KA 000000018006c034     LIBCMT:undname.obj
 0003:00003038       ?fExplicitTemplateParams@UnDecorator@@0_NA 000000018006c038     LIBCMT:undname.obj
 0003:00003039       ?fGetTemplateArgumentList@UnDecorator@@0_NA 000000018006c039     LIBCMT:undname.obj
 0003:00003068       __lconv_static_null        000000018006c068     LIBCMT:lconv.obj
 0003:0000306c       __lconv_static_W_null      000000018006c06c     LIBCMT:lconv.obj
 0003:00003070       _outputformat              000000018006c070     LIBCMT:outputformat.obj
 0003:00003078       __pfnDliFailureHook2       000000018006c078     DelayImp:delayhk1.obj
 0003:00003080       ?res@?1??output@cimg@cimg_library@@YAPEAU_iobuf@@PEAU4@@Z@4PEAU4@EA 000000018006c080     jpeg_worker.obj
 0003:00003088       ??_B?1??strbuffersize@cimg@cimg_library@@YAPEBDK@Z@51 000000018006c088     jpeg_worker.obj
 0003:0000308c       ??_B?1??medcon_path@cimg@cimg_library@@YAPEBDQEBD_N@Z@51 000000018006c08c     jpeg_worker.obj
 0003:00003090       ??_B?1??programfiles_path@cimg@cimg_library@@YAPEBDQEBD_N@Z@51 000000018006c090     jpeg_worker.obj
 0003:00003094       ??_B?1??graphicsmagick_path@cimg@cimg_library@@YAPEBDQEBD_N@Z@51 000000018006c094     jpeg_worker.obj
 0003:000030a0       ?val@?1??Mutex_attr@cimg@cimg_library@@YAAEAUMutex_info@23@XZ@4U423@A 000000018006c0a0     jpeg_worker.obj
 0003:000031a0       ?s_path@?1??imagemagick_path@cimg@cimg_library@@YAPEBDQEBD_N@Z@4U?$CImg@D@3@A 000000018006c1a0     jpeg_worker.obj
 0003:000031c0       ?s_path@?1??programfiles_path@cimg@cimg_library@@YAPEBDQEBD_N@Z@4U?$CImg@D@3@A 000000018006c1c0     jpeg_worker.obj
 0003:000031e0       ??_B?1??Mutex_attr@cimg@cimg_library@@YAAEAUMutex_info@12@XZ@51 000000018006c1e0     jpeg_worker.obj
 0003:000031e4       ?mode@?1??_exception_mode@cimg@cimg_library@@YAAEAII_N@Z@4IA 000000018006c1e4     jpeg_worker.obj
 0003:000031e8       ?res@?1??strbuffersize@cimg@cimg_library@@YAPEBDK@Z@4U?$CImg@D@3@A 000000018006c1e8     jpeg_worker.obj
 0003:00003208       ??_B?1??temporary_path@cimg@cimg_library@@YAPEBDQEBD_N@Z@51 000000018006c208     jpeg_worker.obj
 0003:00003210       ?randomid@?1??filenamerand@cimg@cimg_library@@YAPEBDXZ@4PADA 000000018006c210     jpeg_worker.obj
 0003:00003220       ?s_path@?1??temporary_path@cimg@cimg_library@@YAPEBDQEBD_N@Z@4U?$CImg@D@3@A 000000018006c220     jpeg_worker.obj
 0003:00003240       ?s_path@?1??graphicsmagick_path@cimg@cimg_library@@YAPEBDQEBD_N@Z@4U?$CImg@D@3@A 000000018006c240     jpeg_worker.obj
 0003:00003260       ??_B?1??imagemagick_path@cimg@cimg_library@@YAPEBDQEBD_N@Z@51 000000018006c260     jpeg_worker.obj
 0003:00003264       ??_B?1??output@cimg@cimg_library@@YAPEAU_iobuf@@PEAU3@@Z@51 000000018006c264     jpeg_worker.obj
 0003:00003268       ?s_path@?1??medcon_path@cimg@cimg_library@@YAPEBDQEBD_N@Z@4U?$CImg@D@3@A 000000018006c268     jpeg_worker.obj
 0003:00003288       ?id@?$num_put@_WV?$back_insert_iterator@V?$basic_string@_WU?$char_traits@_W@std@@V?$allocator@_W@2@@std@@@std@@@std@@2V0locale@2@A 000000018006c288     init.obj
 0003:00003290       ?_System_object@?$_Error_objects@H@std@@2V_System_error_category@2@A 000000018006c290     init.obj
 0003:00003298       ?id@?$numpunct@_W@std@@2V0locale@2@A 000000018006c298     init.obj
 0003:000032a0       ?id@?$num_put@DV?$back_insert_iterator@V?$basic_string@DU?$char_traits@D@std@@V?$allocator@D@2@@std@@@std@@@std@@2V0locale@2@A 000000018006c2a0     init.obj
 0003:000032a8       ?_Iostream_object@?$_Error_objects@H@std@@2V_Iostream_error_category@2@A 000000018006c2a8     init.obj
 0003:000032c0       ?_Generic_object@?$_Error_objects@H@std@@2V_Generic_error_category@2@A 000000018006c2c0     init.obj
 0003:000032c8       ?id@?$numpunct@D@std@@2V0locale@2@A 000000018006c2c8     init.obj
 0003:000032d0       _setjmpexused              000000018006c2d0     <common>
 0003:000032d8       _debugger_hook_dummy       000000018006c2d8     <common>
 0003:000032e0       encodedKERNEL32Functions   000000018006c2e0     <common>
 0003:000033e8       _nhandle                   000000018006c3e8     <common>
 0003:000033f0       _acmdln                    000000018006c3f0     <common>
 0003:000033f8       __dyn_tls_init_callback    000000018006c3f8     <common>
 0003:00003400       __onexitend                000000018006c400     <common>
 0003:00003408       __onexitbegin              000000018006c408     <common>
 0003:00003410       __mbctype_initialized      000000018006c410     <common>
 0003:00003414       __env_initialized          000000018006c414     <common>
 0003:00003418       __piob                     000000018006c418     <common>
 0003:00003420       _nstream                   000000018006c420     <common>
 0003:00003440       _bufin                     000000018006c440     <common>

 entry point at        0001:000364d8

 Static symbols

 0000:fff8c000       .debug$S                   0000000180000000     node:node.exe
 0000:fff8c000       .debug$S                   0000000180000000     node:node.exe
 0000:fff8c000       .debug$S                   0000000180000000     node:node.exe
 0000:fff8c000       .debug$S                   0000000180000000     node:node.exe
 0000:fff8c000       .debug$S                   0000000180000000     node:node.exe
 0000:fff8c000       .debug$S                   0000000180000000     node:node.exe
 0000:fff8c000       .debug$S                   0000000180000000     node:node.exe
 0000:fff8c000       .debug$S                   0000000180000000     node:node.exe
 0000:fff8c000       .debug$S                   0000000180000000     node:node.exe
 0000:fff8c000       .debug$S                   0000000180000000     node:node.exe
 0000:fff8c000       .debug$S                   0000000180000000     node:node.exe
 0000:fff8c000       .debug$S                   0000000180000000     node:node.exe
 0000:fff8c000       .debug$S                   0000000180000000     node:node.exe
 0000:fff8c000       .debug$S                   0000000180000000     node:node.exe
 0000:fff8c000       .debug$S                   0000000180000000     node:node.exe
 0000:fff8c000       .debug$S                   0000000180000000     node:node.exe
 0000:fff8c000       .debug$S                   0000000180000000     node:node.exe
 0000:fff8c000       .debug$S                   0000000180000000     node:node.exe
 0000:fff8c000       .debug$S                   0000000180000000     node:node.exe
 0000:fff8c000       .debug$S                   0000000180000000     node:node.exe
 0000:fff8c000       .debug$S                   0000000180000000     node:node.exe
 0000:fff8c000       .debug$S                   0000000180000000     node:node.exe
 0000:fff8c000       .debug$S                   0000000180000000     node:node.exe
 0000:fff8c000       .debug$S                   0000000180000000     node:node.exe
 0000:fff8c000       .debug$S                   0000000180000000     node:node.exe
 0000:fff8c000       .debug$S                   0000000180000000     node:node.exe
 0000:fff8c000       .debug$S                   0000000180000000     node:node.exe
 0000:fff8c000       .debug$S                   0000000180000000     node:node.exe
 0000:fff8c000       .debug$S                   0000000180000000     node:node.exe
 0000:fff8c000       .debug$S                   0000000180000000     node:node.exe
 0000:fff8c000       .debug$S                   0000000180000000     node:node.exe
 0000:fff8c000       .debug$S                   0000000180000000     node:node.exe
 0000:fff8c000       .debug$S                   0000000180000000     node:node.exe
 0000:fff8c000       .debug$S                   0000000180000000     node:node.exe
 0000:fff8c000       .debug$S                   0000000180000000     node:node.exe
 0000:fff8c000       .debug$S                   0000000180000000     node:node.exe
 0000:fff8c000       .debug$S                   0000000180000000     node:node.exe
 0000:fff8c000       .debug$S                   0000000180000000     node:node.exe
 0000:fff8c000       .debug$S                   0000000180000000     node:node.exe
 0000:fff8c000       .debug$S                   0000000180000000     node:node.exe
 0000:fff8c000       .debug$S                   0000000180000000     node:node.exe
 0000:fff8c000       .debug$S                   0000000180000000     node:node.exe
 0000:fff8c000       .debug$S                   0000000180000000     node:node.exe
 0000:fff8c000       .debug$S                   0000000180000000     node:node.exe
 0000:fff8c000       .debug$S                   0000000180000000     node:node.exe
 0000:fff8c000       .debug$S                   0000000180000000     node:node.exe
 0000:fff8c000       .debug$S                   0000000180000000     node:node.exe
 0000:fff8c000       .debug$S                   0000000180000000     node:node.exe
 0000:fff8c000       .debug$S                   0000000180000000     node:node.exe
 0000:fff8c000       .debug$S                   0000000180000000     shell32:SHELL32.dll
 0000:fff8c000       .debug$S                   0000000180000000     kernel32:KERNEL32.dll
 0000:fff8c000       .debug$S                   0000000180000000     kernel32:KERNEL32.dll
 0000:fff8c000       .debug$S                   0000000180000000     kernel32:KERNEL32.dll
 0000:fff8c000       .debug$S                   0000000180000000     kernel32:KERNEL32.dll
 0000:fff8c000       .debug$S                   0000000180000000     kernel32:KERNEL32.dll
 0000:fff8c000       .debug$S                   0000000180000000     kernel32:KERNEL32.dll
 0000:fff8c000       .debug$S                   0000000180000000     kernel32:KERNEL32.dll
 0000:fff8c000       .debug$S                   0000000180000000     kernel32:KERNEL32.dll
 0000:fff8c000       .debug$S                   0000000180000000     kernel32:KERNEL32.dll
 0000:fff8c000       .debug$S                   0000000180000000     kernel32:KERNEL32.dll
 0000:fff8c000       .debug$S                   0000000180000000     kernel32:KERNEL32.dll
 0000:fff8c000       .debug$S                   0000000180000000     kernel32:KERNEL32.dll
 0000:fff8c000       .debug$S                   0000000180000000     kernel32:KERNEL32.dll
 0000:fff8c000       .debug$S                   0000000180000000     kernel32:KERNEL32.dll
 0000:fff8c000       .debug$S                   0000000180000000     kernel32:KERNEL32.dll
 0000:fff8c000       .debug$S                   0000000180000000     kernel32:KERNEL32.dll
 0000:fff8c000       .debug$S                   0000000180000000     kernel32:KERNEL32.dll
 0000:fff8c000       .debug$S                   0000000180000000     kernel32:KERNEL32.dll
 0000:fff8c000       .debug$S                   0000000180000000     kernel32:KERNEL32.dll
 0000:fff8c000       .debug$S                   0000000180000000     kernel32:KERNEL32.dll
 0000:fff8c000       .debug$S                   0000000180000000     kernel32:KERNEL32.dll
 0000:fff8c000       .debug$S                   0000000180000000     kernel32:KERNEL32.dll
 0000:fff8c000       .debug$S                   0000000180000000     kernel32:KERNEL32.dll
 0000:fff8c000       .debug$S                   0000000180000000     kernel32:KERNEL32.dll
 0000:fff8c000       .debug$S                   0000000180000000     kernel32:KERNEL32.dll
 0000:fff8c000       .debug$S                   0000000180000000     kernel32:KERNEL32.dll
 0000:fff8c000       .debug$S                   0000000180000000     kernel32:KERNEL32.dll
 0000:fff8c000       .debug$S                   0000000180000000     kernel32:KERNEL32.dll
 0000:fff8c000       .debug$S                   0000000180000000     kernel32:KERNEL32.dll
 0000:fff8c000       .debug$S                   0000000180000000     kernel32:KERNEL32.dll
 0000:fff8c000       .debug$S                   0000000180000000     kernel32:KERNEL32.dll
 0000:fff8c000       .debug$S                   0000000180000000     kernel32:KERNEL32.dll
 0000:fff8c000       .debug$S                   0000000180000000     kernel32:KERNEL32.dll
 0000:fff8c000       .debug$S                   0000000180000000     kernel32:KERNEL32.dll
 0000:fff8c000       .debug$S                   0000000180000000     kernel32:KERNEL32.dll
 0000:fff8c000       .debug$S                   0000000180000000     kernel32:KERNEL32.dll
 0000:fff8c000       .debug$S                   0000000180000000     kernel32:KERNEL32.dll
 0000:fff8c000       .debug$S                   0000000180000000     kernel32:KERNEL32.dll
 0000:fff8c000       .debug$S                   0000000180000000     kernel32:KERNEL32.dll
 0000:fff8c000       .debug$S                   0000000180000000     kernel32:KERNEL32.dll
 0000:fff8c000       .debug$S                   0000000180000000     kernel32:KERNEL32.dll
 0000:fff8c000       .debug$S                   0000000180000000     kernel32:KERNEL32.dll
 0000:fff8c000       .debug$S                   0000000180000000     kernel32:KERNEL32.dll
 0000:fff8c000       .debug$S                   0000000180000000     kernel32:KERNEL32.dll
 0000:fff8c000       .debug$S                   0000000180000000     kernel32:KERNEL32.dll
 0000:fff8c000       .debug$S                   0000000180000000     kernel32:KERNEL32.dll
 0000:fff8c000       .debug$S                   0000000180000000     kernel32:KERNEL32.dll
 0000:fff8c000       .debug$S                   0000000180000000     kernel32:KERNEL32.dll
 0000:fff8c000       .debug$S                   0000000180000000     kernel32:KERNEL32.dll
 0000:fff8c000       .debug$S                   0000000180000000     kernel32:KERNEL32.dll
 0000:fff8c000       .debug$S                   0000000180000000     kernel32:KERNEL32.dll
 0000:fff8c000       .debug$S                   0000000180000000     kernel32:KERNEL32.dll
 0000:fff8c000       .debug$S                   0000000180000000     kernel32:KERNEL32.dll
 0000:fff8c000       .debug$S                   0000000180000000     kernel32:KERNEL32.dll
 0000:fff8c000       .debug$S                   0000000180000000     kernel32:KERNEL32.dll
 0000:fff8c000       .debug$S                   0000000180000000     kernel32:KERNEL32.dll
 0000:fff8c000       .debug$S                   0000000180000000     kernel32:KERNEL32.dll
 0000:fff8c000       .debug$S                   0000000180000000     kernel32:KERNEL32.dll
 0000:fff8c000       .debug$S                   0000000180000000     kernel32:KERNEL32.dll
 0000:fff8c000       .debug$S                   0000000180000000     kernel32:KERNEL32.dll
 0000:fff8c000       .debug$S                   0000000180000000     kernel32:KERNEL32.dll
 0000:fff8c000       .debug$S                   0000000180000000     kernel32:KERNEL32.dll
 0000:fff8c000       .debug$S                   0000000180000000     kernel32:KERNEL32.dll
 0000:fff8c000       .debug$S                   0000000180000000     kernel32:KERNEL32.dll
 0000:fff8c000       .debug$S                   0000000180000000     kernel32:KERNEL32.dll
 0000:fff8c000       .debug$S                   0000000180000000     kernel32:KERNEL32.dll
 0000:fff8c000       .debug$S                   0000000180000000     kernel32:KERNEL32.dll
 0000:fff8c000       .debug$S                   0000000180000000     kernel32:KERNEL32.dll
 0000:fff8c000       .debug$S                   0000000180000000     kernel32:KERNEL32.dll
 0000:fff8c000       .debug$S                   0000000180000000     kernel32:KERNEL32.dll
 0000:fff8c000       .debug$S                   0000000180000000     kernel32:KERNEL32.dll
 0000:fff8c000       .debug$S                   0000000180000000     kernel32:KERNEL32.dll
 0000:fff8c000       .debug$S                   0000000180000000     kernel32:KERNEL32.dll
 0000:fff8c000       .debug$S                   0000000180000000     kernel32:KERNEL32.dll
 0000:fff8c000       .debug$S                   0000000180000000     kernel32:KERNEL32.dll
 0000:fff8c000       .debug$S                   0000000180000000     kernel32:KERNEL32.dll
 0000:fff8c000       .debug$S                   0000000180000000     kernel32:KERNEL32.dll
 0000:fff8c000       .debug$S                   0000000180000000     kernel32:KERNEL32.dll
 0000:fff8c000       .debug$S                   0000000180000000     kernel32:KERNEL32.dll
 0000:fff8c000       .debug$S                   0000000180000000     kernel32:KERNEL32.dll
 0000:fff8c000       .debug$S                   0000000180000000     kernel32:KERNEL32.dll
 0000:fff8c000       .debug$S                   0000000180000000     kernel32:KERNEL32.dll
 0000:fff8c000       .debug$S                   0000000180000000     kernel32:KERNEL32.dll
 0000:fff8c000       .debug$S                   0000000180000000     kernel32:KERNEL32.dll
 0000:fff8c000       .debug$S                   0000000180000000     kernel32:KERNEL32.dll
 0000:fff8c000       .debug$S                   0000000180000000     kernel32:KERNEL32.dll
 0000:fff8c000       .debug$S                   0000000180000000     kernel32:KERNEL32.dll
 0000:fff8c000       .debug$S                   0000000180000000     kernel32:KERNEL32.dll
 0000:fff8c000       .debug$S                   0000000180000000     kernel32:KERNEL32.dll
 0000:fff8c000       .debug$S                   0000000180000000     kernel32:KERNEL32.dll
 0000:fff8c000       .debug$S                   0000000180000000     kernel32:KERNEL32.dll
 0000:fff8c000       .debug$S                   0000000180000000     kernel32:KERNEL32.dll
 0001:00000000       ??__Epiecewise_construct@std@@YAXXZ 0000000180001000 f   * CIL library *:* CIL module *
 0001:00000010       ??__Eallocator_arg@std@@YAXXZ 0000000180001010 f   * CIL library *:* CIL module *
 0001:00000020       ??__Epiecewise_construct@std@@YAXXZ 0000000180001020 f   * CIL library *:* CIL module *
 0001:00000030       ??__Eallocator_arg@std@@YAXXZ 0000000180001030 f   * CIL library *:* CIL module *
 0001:00000040       ??__Epiecewise_construct@std@@YAXXZ 0000000180001040 f   * CIL library *:* CIL module *
 0001:00000050       ??__Eallocator_arg@std@@YAXXZ 0000000180001050 f   * CIL library *:* CIL module *
 0001:00000060       ??__Epiecewise_construct@std@@YAXXZ 0000000180001060 f   * CIL library *:* CIL module *
 0001:00000070       ??__Eallocator_arg@std@@YAXXZ 0000000180001070 f   * CIL library *:* CIL module *
 0001:00000080       ?FunctionCallbackWrapper@imp@Nan@@YAXAEBV?$FunctionCallbackInfo@VValue@v8@@@v8@@@Z 0000000180001080 f   * CIL library *:* CIL module *
 0001:00000430       start_pass_downsample      0000000180001430 f i * CIL library *:* CIL module *
 0001:00000430       null_method                0000000180001430 f i * CIL library *:* CIL module *
 0001:00000430       init_mem_destination       0000000180001430 f i * CIL library *:* CIL module *
 0001:00000d30       _register_lwip_encoder     0000000180001d30 f   * CIL library *:* CIL module *
 0001:00006160       empty_mem_output_buffer    0000000180007160 f   * CIL library *:* CIL module *
 0001:00006200       term_mem_destination       0000000180007200 f   * CIL library *:* CIL module *
 0001:00006320       output_message             0000000180007320 f   * CIL library *:* CIL module *
 0001:00006380       emit_message               0000000180007380 f   * CIL library *:* CIL module *
 0001:000063d0       format_message             00000001800073d0 f   * CIL library *:* CIL module *
 0001:000064b0       reset_error_mgr            00000001800074b0 f   * CIL library *:* CIL module *
 0001:0000dd20       alloc_small                000000018000ed20 f   * CIL library *:* CIL module *
 0001:0000deb0       alloc_large                000000018000eeb0 f   * CIL library *:* CIL module *
 0001:0000dfa0       alloc_sarray               000000018000efa0 f   * CIL library *:* CIL module *
 0001:0000e080       alloc_barray               000000018000f080 f   * CIL library *:* CIL module *
 0001:0000e170       request_virt_sarray        000000018000f170 f   * CIL library *:* CIL module *
 0001:0000e220       request_virt_barray        000000018000f220 f   * CIL library *:* CIL module *
 0001:0000e2d0       realize_virt_arrays        000000018000f2d0 f   * CIL library *:* CIL module *
 0001:0000e470       access_virt_sarray         000000018000f470 f   * CIL library *:* CIL module *
 0001:0000e6c0       access_virt_barray         000000018000f6c0 f   * CIL library *:* CIL module *
 0001:0000e920       free_pool                  000000018000f920 f   * CIL library *:* CIL module *
 0001:0000ea60       self_destruct              000000018000fa60 f   * CIL library *:* CIL module *
 0001:0000ef90       start_pass_coef            000000018000ff90 f   * CIL library *:* CIL module *
 0001:0000f090       compress_data              0000000180010090 f   * CIL library *:* CIL module *
 0001:0000f380       compress_first_pass        0000000180010380 f   * CIL library *:* CIL module *
 0001:0000f6a0       compress_output            00000001800106a0 f   * CIL library *:* CIL module *
 0001:0000fa70       rgb_ycc_start              0000000180010a70 f   * CIL library *:* CIL module *
 0001:0000fce0       rgb_ycc_convert            0000000180010ce0 f   * CIL library *:* CIL module *
 0001:0000fe30       rgb_gray_convert           0000000180010e30 f   * CIL library *:* CIL module *
 0001:0000fee0       cmyk_ycck_convert          0000000180010ee0 f   * CIL library *:* CIL module *
 0001:00010070       rgb_rgb1_convert           0000000180011070 f   * CIL library *:* CIL module *
 0001:00010140       grayscale_convert          0000000180011140 f   * CIL library *:* CIL module *
 0001:000101c0       rgb_convert                00000001800111c0 f   * CIL library *:* CIL module *
 0001:00010280       null_convert               0000000180011280 f   * CIL library *:* CIL module *
 0001:000105f4       $LN79                      00000001800115f4     * CIL library *:* CIL module *
 0001:00010610       $LN78                      0000000180011610     * CIL library *:* CIL module *
 0001:00010630       forward_DCT                0000000180011630 f   * CIL library *:* CIL module *
 0001:00010750       forward_DCT_float          0000000180011750 f   * CIL library *:* CIL module *
 0001:000109c0       start_pass_fdctmgr         00000001800119c0 f   * CIL library *:* CIL module *
 0001:00011240       jpeg_make_c_derived_tbl    0000000180012240 f   * CIL library *:* CIL module *
 0001:000114d0       dump_buffer_e              00000001800124d0 f   * CIL library *:* CIL module *
 0001:00011530       emit_bits_s                0000000180012530 f   * CIL library *:* CIL module *
 0001:00011640       emit_bits_e                0000000180012640 f   * CIL library *:* CIL module *
 0001:000117d0       emit_buffered_bits         00000001800127d0 f   * CIL library *:* CIL module *
 0001:00011970       emit_eobrun                0000000180012970 f   * CIL library *:* CIL module *
 0001:00011a50       emit_restart_s             0000000180012a50 f   * CIL library *:* CIL module *
 0001:00011b30       emit_restart_e             0000000180012b30 f   * CIL library *:* CIL module *
 0001:00011c10       encode_mcu_DC_first        0000000180012c10 f   * CIL library *:* CIL module *
 0001:00011dd0       encode_mcu_AC_first        0000000180012dd0 f   * CIL library *:* CIL module *
 0001:00012040       encode_mcu_DC_refine       0000000180013040 f   * CIL library *:* CIL module *
 0001:00012140       encode_mcu_AC_refine       0000000180013140 f   * CIL library *:* CIL module *
 0001:00012470       encode_one_block           0000000180013470 f   * CIL library *:* CIL module *
 0001:00012640       encode_mcu_huff            0000000180013640 f   * CIL library *:* CIL module *
 0001:000127c0       finish_pass_huff           00000001800137c0 f   * CIL library *:* CIL module *
 0001:000128e0       htest_one_block            00000001800138e0 f   * CIL library *:* CIL module *
 0001:00012a00       encode_mcu_gather          0000000180013a00 f   * CIL library *:* CIL module *
 0001:00012af0       jpeg_gen_optimal_table     0000000180013af0 f   * CIL library *:* CIL module *
 0001:00012e30       finish_pass_gather         0000000180013e30 f   * CIL library *:* CIL module *
 0001:00012f70       start_pass_huff            0000000180013f70 f   * CIL library *:* CIL module *
 0001:000133d0       start_pass_main            00000001800143d0 f   * CIL library *:* CIL module *
 0001:00013410       process_data_simple_main   0000000180014410 f   * CIL library *:* CIL module *
 0001:000135b0       emit_marker                00000001800145b0 f   * CIL library *:* CIL module *
 0001:00013630       emit_2bytes                0000000180014630 f   * CIL library *:* CIL module *
 0001:000136b0       emit_dqt                   00000001800146b0 f   * CIL library *:* CIL module *
 0001:00013910       emit_dht                   0000000180014910 f   * CIL library *:* CIL module *
 0001:00013b00       emit_dac                   0000000180014b00 f   * CIL library *:* CIL module *
 0001:00013db0       emit_dri                   0000000180014db0 f   * CIL library *:* CIL module *
 0001:00013e40       emit_lse_ict               0000000180014e40 f   * CIL library *:* CIL module *
 0001:000140c0       emit_sof                   00000001800150c0 f   * CIL library *:* CIL module *
 0001:00014260       emit_sos                   0000000180015260 f   * CIL library *:* CIL module *
 0001:000144b0       emit_pseudo_sos            00000001800154b0 f   * CIL library *:* CIL module *
 0001:00014600       emit_jfif_app0             0000000180015600 f   * CIL library *:* CIL module *
 0001:00014890       emit_adobe_app14           0000000180015890 f   * CIL library *:* CIL module *
 0001:00014a70       write_marker_header        0000000180015a70 f   * CIL library *:* CIL module *
 0001:00014ad0       write_marker_byte          0000000180015ad0 f   * CIL library *:* CIL module *
 0001:00014b20       write_file_header          0000000180015b20 f   * CIL library *:* CIL module *
 0001:00014bd0       write_frame_header         0000000180015bd0 f   * CIL library *:* CIL module *
 0001:00014d20       write_scan_header          0000000180015d20 f   * CIL library *:* CIL module *
 0001:00014e00       write_file_trailer         0000000180015e00 f   * CIL library *:* CIL module *
 0001:00014e70       write_tables_only          0000000180015e70 f   * CIL library *:* CIL module *
 0001:000155f0       initial_setup              00000001800165f0 f   * CIL library *:* CIL module *
 0001:000159ac       $LN88                      00000001800169ac     * CIL library *:* CIL module *
 0001:000159d0       validate_script            00000001800169d0 f   * CIL library *:* CIL module *
 0001:00015e10       reduce_script              0000000180016e10 f   * CIL library *:* CIL module *
 0001:00015ea0       select_scan_parameters     0000000180016ea0 f   * CIL library *:* CIL module *
 0001:00015fe0       per_scan_setup             0000000180016fe0 f   * CIL library *:* CIL module *
 0001:000161d0       prepare_for_pass           00000001800171d0 f   * CIL library *:* CIL module *
 0001:00016390       pass_startup               0000000180017390 f   * CIL library *:* CIL module *
 0001:000163d0       finish_pass_master         00000001800173d0 f   * CIL library *:* CIL module *
 0001:00016630       std_huff_tables            0000000180017630 f   * CIL library *:* CIL module *
 0001:00016fac       $LN175                     0000000180017fac     * CIL library *:* CIL module *
 0001:00017488       $LN25                      0000000180018488     * CIL library *:* CIL module *
 0001:000174b0       start_pass_prep            00000001800184b0 f   * CIL library *:* CIL module *
 0001:00017500       pre_process_data           0000000180018500 f   * CIL library *:* CIL module *
 0001:00017790       pre_process_context        0000000180018790 f   * CIL library *:* CIL module *
 0001:000179e0       create_context_buffer      00000001800189e0 f   * CIL library *:* CIL module *
 0001:00017c10       sep_downsample             0000000180018c10 f   * CIL library *:* CIL module *
 0001:00017cb0       int_downsample             0000000180018cb0 f   * CIL library *:* CIL module *
 0001:00017e80       fullsize_downsample        0000000180018e80 f   * CIL library *:* CIL module *
 0001:00017f40       h2v1_downsample            0000000180018f40 f   * CIL library *:* CIL module *
 0001:00018020       h2v2_downsample            0000000180019020 f   * CIL library *:* CIL module *
 0001:00018130       h2v2_smooth_downsample     0000000180019130 f   * CIL library *:* CIL module *
 0001:00018400       fullsize_smooth_downsample 0000000180019400 f   * CIL library *:* CIL module *
 0001:000187e0       finish_pass                00000001800197e0 f   * CIL library *:* CIL module *
 0001:00018b80       arith_encode               0000000180019b80 f   * CIL library *:* CIL module *
 0001:00018e70       emit_restart               0000000180019e70 f   * CIL library *:* CIL module *
 0001:00018fe0       encode_mcu_DC_first        0000000180019fe0 f   * CIL library *:* CIL module *
 0001:00019220       encode_mcu_AC_first        000000018001a220 f   * CIL library *:* CIL module *
 0001:00019510       encode_mcu_DC_refine       000000018001a510 f   * CIL library *:* CIL module *
 0001:000195d0       encode_mcu_AC_refine       000000018001a5d0 f   * CIL library *:* CIL module *
 0001:00019800       encode_mcu                 000000018001a800 f   * CIL library *:* CIL module *
 0001:00019c90       start_pass                 000000018001ac90 f   * CIL library *:* CIL module *
 0001:0001b348       $LN16                      000000018001c348     * CIL library *:* CIL module *
 0001:0001b370       png_colorspace_check_gamma 000000018001c370 f   * CIL library *:* CIL module *
 0001:0001b570       png_xy_from_XYZ            000000018001c570 f   * CIL library *:* CIL module *
 0001:0001b7f0       png_XYZ_from_xy            000000018001c7f0 f   * CIL library *:* CIL module *
 0001:0001bd60       png_XYZ_normalize          000000018001cd60 f   * CIL library *:* CIL module *
 0001:0001bf50       png_colorspace_endpoints_match 000000018001cf50 f   * CIL library *:* CIL module *
 0001:0001c480       is_ICC_signature           000000018001d480 f   * CIL library *:* CIL module *
 0001:0001c520       png_icc_profile_error      000000018001d520 f   * CIL library *:* CIL module *
 0001:0001cf30       png_compare_ICC_profile_with_sRGB 000000018001df30 f   * CIL library *:* CIL module *
 0001:0001d784       $LN46                      000000018001e784     * CIL library *:* CIL module *
 0001:0001d7a0       $LN45                      000000018001e7a0     * CIL library *:* CIL module *
 0001:0001d7dc       $LN44                      000000018001e7dc     * CIL library *:* CIL module *
 0001:0001d7fc       $LN43                      000000018001e7fc     * CIL library *:* CIL module *
 0001:0001d880       png_pow10                  000000018001e880 f   * CIL library *:* CIL module *
 0001:0001e080       png_image_free_function    000000018001f080 f   * CIL library *:* CIL module *
 0001:000205c0       check_location             00000001800215c0 f   * CIL library *:* CIL module *
 0001:00021240       png_fixed_inches_from_microns 0000000180022240 f   * CIL library *:* CIL module *
 0001:00022920       png_malloc_array_checked   0000000180023920 f   * CIL library *:* CIL module *
 0001:00023020       png_format_buffer          0000000180024020 f   * CIL library *:* CIL module *
 0001:00023730       write_unknown_chunks       0000000180024730 f   * CIL library *:* CIL module *
 0001:000244a0       $LN178                     00000001800254a0     * CIL library *:* CIL module *
 0001:00024560       png_do_write_intrapixel    0000000180025560 f   * CIL library *:* CIL module *
 0001:000249a8       $LN164                     00000001800259a8     * CIL library *:* CIL module *
 0001:00024a40       png_write_destroy          0000000180025a40 f   * CIL library *:* CIL module *
 0001:00024de0       $LN41                      0000000180025de0     * CIL library *:* CIL module *
 0001:00025170       png_image_write_init       0000000180026170 f   * CIL library *:* CIL module *
 0001:000253d0       png_write_image_16bit      00000001800263d0 f   * CIL library *:* CIL module *
 0001:00025580       png_write_image_8bit       0000000180026580 f   * CIL library *:* CIL module *
 0001:000257f0       png_image_set_PLTE         00000001800267f0 f   * CIL library *:* CIL module *
 0001:00025e40       png_image_write_main       0000000180026e40 f   * CIL library *:* CIL module *
 0001:00026650       png_write_chunk_header     0000000180027650 f   * CIL library *:* CIL module *
 0001:00026900       png_write_complete_chunk   0000000180027900 f   * CIL library *:* CIL module *
 0001:000269f0       png_image_size             00000001800279f0 f   * CIL library *:* CIL module *
 0001:00026b80       optimize_cmf               0000000180027b80 f   * CIL library *:* CIL module *
 0001:00026c20       png_deflate_claim          0000000180027c20 f   * CIL library *:* CIL module *
 0001:00026fb0       png_text_compress          0000000180027fb0 f   * CIL library *:* CIL module *
 0001:00027170       png_write_compressed_data_out 0000000180028170 f   * CIL library *:* CIL module *
 0001:00027290       png_check_keyword          0000000180028290 f   * CIL library *:* CIL module *
 0001:0002a340       png_setup_sub_row          000000018002b340 f   * CIL library *:* CIL module *
 0001:0002a400       png_setup_up_row           000000018002b400 f   * CIL library *:* CIL module *
 0001:0002a4a0       png_setup_avg_row          000000018002b4a0 f   * CIL library *:* CIL module *
 0001:0002a5a0       png_setup_paeth_row        000000018002b5a0 f   * CIL library *:* CIL module *
 0001:0002a9d0       png_write_filtered_row     000000018002b9d0 f   * CIL library *:* CIL module *
 0001:0002aba0       png_do_pack                000000018002bba0 f   * CIL library *:* CIL module *
 0001:0002ad10       png_do_shift               000000018002bd10 f   * CIL library *:* CIL module *
 0001:0002afb0       png_do_write_swap_alpha    000000018002bfb0 f   * CIL library *:* CIL module *
 0001:0002b0f0       png_do_write_invert_alpha  000000018002c0f0 f   * CIL library *:* CIL module *
 0001:0002b630       crc32_little               000000018002c630 f   * CIL library *:* CIL module *
 0001:0002bcc0       flush_pending              000000018002ccc0 f   * CIL library *:* CIL module *
 0001:0002c770       read_buf                   000000018002d770 f   * CIL library *:* CIL module *
 0001:0002c820       lm_init                    000000018002d820 f   * CIL library *:* CIL module *
 0001:0002c8d0       longest_match              000000018002d8d0 f   * CIL library *:* CIL module *
 0001:0002ca80       fill_window                000000018002da80 f   * CIL library *:* CIL module *
 0001:0002ccd0       deflate_stored             000000018002dcd0 f   * CIL library *:* CIL module *
 0001:0002d040       deflate_fast               000000018002e040 f   * CIL library *:* CIL module *
 0001:0002d510       deflate_slow               000000018002e510 f   * CIL library *:* CIL module *
 0001:0002daa0       deflate_rle                000000018002eaa0 f   * CIL library *:* CIL module *
 0001:0002deb0       deflate_huff               000000018002eeb0 f   * CIL library *:* CIL module *
 0001:0002e140       init_block                 000000018002f140 f   * CIL library *:* CIL module *
 0001:0002e1c0       pqdownheap                 000000018002f1c0 f   * CIL library *:* CIL module *
 0001:0002e2b0       gen_bitlen                 000000018002f2b0 f   * CIL library *:* CIL module *
 0001:0002e4c0       gen_codes                  000000018002f4c0 f   * CIL library *:* CIL module *
 0001:0002e580       build_tree                 000000018002f580 f   * CIL library *:* CIL module *
 0001:0002e7d0       scan_tree                  000000018002f7d0 f   * CIL library *:* CIL module *
 0001:0002e8c0       send_tree                  000000018002f8c0 f   * CIL library *:* CIL module *
 0001:0002ee40       build_bl_tree              000000018002fe40 f   * CIL library *:* CIL module *
 0001:0002ef10       send_all_trees             000000018002ff10 f   * CIL library *:* CIL module *
 0001:0002f5d0       compress_block             00000001800305d0 f   * CIL library *:* CIL module *
 0001:0002fa20       detect_data_type           0000000180030a20 f   * CIL library *:* CIL module *
 0001:0002faa0       bi_flush                   0000000180030aa0 f   * CIL library *:* CIL module *
 0001:0002fb20       copy_block                 0000000180030b20 f   * CIL library *:* CIL module *
 0001:00030840       EGifPutWord                0000000180031840 f   * CIL library *:* CIL module *
 0001:000308b0       EGifSetupCompress          00000001800318b0 f   * CIL library *:* CIL module *
 0001:000309d0       EGifCompressOutput         00000001800319d0 f   * CIL library *:* CIL module *
 0001:00030ae0       EGifBufferedOutput         0000000180031ae0 f   * CIL library *:* CIL module *
 0001:00030c00       EGifWriteExtensions        0000000180031c00 f   * CIL library *:* CIL module *
 0001:00030ffc       $LN30                      0000000180031ffc     * CIL library *:* CIL module *
 0001:00031048       $LN29                      0000000180032048     * CIL library *:* CIL module *
 0001:000316f0       SubdivColorMap             00000001800326f0 f   * CIL library *:* CIL module *
 0001:00031990       SortCmpRtn                 0000000180032990 f   * CIL library *:* CIL module *
 0001:00031a20       load_exe_hook              0000000180032a20 f   * CIL library *:* CIL module *
 0001:00031d40       $$000000                   0000000180032d40     LIBCMT:amdsecgs.obj
 0001:00031d70       $$000000                   0000000180032d70     LIBCMT:memcpy.obj
 0001:00031e60       MoveSmall                  0000000180032e60     LIBCMT:memcpy.obj
 0001:000333ac       swprintf                   00000001800343ac f   LIBCMT:wassert.obj
 0001:000333d0       $$000000                   00000001800343d0     LIBCMT:strncpy.obj
 0001:00033880       $$000000                   0000000180034880     LIBCMT:longjmp.obj
 0001:00033e60       flsall                     0000000180034e60 f   LIBCMT:fflush.obj
 0001:000345fc       _initterm                  00000001800355fc f   LIBCMT:crt0dat.obj
 0001:000346b0       doexit                     00000001800356b0 f   LIBCMT:crt0dat.obj
 0001:00034880       vscan_fn                   0000000180035880 f   LIBCMT:sscanf.obj
 0001:00035484       __createFile               0000000180036484 f   LIBCMT:wopen.obj
 0001:00036180       shortsort                  0000000180037180 f   LIBCMT:qsort.obj
 0001:00036518       __DllMainCRTStartup        0000000180037518 f   LIBCMT:dllcrt0.obj
 0001:00036640       $$000000                   0000000180037640     LIBCMT:strlen.obj
 0001:00037aac       _call_matherr              0000000180038aac f   LIBCMT:libm_error.obj
 0001:00037b14       _exception_enabled         0000000180038b14 f   LIBCMT:libm_error.obj
 0001:0003947c       write_char                 000000018003a47c f   LIBCMT:outputs.obj
 0001:0003947c       write_char                 000000018003a47c f   LIBCMT:outputs.obj
 0001:000394c4       write_multi_char           000000018003a4c4 f   LIBCMT:outputs.obj
 0001:000394c4       write_multi_char           000000018003a4c4 f   LIBCMT:outputs.obj
 0001:00039518       write_string               000000018003a518 f   LIBCMT:outputs.obj
 0001:00039518       write_string               000000018003a518 f   LIBCMT:outputs.obj
 0001:000395b0       $$000000                   000000018003a5b0     LIBCMT:memset.obj
 0001:00039755       MsetTab                    000000018003a755     LIBCMT:memset.obj
 0001:00039db4       xtow_s                     000000018003adb4 f   LIBCMT:xtows.obj
 0001:0003ab20       $$000000                   000000018003bb20     LIBCMT:jmpuwind.obj
 0001:0003b660       $$000000                   000000018003c660     LIBCMT:strcmp.obj
 0001:0003ca6c       ?getSystemCP@@YAHH@Z       000000018003da6c f   LIBCMT:mbctype.obj
 0001:0003caec       ?setSBCS@@YAXPEAUthreadmbcinfostruct@@@Z 000000018003daec f   LIBCMT:mbctype.obj
 0001:0003cb7c       ?setSBUpLow@@YAXPEAUthreadmbcinfostruct@@@Z 000000018003db7c f   LIBCMT:mbctype.obj
 0001:0003d310       __check_float_string       000000018003e310 f   LIBCMT:input.obj
 0001:0003d3a8       _inc                       000000018003e3a8 f   LIBCMT:input.obj
 0001:0004106c       parse_cmdline              000000018004206c f   LIBCMT:stdargv.obj
 0001:000415f0       ?CatchIt@@YAXPEAUEHExceptionRecord@@PEA_KPEAU_CONTEXT@@PEAU_xDISPATCHER_CONTEXT@@PEBU_s_FuncInfo@@PEBU_s_HandlerType@@PEBU_s_CatchableType@@PEBU_s_TryBlockMapEntry@@H1EE@Z 00000001800425f0 f   LIBCMT:frame.obj
 0001:000416b4       ?FindHandler@@YAXPEAUEHExceptionRecord@@PEA_KPEAU_CONTEXT@@PEAU_xDISPATCHER_CONTEXT@@PEBU_s_FuncInfo@@EH1@Z 00000001800426b4 f   LIBCMT:frame.obj
 0001:00041b68       ?FindHandlerForForeignException@@YAXPEAUEHExceptionRecord@@PEA_KPEAU_CONTEXT@@PEAU_xDISPATCHER_CONTEXT@@PEBU_s_FuncInfo@@HH1@Z 0000000180042b68 f   LIBCMT:frame.obj
 0001:00041dd0       ?IsInExceptionSpec@@YAEPEAUEHExceptionRecord@@PEBU_s_ESTypeList@@@Z 0000000180042dd0 f   LIBCMT:frame.obj
 0001:00042e98       _cftoe2_l                  0000000180043e98 f   LIBCMT:cvt.obj
 0001:0004318c       _cftof2_l                  000000018004418c f   LIBCMT:cvt.obj
 0001:00043a10       $$000000                   0000000180044a10     LIBCMT:fpsr.obj
 0001:00044800       write_char                 0000000180045800 f   LIBCMT:woutput.obj
 0001:00044838       write_multi_char           0000000180045838 f   LIBCMT:woutput.obj
 0001:0004488c       write_string               000000018004588c f   LIBCMT:woutput.obj
 0001:00045264       ?__crtCompareStringA_stat@@YAHPEAUlocaleinfo_struct@@PEB_WKPEBDH2HH@Z 0000000180046264 f   LIBCMT:a_cmp.obj
 0001:00045810       $$000000                   0000000180046810     LIBCMT:chkstk.obj
 0001:0004587c       ?__crtLCMapStringA_stat@@YAHPEAUlocaleinfo_struct@@PEB_WKPEBDHPEADHHH@Z 000000018004687c f   LIBCMT:a_map.obj
 0001:00045c00       ?__crtGetStringTypeA_stat@@YAHPEAUlocaleinfo_struct@@KPEBDHPEAGHH@Z 0000000180046c00 f   LIBCMT:a_str.obj
 0001:000474c0       $$000000                   00000001800484c0     LIBCMT:memcmp.obj
 0001:00047598       ?x_ismbbtype_l@@YAHPEAUlocaleinfo_struct@@IHH@Z 0000000180048598 f   LIBCMT:ismbbyte.obj
 0001:00047640       $$000000                   0000000180048640     LIBCMT:handlers.obj
 0001:00047dd0       $$000000                   0000000180048dd0     LIBCMT:strncmp.obj
 0001:000491a0       $$000000                   000000018004a1a0     LIBCMT:setjmp.obj
 0001:00049350       ?dtor$0@?0??New@?$Factory@VFunctionTemplate@v8@@@imp@Nan@@SA?AV?$Local@VFunctionTemplate@v8@@@v8@@P6AXAEBV?$FunctionCallbackInfo@VValue@v8@@@3@@ZV?$Local@VValue@v8@@@5@V?$Local@VSignature@v8@@@5@@Z@4HA 000000018004a350 f   * CIL library *:* CIL module *
 0001:00049360       ?dtor$0@?0???0Callback@Nan@@QEAA@AEBV?$Local@VFunction@v8@@@v8@@@Z@4HA 000000018004a360 f   * CIL library *:* CIL module *
 0001:0004936c       ?dtor$1@?0???0Callback@Nan@@QEAA@AEBV?$Local@VFunction@v8@@@v8@@@Z@4HA 000000018004a36c f   * CIL library *:* CIL module *
 0001:00049380       ?dtor$0@?0??SaveToPersistent@AsyncWorker@Nan@@QEAAXPEBDAEBV?$Local@VValue@v8@@@v8@@@Z@4HA 000000018004a380 f   * CIL library *:* CIL module *
 0001:00049380       ?dtor$0@?0??Call_@Callback@Nan@@AEBA?AV?$Local@VValue@v8@@@v8@@PEAVIsolate@4@V?$Local@VObject@v8@@@4@HQEAV34@@Z@4HA 000000018004a380 f   * CIL library *:* CIL module *
 0001:00049380       ?dtor$0@?0??HandleErrorCallback@AsyncWorker@Nan@@MEAAXXZ@4HA 000000018004a380 f   * CIL library *:* CIL module *
 0001:00049380       ?dtor$0@?0??SetFunction@Callback@Nan@@QEAAXAEBV?$Local@VFunction@v8@@@v8@@@Z@4HA 000000018004a380 f   * CIL library *:* CIL module *
 0001:00049390       ?dtor$1@?0??encodeToJpegBuffer@@YAXAEBV?$FunctionCallbackInfo@VValue@v8@@@Nan@@@Z@4HA 000000018004a390 f   * CIL library *:* CIL module *
 0001:0004939c       ?dtor$2@?0??encodeToJpegBuffer@@YAXAEBV?$FunctionCallbackInfo@VValue@v8@@@Nan@@@Z@4HA 000000018004a39c f   * CIL library *:* CIL module *
 0001:000493a8       ?dtor$5@?0??encodeToJpegBuffer@@YAXAEBV?$FunctionCallbackInfo@VValue@v8@@@Nan@@@Z@4HA 000000018004a3a8 f   * CIL library *:* CIL module *
 0001:000493c0       ?dtor$1@?0??encodeToPngBuffer@@YAXAEBV?$FunctionCallbackInfo@VValue@v8@@@Nan@@@Z@4HA 000000018004a3c0 f   * CIL library *:* CIL module *
 0001:000493cc       ?dtor$2@?0??encodeToPngBuffer@@YAXAEBV?$FunctionCallbackInfo@VValue@v8@@@Nan@@@Z@4HA 000000018004a3cc f   * CIL library *:* CIL module *
 0001:000493d8       ?dtor$5@?0??encodeToPngBuffer@@YAXAEBV?$FunctionCallbackInfo@VValue@v8@@@Nan@@@Z@4HA 000000018004a3d8 f   * CIL library *:* CIL module *
 0001:000493f0       ?dtor$1@?0??encodeToGifBuffer@@YAXAEBV?$FunctionCallbackInfo@VValue@v8@@@Nan@@@Z@4HA 000000018004a3f0 f   * CIL library *:* CIL module *
 0001:000493fc       ?dtor$2@?0??encodeToGifBuffer@@YAXAEBV?$FunctionCallbackInfo@VValue@v8@@@Nan@@@Z@4HA 000000018004a3fc f   * CIL library *:* CIL module *
 0001:00049410       ?dtor$0@?0???0AsyncWorker@Nan@@QEAA@PEAVCallback@1@@Z@4HA 000000018004a410 f   * CIL library *:* CIL module *
 0001:00049423       ?dtor$1@?0???0AsyncWorker@Nan@@QEAA@PEAVCallback@1@@Z@4HA 000000018004a423 f   * CIL library *:* CIL module *
 0001:00049430       ?dtor$0@?0???1AsyncWorker@Nan@@UEAA@XZ@4HA 000000018004a430 f   * CIL library *:* CIL module *
 0001:00049443       ?dtor$1@?0???1AsyncWorker@Nan@@UEAA@XZ@4HA 000000018004a443 f   * CIL library *:* CIL module *
 0001:0004944f       ?dtor$3@?0???1AsyncWorker@Nan@@UEAA@XZ@4HA 000000018004a44f f   * CIL library *:* CIL module *
 0001:00049460       ?dtor$0@?0??WorkComplete@AsyncWorker@Nan@@UEAAXXZ@4HA 000000018004a460 f   * CIL library *:* CIL module *
 0001:0004946c       ?dtor$2@?0??WorkComplete@AsyncWorker@Nan@@UEAAXXZ@4HA 000000018004a46c f   * CIL library *:* CIL module *
 0001:00049480       ?dtor$0@?0???0CImgException@cimg_library@@QEAA@AEBU01@@Z@4HA 000000018004a480 f   * CIL library *:* CIL module *
 0001:00049480       ?dtor$1@?0???0CImgInstanceException@cimg_library@@QEAA@AEBU01@@Z@4HA 000000018004a480 f   * CIL library *:* CIL module *
 0001:00049480       ?dtor$1@?0???0CImgIOException@cimg_library@@QEAA@AEBU01@@Z@4HA 000000018004a480 f   * CIL library *:* CIL module *
 0001:00049480       ?dtor$1@?0???0CImgArgumentException@cimg_library@@QEAA@AEBU01@@Z@4HA 000000018004a480 f   * CIL library *:* CIL module *
 0001:00049490       ?dtor$1@?0???0CImgArgumentException@cimg_library@@QEAA@QEBDZZ@4HA 000000018004a490 f   * CIL library *:* CIL module *
 0001:00049490       ?dtor$1@?0???0CImgInstanceException@cimg_library@@QEAA@QEBDZZ@4HA 000000018004a490 f   * CIL library *:* CIL module *
 0001:00049490       ?dtor$1@?0???0CImgIOException@cimg_library@@QEAA@QEBDZZ@4HA 000000018004a490 f   * CIL library *:* CIL module *
 0001:0004949c       ?dtor$0@?0???0CImgIOException@cimg_library@@QEAA@QEBDZZ@4HA 000000018004a49c f   * CIL library *:* CIL module *
 0001:0004949c       ?dtor$0@?0???0CImgArgumentException@cimg_library@@QEAA@QEBDZZ@4HA 000000018004a49c f   * CIL library *:* CIL module *
 0001:0004949c       ?dtor$0@?0???0CImgInstanceException@cimg_library@@QEAA@QEBDZZ@4HA 000000018004a49c f   * CIL library *:* CIL module *
 0001:000494b0       ?dtor$1@?0??temporary_path@cimg@cimg_library@@YAPEBDQEBD_N@Z@4HA 000000018004a4b0 f   * CIL library *:* CIL module *
 0001:000494bc       ?dtor$2@?0??temporary_path@cimg@cimg_library@@YAPEBDQEBD_N@Z@4HA 000000018004a4bc f   * CIL library *:* CIL module *
 0001:000494d0       ?dtor$0@?0??strbuffersize@cimg@cimg_library@@YAPEBDK@Z@4HA 000000018004a4d0 f   * CIL library *:* CIL module *
 0001:000494f0       ?dtor$0@?0??Execute@EncodeToJpegBufferWorker@@UEAAXXZ@4HA 000000018004a4f0 f   * CIL library *:* CIL module *
 0001:00049500       ?catch$0@?0???0?$CImg@D@cimg_library@@QEAA@IIII@Z@4HA 000000018004a500 f   * CIL library *:* CIL module *
 0001:0004950f       __catch$??0?$CImg@D@cimg_library@@QEAA@IIII@Z$0 000000018004a50f f   * CIL library *:* CIL module *
 0001:000495d0       ?catch$0@?0??assign@?$CImg@D@cimg_library@@QEAAAEAU12@IIII@Z@4HA 000000018004a5d0 f   * CIL library *:* CIL module *
 0001:000495df       __catch$?assign@?$CImg@D@cimg_library@@QEAAAEAU12@IIII@Z$0 000000018004a5df f   * CIL library *:* CIL module *
 0001:000496a0       ?dtor$0@?0??Execute@EncodeToPngBufferWorker@@UEAAXXZ@4HA 000000018004a6a0 f   * CIL library *:* CIL module *
 0001:000496b0       ?dtor$0@?0???0EncodeToGifBufferWorker@@QEAA@AEAV?$Local@VObject@v8@@@v8@@_K1HH_N2HPEAVCallback@Nan@@@Z@4HA 000000018004a6b0 f   * CIL library *:* CIL module *
 0001:000496bc       _onexit$fin$0              000000018004a6bc f   LIBCMT:onexit.obj
 0001:000496d0       _fsopen$fin$0              000000018004a6d0 f   LIBCMT:fopen.obj
 0001:000496d0       fwprintf$fin$0             000000018004a6d0 f   LIBCMT:fopen.obj
 0001:000496ea       fprintf$fin$0              000000018004a6ea f   LIBCMT:fprintf.obj
 0001:00049704       getenv$fin$0               000000018004a704 f   LIBCMT:getenv.obj
 0001:0004971d       fclose$fin$0               000000018004a71d f   LIBCMT:fflush.obj
 0001:0004971d       fflush$fin$0               000000018004a71d f   LIBCMT:fflush.obj
 0001:00049735       flsall$fin$0               000000018004a735 f   LIBCMT:fflush.obj
 0001:0004975d       flsall$fin$1               000000018004a75d f   LIBCMT:fflush.obj
 0001:00049776       fwrite$fin$0               000000018004a776 f   LIBCMT:fwrite.obj
 0001:0004978e       doexit$fin$0               000000018004a78e f   LIBCMT:crt0dat.obj
 0001:000497b2       _CRT_INIT$fin$0            000000018004a7b2 f   LIBCMT:dllcrt0.obj
 0001:000497d8       __DllMainCRTStartup$filt$0 000000018004a7d8 f   LIBCMT:dllcrt0.obj
 0001:00049821       _CallSETranslator$filt$0   000000018004a821 f   LIBCMT:trnsctrl.obj
 0001:00049867       _ctrlfp$filt$0             000000018004a867 f   LIBCMT:fpctrl.obj
 0001:00049893       _mtinitlocknum$fin$0       000000018004a893 f   LIBCMT:mlock.obj
 0001:000498b0       setvbuf$fin$0              000000018004a8b0 f   LIBCMT:setvbuf.obj
 0001:000498c8       raise$fin$0                000000018004a8c8 f   LIBCMT:winsig.obj
 0001:000498e6       _fcloseall$fin$0           000000018004a8e6 f   LIBCMT:stream.obj
 0001:000498e6       _getstream$fin$0           000000018004a8e6 f   LIBCMT:stream.obj
 0001:000498ff       _ioinit$fin$0              000000018004a8ff f   LIBCMT:ioinit.obj
 0001:0004991a       _freefls$fin$1             000000018004a91a f   LIBCMT:tidtable.obj
 0001:0004991a       _initptd$fin$1             000000018004a91a f   LIBCMT:tidtable.obj
 0001:00049933       _freefls$fin$0             000000018004a933 f   LIBCMT:tidtable.obj
 0001:00049933       _initptd$fin$0             000000018004a933 f   LIBCMT:tidtable.obj
 0001:0004994c       ?fin$0@?0??_Type_info_dtor@type_info@@CAXPEAV1@@Z@4HA 000000018004a94c f   LIBCMT:typname.obj
 0001:00049965       _commit$fin$0              000000018004a965 f   LIBCMT:close.obj
 0001:00049965       _close$fin$0               000000018004a965 f   LIBCMT:close.obj
 0001:00049980       _IsNonwritableInCurrentImage$filt$0 000000018004a980 f   LIBCMT:pesect.obj
 0001:000499a0       _setmbcp$fin$0             000000018004a9a0 f   LIBCMT:mbctype.obj
 0001:000499a0       __updatetmbcinfo$fin$0     000000018004a9a0 f   LIBCMT:mbctype.obj
 0001:000499b9       __lock_fhandle$fin$0       000000018004a9b9 f   LIBCMT:osfinfo.obj
 0001:000499d2       _alloc_osfhnd$fin$0        000000018004a9d2 f   LIBCMT:osfinfo.obj
 0001:000499ed       _alloc_osfhnd$fin$1        000000018004a9ed f   LIBCMT:osfinfo.obj
 0001:00049a06       _lseeki64$fin$0            000000018004aa06 f   LIBCMT:read.obj
 0001:00049a06       _write$fin$0               000000018004aa06 f   LIBCMT:read.obj
 0001:00049a06       _read$fin$0                000000018004aa06 f   LIBCMT:read.obj
 0001:00049a1d       _locterm$fin$0             000000018004aa1d f   LIBCMT:wsetloca.obj
 0001:00049a1d       __updatetlocinfo$fin$0     000000018004aa1d f   LIBCMT:wsetloca.obj
 0001:00049a36       __CxxCallCatchBlock$filt$0 000000018004aa36 f   LIBCMT:frame.obj
 0001:00049b2a       __CxxCallCatchBlock$fin$1  000000018004ab2a f   LIBCMT:frame.obj
 0001:00049ba8       __DestructExceptionObject$filt$0 000000018004aba8 f   LIBCMT:frame.obj
 0001:00049bc0       __FrameUnwindToState$filt$0 000000018004abc0 f   LIBCMT:frame.obj
 0001:00049bd6       __FrameUnwindToState$fin$1 000000018004abd6 f   LIBCMT:frame.obj
 0001:00049bff       _sopen_helper$fin$0        000000018004abff f   LIBCMT:open.obj
 0002:000002a0       piecewise_construct$initializer$ 000000018004b2a0     * CIL library *:* CIL module *
 0002:000002a8       allocator_arg$initializer$ 000000018004b2a8     * CIL library *:* CIL module *
 0002:000002b0       piecewise_construct$initializer$ 000000018004b2b0     * CIL library *:* CIL module *
 0002:000002b8       allocator_arg$initializer$ 000000018004b2b8     * CIL library *:* CIL module *
 0002:000002c0       piecewise_construct$initializer$ 000000018004b2c0     * CIL library *:* CIL module *
 0002:000002c8       allocator_arg$initializer$ 000000018004b2c8     * CIL library *:* CIL module *
 0002:000002d0       piecewise_construct$initializer$ 000000018004b2d0     * CIL library *:* CIL module *
 0002:000002d8       allocator_arg$initializer$ 000000018004b2d8     * CIL library *:* CIL module *
 0002:000002f8       pinit                      000000018004b2f8     LIBCMT:onexit.obj
 0002:00000300       pinit                      000000018004b300     LIBCMT:_file.obj
 0002:00000308       pinit                      000000018004b308     LIBCMT:cpu_disp.obj
 0002:00000310       pinit                      000000018004b310     LIBCMT:mbctype.obj
 0002:00000328       pterm                      000000018004b328     LIBCMT:wsetloca.obj
 0002:00000330       pterm                      000000018004b330     LIBCMT:initcon.obj
 0002:00000338       pterm                      000000018004b338     LIBCMT:_file.obj
 0002:000003b0       _Win_errtab                000000018004b3b0     libcpmt:syserror.obj
 0002:00000860       _Sys_errtab                000000018004b860     libcpmt:syserror.obj
 0002:00001988       GS_ExceptionPointers       000000018004c988     LIBCMT:gs_report.obj
 0002:00001a20       ?ExceptionTemplate@?1??_CxxThrowException@@9@4UEHExceptionRecord@@B 000000018004ca20     LIBCMT:throw.obj
 0002:00001a60       ?ExceptionTemplate@?1??_UnwindNestedFrames@@9@4U_EXCEPTION_RECORD@@B 000000018004ca60     LIBCMT:trnsctrl.obj
 0002:00001b30       rterrs                     000000018004cb30     LIBCMT:crt0msg.obj
 0002:00002768       ?ccsField@?P@??_openfile@@9@9 000000018004d768     LIBCMT:_open.obj
 0002:0000276c       ?utf8encoding@?P@??_openfile@@9@9 000000018004d76c     LIBCMT:_open.obj
 0002:00002778       ?utf16encoding@?P@??_openfile@@9@9 000000018004d778     LIBCMT:_open.obj
 0002:00002788       ?unicodeencoding@?P@??_openfile@@9@9 000000018004d788     LIBCMT:_open.obj
 0002:00002a98       _mb_locale_names           000000018004da98     LIBCMT:mbctype.obj
 0002:00003480       _first_127char             000000018004e480     LIBCMT:wsetloca.obj
 0002:00006910       __real@433fffffffffffff    0000000180051910     LIBCMT:fpsr.obj
 0002:00006918       __real@c33fffffffffffff    0000000180051918     LIBCMT:fpsr.obj
 0002:00006920       tokenTable                 0000000180051920     LIBCMT:undname.obj
 0002:00006990       nameTable                  0000000180051990     LIBCMT:undname.obj
 0002:00006c10       rttiTable                  0000000180051c10     LIBCMT:undname.obj
 0002:00007b00       logo40x38                  0000000180052b00     * CIL library *:* CIL module *
 0002:00008ce0       t_normal                   0000000180053ce0     * CIL library *:* CIL module *
 0002:00008ce1       t_normal                   0000000180053ce1     * CIL library *:* CIL module *
 0002:00008ce2       t_normal                   0000000180053ce2     * CIL library *:* CIL module *
 0002:00008ce3       t_normal                   0000000180053ce3     * CIL library *:* CIL module *
 0002:00008ce4       ?png_pass_yinc@?1??png_write_finish_row@@9@9 0000000180053ce4     * CIL library *:* CIL module *
 0002:00008cf0       logo40x38                  0000000180053cf0     * CIL library *:* CIL module *
 0002:00009ed0       t_green                    0000000180054ed0     * CIL library *:* CIL module *
 0002:00009ed8       t_red                      0000000180054ed8     * CIL library *:* CIL module *
 0002:00009ee0       t_bold                     0000000180054ee0     * CIL library *:* CIL module *
 0002:00009ee8       t_green                    0000000180054ee8     * CIL library *:* CIL module *
 0002:00009ef0       logo40x38                  0000000180054ef0     * CIL library *:* CIL module *
 0002:0000b0d0       t_red                      00000001800560d0     * CIL library *:* CIL module *
 0002:0000b0d8       t_bold                     00000001800560d8     * CIL library *:* CIL module *
 0002:0000b0e0       logo40x38                  00000001800560e0     * CIL library *:* CIL module *
 0002:0000c844       ?png_pass_start@?1??png_do_write_interlace@@9@9 0000000180057844     * CIL library *:* CIL module *
 0002:0000c8b4       ?png_pass_start@?1??png_write_start_row@@9@9 00000001800578b4     * CIL library *:* CIL module *
 0002:0000cbc8       extra_pool_slop            0000000180057bc8     * CIL library *:* CIL module *
 0002:0000cbd8       first_pool_slop            0000000180057bd8     * CIL library *:* CIL module *
 0002:0000cbe8       ?sRGB_XYZ@?1??png_colorspace_set_sRGB@@9@9 0000000180057be8     * CIL library *:* CIL module *
 0002:0000cdd8       ?RGB_order@?1??select_ncolors@@9@9 0000000180057dd8     * CIL library *:* CIL module *
 0002:0000cde4       ?png_pass_inc@?1??png_write_start_row@@9@9 0000000180057de4     * CIL library *:* CIL module *
 0002:0000cdf0       base_dither_matrix         0000000180057df0     * CIL library *:* CIL module *
 0002:0000cef0       ?aanscales@?9??start_pass_fdctmgr@@9@9 0000000180057ef0     * CIL library *:* CIL module *
 0002:0000cf70       ?aanscalefactor@?N@??start_pass_fdctmgr@@9@9 0000000180057f70     * CIL library *:* CIL module *
 0002:0000cfb0       ?val_dc_chrominance@?1??std_huff_tables@@9@9 0000000180057fb0     * CIL library *:* CIL module *
 0002:0000cfc0       ?bits_ac_luminance@?1??std_huff_tables@@9@9 0000000180057fc0     * CIL library *:* CIL module *
 0002:0000cfd8       ?val_dc_luminance@?1??std_huff_tables@@9@9 0000000180057fd8     * CIL library *:* CIL module *
 0002:0000cfe4       ?png_pass_yinc@?1??png_write_start_row@@9@9 0000000180057fe4     * CIL library *:* CIL module *
 0002:0000cff0       ?bits_ac_chrominance@?1??std_huff_tables@@9@9 0000000180057ff0     * CIL library *:* CIL module *
 0002:0000d008       D50_nCIEXYZ                0000000180058008     * CIL library *:* CIL module *
 0002:0000d014       ?png_pass_inc@?1??png_do_write_interlace@@9@9 0000000180058014     * CIL library *:* CIL module *
 0002:0000d020       ?val_ac_luminance@?1??std_huff_tables@@9@9 0000000180058020     * CIL library *:* CIL module *
 0002:0000d0c8       sRGB_xy                    00000001800580c8     * CIL library *:* CIL module *
 0002:0000d0e8       ?png_pass_inc@?1??png_write_finish_row@@9@9 00000001800580e8     * CIL library *:* CIL module *
 0002:0000d0f0       std_chrominance_quant_tbl  00000001800580f0     * CIL library *:* CIL module *
 0002:0000d1f0       ?val_ac_chrominance@?1??std_huff_tables@@9@9 00000001800581f0     * CIL library *:* CIL module *
 0002:0000d294       ?png_pass_ystart@?1??png_write_start_row@@9@9 0000000180058294     * CIL library *:* CIL module *
 0002:0000d2a0       std_luminance_quant_tbl    00000001800582a0     * CIL library *:* CIL module *
 0002:0000d3a0       ?bits_dc_chrominance@?1??std_huff_tables@@9@9 00000001800583a0     * CIL library *:* CIL module *
 0002:0000d3b8       ?valid_parameters@?3??png_formatted_warning@@9@9 00000001800583b8     * CIL library *:* CIL module *
 0002:0000d3c4       ?png_pass_start@?1??png_write_finish_row@@9@9 00000001800583c4     * CIL library *:* CIL module *
 0002:0000d3d0       ?bits_dc_luminance@?1??std_huff_tables@@9@9 00000001800583d0     * CIL library *:* CIL module *
 0002:0000d3e4       ?png_pass_ystart@?1??png_write_finish_row@@9@9 00000001800583e4     * CIL library *:* CIL module *
 0002:0000d5f0       ?short_months@?1??png_convert_to_rfc1123_buffer@@9@9 00000001800585f0     * CIL library *:* CIL module *
 0002:0000d620       png_sRGB_checks            0000000180058620     * CIL library *:* CIL module *
 0002:0000db00       ?chunks_to_ignore@?4??png_set_keep_unknown_chunks@@9@9 0000000180058b00     * CIL library *:* CIL module *
 0002:0000db58       ?my_version@?1??deflateInit2_@@9@9 0000000180058b58     * CIL library *:* CIL module *
 0002:0000db60       twobppswaptable            0000000180058b60     * CIL library *:* CIL module *
 0002:0000dc60       onebppswaptable            0000000180058c60     * CIL library *:* CIL module *
 0002:0000dd60       fourbppswaptable           0000000180058d60     * CIL library *:* CIL module *
 0002:0000de60       ?digits@?2??png_format_number@@9@9 0000000180058e60     * CIL library *:* CIL module *
 0002:0000de80       png_digit                  0000000180058e80     * CIL library *:* CIL module *
 0002:0000de90       crc_table                  0000000180058e90     * CIL library *:* CIL module *
 0002:0000fee0       configuration_table        000000018005aee0     * CIL library *:* CIL module *
 0002:00010280       static_dtree               000000018005b280     * CIL library *:* CIL module *
 0002:00010300       static_ltree               000000018005b300     * CIL library *:* CIL module *
 0002:00010780       extra_dbits                000000018005b780     * CIL library *:* CIL module *
 0002:00010800       base_length                000000018005b800     * CIL library *:* CIL module *
 0002:00010880       extra_blbits               000000018005b880     * CIL library *:* CIL module *
 0002:000108d0       extra_lbits                000000018005b8d0     * CIL library *:* CIL module *
 0002:00010950       bl_order                   000000018005b950     * CIL library *:* CIL module *
 0002:00010970       base_dist                  000000018005b970     * CIL library *:* CIL module *
 0002:000109e8       CodeMask                   000000018005b9e8     * CIL library *:* CIL module *
 0002:00015000       $cppxdata$?encodeToGifBuffer@@YAXAEBV?$FunctionCallbackInfo@VValue@v8@@@Nan@@@Z 0000000180060000     * CIL library *:* CIL module *
 0002:00015030       $cppxdata$?encodeToPngBuffer@@YAXAEBV?$FunctionCallbackInfo@VValue@v8@@@Nan@@@Z 0000000180060030     * CIL library *:* CIL module *
 0002:00015060       $cppxdata$?encodeToJpegBuffer@@YAXAEBV?$FunctionCallbackInfo@VValue@v8@@@Nan@@@Z 0000000180060060     * CIL library *:* CIL module *
 0002:00015090       $cppxdata$?SetFunction@Callback@Nan@@QEAAXAEBV?$Local@VFunction@v8@@@v8@@@Z 0000000180060090     * CIL library *:* CIL module *
 0002:000150c0       $cppxdata$??0Callback@Nan@@QEAA@AEBV?$Local@VFunction@v8@@@v8@@@Z 00000001800600c0     * CIL library *:* CIL module *
 0002:000150f0       $cppxdata$?New@?$Factory@VFunctionTemplate@v8@@@imp@Nan@@SA?AV?$Local@VFunctionTemplate@v8@@@v8@@P6AXAEBV?$FunctionCallbackInfo@VValue@v8@@@3@@ZV?$Local@VValue@v8@@@5@V?$Local@VSignature@v8@@@5@@Z 00000001800600f0     * CIL library *:* CIL module *
 0002:00015320       $cppxdata$?assign@?$CImg@D@cimg_library@@QEAAAEAU12@IIII@Z 0000000180060320     * CIL library *:* CIL module *
 0002:00015350       $cppxdata$??0?$CImg@D@cimg_library@@QEAA@IIII@Z 0000000180060350     * CIL library *:* CIL module *
 0002:00015380       $cppxdata$?Execute@EncodeToJpegBufferWorker@@UEAAXXZ 0000000180060380     * CIL library *:* CIL module *
 0002:000153b0       $cppxdata$?strbuffersize@cimg@cimg_library@@YAPEBDK@Z 00000001800603b0     * CIL library *:* CIL module *
 0002:000153e0       $cppxdata$?temporary_path@cimg@cimg_library@@YAPEBDQEBD_N@Z 00000001800603e0     * CIL library *:* CIL module *
 0002:00015410       $cppxdata$??0CImgArgumentException@cimg_library@@QEAA@AEBU01@@Z 0000000180060410     * CIL library *:* CIL module *
 0002:00015410       $cppxdata$??0CImgInstanceException@cimg_library@@QEAA@AEBU01@@Z 0000000180060410     * CIL library *:* CIL module *
 0002:00015410       $cppxdata$??0CImgIOException@cimg_library@@QEAA@AEBU01@@Z 0000000180060410     * CIL library *:* CIL module *
 0002:00015440       $cppxdata$??0CImgIOException@cimg_library@@QEAA@QEBDZZ 0000000180060440     * CIL library *:* CIL module *
 0002:00015470       $cppxdata$??0CImgInstanceException@cimg_library@@QEAA@QEBDZZ 0000000180060470     * CIL library *:* CIL module *
 0002:000154a0       $cppxdata$??0CImgArgumentException@cimg_library@@QEAA@QEBDZZ 00000001800604a0     * CIL library *:* CIL module *
 0002:000154d0       $cppxdata$??0CImgException@cimg_library@@QEAA@AEBU01@@Z 00000001800604d0     * CIL library *:* CIL module *
 0002:00015500       $cppxdata$?HandleErrorCallback@AsyncWorker@Nan@@MEAAXXZ 0000000180060500     * CIL library *:* CIL module *
 0002:00015530       $cppxdata$?SaveToPersistent@AsyncWorker@Nan@@QEAAXPEBDAEBV?$Local@VValue@v8@@@v8@@@Z 0000000180060530     * CIL library *:* CIL module *
 0002:00015560       $cppxdata$?WorkComplete@AsyncWorker@Nan@@UEAAXXZ 0000000180060560     * CIL library *:* CIL module *
 0002:00015590       $cppxdata$??1AsyncWorker@Nan@@UEAA@XZ 0000000180060590     * CIL library *:* CIL module *
 0002:000155c0       $cppxdata$??0AsyncWorker@Nan@@QEAA@PEAVCallback@1@@Z 00000001800605c0     * CIL library *:* CIL module *
 0002:000155f0       $cppxdata$?Call_@Callback@Nan@@AEBA?AV?$Local@VValue@v8@@@v8@@PEAVIsolate@4@V?$Local@VObject@v8@@@4@HQEAV34@@Z 00000001800605f0     * CIL library *:* CIL module *
 0002:00015620       $cppxdata$?Execute@EncodeToPngBufferWorker@@UEAAXXZ 0000000180060620     * CIL library *:* CIL module *
 0002:00015650       $cppxdata$??0EncodeToGifBufferWorker@@QEAA@AEAV?$Local@VObject@v8@@@v8@@_K1HH_N2HPEAVCallback@Nan@@@Z 0000000180060650     * CIL library *:* CIL module *
 0002:00015978       $unwind$?FunctionCallbackWrapper@imp@Nan@@YAXAEBV?$FunctionCallbackInfo@VValue@v8@@@v8@@@Z 0000000180060978     * CIL library *:* CIL module *
 0002:00015978       $unwind$_setargv           0000000180060978     * CIL library *:* CIL module *
 0002:00015988       $unwind$?New@?$Factory@VFunctionTemplate@v8@@@imp@Nan@@SA?AV?$Local@VFunctionTemplate@v8@@@v8@@P6AXAEBV?$FunctionCallbackInfo@VValue@v8@@@3@@ZV?$Local@VValue@v8@@@5@V?$Local@VSignature@v8@@@5@@Z 0000000180060988     * CIL library *:* CIL module *
 0002:000159a0       $stateUnwindMap$?New@?$Factory@VFunctionTemplate@v8@@@imp@Nan@@SA?AV?$Local@VFunctionTemplate@v8@@@v8@@P6AXAEBV?$FunctionCallbackInfo@VValue@v8@@@3@@ZV?$Local@VValue@v8@@@5@V?$Local@VSignature@v8@@@5@@Z 00000001800609a0     * CIL library *:* CIL module *
 0002:000159a8       $ip2state$?New@?$Factory@VFunctionTemplate@v8@@@imp@Nan@@SA?AV?$Local@VFunctionTemplate@v8@@@v8@@P6AXAEBV?$FunctionCallbackInfo@VValue@v8@@@3@@ZV?$Local@VValue@v8@@@5@V?$Local@VSignature@v8@@@5@@Z 00000001800609a8     * CIL library *:* CIL module *
 0002:000159c0       $unwind$??0Callback@Nan@@QEAA@AEBV?$Local@VFunction@v8@@@v8@@@Z 00000001800609c0     * CIL library *:* CIL module *
 0002:000159d8       $stateUnwindMap$??0Callback@Nan@@QEAA@AEBV?$Local@VFunction@v8@@@v8@@@Z 00000001800609d8     * CIL library *:* CIL module *
 0002:000159e8       $ip2state$??0Callback@Nan@@QEAA@AEBV?$Local@VFunction@v8@@@v8@@@Z 00000001800609e8     * CIL library *:* CIL module *
 0002:00015a10       $unwind$?SetFunction@Callback@Nan@@QEAAXAEBV?$Local@VFunction@v8@@@v8@@@Z 0000000180060a10     * CIL library *:* CIL module *
 0002:00015a24       $stateUnwindMap$?SetFunction@Callback@Nan@@QEAAXAEBV?$Local@VFunction@v8@@@v8@@@Z 0000000180060a24     * CIL library *:* CIL module *
 0002:00015a24       $stateUnwindMap$?SaveToPersistent@AsyncWorker@Nan@@QEAAXPEBDAEBV?$Local@VValue@v8@@@v8@@@Z 0000000180060a24     * CIL library *:* CIL module *
 0002:00015a24       $stateUnwindMap$?Call_@Callback@Nan@@AEBA?AV?$Local@VValue@v8@@@v8@@PEAVIsolate@4@V?$Local@VObject@v8@@@4@HQEAV34@@Z 0000000180060a24     * CIL library *:* CIL module *
 0002:00015a24       $stateUnwindMap$?HandleErrorCallback@AsyncWorker@Nan@@MEAAXXZ 0000000180060a24     * CIL library *:* CIL module *
 0002:00015a2c       $ip2state$?SetFunction@Callback@Nan@@QEAAXAEBV?$Local@VFunction@v8@@@v8@@@Z 0000000180060a2c     * CIL library *:* CIL module *
 0002:00015a44       $unwind$jpeg_finish_compress 0000000180060a44     * CIL library *:* CIL module *
 0002:00015a44       $unwind$??0bad_alloc@std@@QEAA@AEBV01@@Z 0000000180060a44     * CIL library *:* CIL module *
 0002:00015a44       $unwind$??1CImgIOException@cimg_library@@UEAA@XZ 0000000180060a44     * CIL library *:* CIL module *
 0002:00015a44       $unwind$__GSHandlerCheckCommon 0000000180060a44     * CIL library *:* CIL module *
 0002:00015a44       $unwind$png_zalloc         0000000180060a44     * CIL library *:* CIL module *
 0002:00015a44       $unwind$?Mutex_attr@cimg@cimg_library@@YAAEAUMutex_info@12@XZ 0000000180060a44     * CIL library *:* CIL module *
 0002:00015a44       $unwind$remove             0000000180060a44     * CIL library *:* CIL module *
 0002:00015a44       $unwind$calloc             0000000180060a44     * CIL library *:* CIL module *
 0002:00015a44       $unwind$__crtLoadWinApiPointers 0000000180060a44     * CIL library *:* CIL module *
 0002:00015a44       $unwind$_init_pointers     0000000180060a44     * CIL library *:* CIL module *
 0002:00015a44       $unwind$_cinit             0000000180060a44     * CIL library *:* CIL module *
 0002:00015a44       $unwind$__crtCorExitProcess 0000000180060a44     * CIL library *:* CIL module *
 0002:00015a44       $unwind$check_location     0000000180060a44     * CIL library *:* CIL module *
 0002:00015a44       $unwind$__getgmtimebuf     0000000180060a44     * CIL library *:* CIL module *
 0002:00015a44       $unwind$__crtExitProcess   0000000180060a44     * CIL library *:* CIL module *
 0002:00015a44       $unwind$_amsg_exit         0000000180060a44     * CIL library *:* CIL module *
 0002:00015a44       $unwind$png_write_data     0000000180060a44     * CIL library *:* CIL module *
 0002:00015a44       $unwind$wcscpy_s           0000000180060a44     * CIL library *:* CIL module *
 0002:00015a44       $unwind$png_fixed_inches_from_microns 0000000180060a44     * CIL library *:* CIL module *
 0002:00015a44       $unwind$png_malloc_default 0000000180060a44     * CIL library *:* CIL module *
 0002:00015a44       $unwind$??0bad_exception@std@@QEAA@AEBV01@@Z 0000000180060a44     * CIL library *:* CIL module *
 0002:00015a44       $unwind$load_exe_hook      0000000180060a44     * CIL library *:* CIL module *
 0002:00015a44       $unwind$png_malloc_array   0000000180060a44     * CIL library *:* CIL module *
 0002:00015a44       $unwind$png_info_init_3    0000000180060a44     * CIL library *:* CIL module *
 0002:00015a44       $unwind$?_Tidy@exception@std@@AEAAXXZ 0000000180060a44     * CIL library *:* CIL module *
 0002:00015a44       $unwind$??0exception@std@@QEAA@AEBV01@@Z 0000000180060a44     * CIL library *:* CIL module *
 0002:00015a44       $unwind$??0exception@std@@QEAA@AEBQEBD@Z 0000000180060a44     * CIL library *:* CIL module *
 0002:00015a44       $unwind$deflateEnd         0000000180060a44     * CIL library *:* CIL module *
 0002:00015a44       $unwind$??_Gexception@stdext@@UEAAPEAXI@Z 0000000180060a44     * CIL library *:* CIL module *
 0002:00015a44       $unwind$GifMakeSavedImage  0000000180060a44     * CIL library *:* CIL module *
 0002:00015a44       $unwind$_clrfp             0000000180060a44     * CIL library *:* CIL module *
 0002:00015a44       $unwind$_set_statfp        0000000180060a44     * CIL library *:* CIL module *
 0002:00015a44       $unwind$_CreateFrameInfo   0000000180060a44     * CIL library *:* CIL module *
 0002:00015a44       $unwind$png_malloc         0000000180060a44     * CIL library *:* CIL module *
 0002:00015a44       $unwind$_IsExceptionObjectToBeDestroyed 0000000180060a44     * CIL library *:* CIL module *
 0002:00015a44       $unwind$wcsncat_s          0000000180060a44     * CIL library *:* CIL module *
 0002:00015a44       $unwind$jinit_huff_encoder 0000000180060a44     * CIL library *:* CIL module *
 0002:00015a44       $unwind$png_muldiv         0000000180060a44     * CIL library *:* CIL module *
 0002:00015a44       $unwind$srand              0000000180060a44     * CIL library *:* CIL module *
 0002:00015a44       $unwind$png_malloc_warn    0000000180060a44     * CIL library *:* CIL module *
 0002:00015a44       $unwind$png_write_start_row 0000000180060a44     * CIL library *:* CIL module *
 0002:00015a44       $unwind$emit_message       0000000180060a44     * CIL library *:* CIL module *
 0002:00015a44       $unwind$png_error          0000000180060a44     * CIL library *:* CIL module *
 0002:00015a44       $unwind$_fflush_nolock     0000000180060a44     * CIL library *:* CIL module *
 0002:00015a44       $unwind$??1CImgException@cimg_library@@UEAA@XZ 0000000180060a44     * CIL library *:* CIL module *
 0002:00015a44       $unwind$jpeg_default_colorspace 0000000180060a44     * CIL library *:* CIL module *
 0002:00015a44       $unwind$strcpy_s           0000000180060a44     * CIL library *:* CIL module *
 0002:00015a44       $unwind$png_write_filtered_row 0000000180060a44     * CIL library *:* CIL module *
 0002:00015a44       $unwind$??1CImgArgumentException@cimg_library@@UEAA@XZ 0000000180060a44     * CIL library *:* CIL module *
 0002:00015a44       $unwind$jpeg_calc_jpeg_dimensions 0000000180060a44     * CIL library *:* CIL module *
 0002:00015a44       $unwind$select_scan_parameters 0000000180060a44     * CIL library *:* CIL module *
 0002:00015a44       $unwind$per_scan_setup     0000000180060a44     * CIL library *:* CIL module *
 0002:00015a44       $unwind$pass_startup       0000000180060a44     * CIL library *:* CIL module *
 0002:00015a44       $unwind$_lock_file         0000000180060a44     * CIL library *:* CIL module *
 0002:00015a44       $unwind$?fclose@cimg@cimg_library@@YAHPEAU_iobuf@@@Z 0000000180060a44     * CIL library *:* CIL module *
 0002:00015a44       $unwind$_mtinit            0000000180060a44     * CIL library *:* CIL module *
 0002:00015a44       $unwind$_freeptd           0000000180060a44     * CIL library *:* CIL module *
 0002:00015a44       $unwind$write_char         0000000180060a44     * CIL library *:* CIL module *
 0002:00015a44       $unwind$_lock_file2        0000000180060a44     * CIL library *:* CIL module *
 0002:00015a44       $unwind$_getptd            0000000180060a44     * CIL library *:* CIL module *
 0002:00015a44       $unwind$_freebuf           0000000180060a44     * CIL library *:* CIL module *
 0002:00015a44       $unwind$?AsyncExecuteComplete@Nan@@YAXPEAUuv_work_s@@@Z 0000000180060a44     * CIL library *:* CIL module *
 0002:00015a44       $unwind$jinit_marker_writer 0000000180060a44     * CIL library *:* CIL module *
 0002:00015a44       $unwind$emit_dri           0000000180060a44     * CIL library *:* CIL module *
 0002:00015a44       $unwind$emit_lse_ict       0000000180060a44     * CIL library *:* CIL module *
 0002:00015a44       $unwind$emit_sos           0000000180060a44     * CIL library *:* CIL module *
 0002:00015a44       $unwind$emit_pseudo_sos    0000000180060a44     * CIL library *:* CIL module *
 0002:00015a44       $unwind$emit_jfif_app0     0000000180060a44     * CIL library *:* CIL module *
 0002:00015a44       $unwind$emit_adobe_app14   0000000180060a44     * CIL library *:* CIL module *
 0002:00015a44       $unwind$write_marker_byte  0000000180060a44     * CIL library *:* CIL module *
 0002:00015a44       $unwind$write_file_trailer 0000000180060a44     * CIL library *:* CIL module *
 0002:00015a44       $unwind$??1CImgInstanceException@cimg_library@@UEAA@XZ 0000000180060a44     * CIL library *:* CIL module *
 0002:00015a44       $unwind$_getbuf            0000000180060a44     * CIL library *:* CIL module *
 0002:00015a44       $unwind$png_image_error    0000000180060a44     * CIL library *:* CIL module *
 0002:00015a44       $unwind$_SetThrowImageBase 0000000180060a44     * CIL library *:* CIL module *
 0002:00015a44       $unwind$wcsncpy_s          0000000180060a44     * CIL library *:* CIL module *
 0002:00015a44       $unwind$?__GetUnwindTryBlock@@YAHPEA_KPEAU_xDISPATCHER_CONTEXT@@PEBU_s_FuncInfo@@@Z 0000000180060a44     * CIL library *:* CIL module *
 0002:00015a44       $unwind$__raise_securityfailure 0000000180060a44     * CIL library *:* CIL module *
 0002:00015a44       $unwind$wcscat_s           0000000180060a44     * CIL library *:* CIL module *
 0002:00015a44       $unwind$_SetImageBase      0000000180060a44     * CIL library *:* CIL module *
 0002:00015a44       $unwind$__crtUnhandledException 0000000180060a44     * CIL library *:* CIL module *
 0002:00015a44       $unwind$build_bl_tree      0000000180060a44     * CIL library *:* CIL module *
 0002:00015a44       $unwind$??0_LocaleUpdate@@QEAA@PEAUlocaleinfo_struct@@@Z 0000000180060a44     * CIL library *:* CIL module *
 0002:00015a44       $unwind$write_char         0000000180060a44     * CIL library *:* CIL module *
 0002:00015a44       $unwind$__onexitinit       0000000180060a44     * CIL library *:* CIL module *
 0002:00015a44       $unwind$__crtTerminateProcess 0000000180060a44     * CIL library *:* CIL module *
 0002:00015a44       $unwind$_callnewh          0000000180060a44     * CIL library *:* CIL module *
 0002:00015a44       $unwind$__crtIsPackagedApp 0000000180060a44     * CIL library *:* CIL module *
 0002:00015a44       $unwind$start_pass_coef    0000000180060a44     * CIL library *:* CIL module *
 0002:00015a44       $unwind$write_char         0000000180060a44     * CIL library *:* CIL module *
 0002:00015a44       $unwind$jinit_c_main_controller 0000000180060a44     * CIL library *:* CIL module *
 0002:00015a44       $unwind$png_set_text       0000000180060a44     * CIL library *:* CIL module *
 0002:00015a44       $unwind$png_write_gAMA_fixed 0000000180060a44     * CIL library *:* CIL module *
 0002:00015a4c       $unwind$?Export@Nan@@YAXV?$Local@VObject@v8@@@v8@@PEBDP6AXAEBV?$FunctionCallbackInfo@VValue@v8@@@1@@Z@Z 0000000180060a4c     * CIL library *:* CIL module *
 0002:00015a5c       $unwind$?encodeToJpegBuffer@@YAXAEBV?$FunctionCallbackInfo@VValue@v8@@@Nan@@@Z 0000000180060a5c     * CIL library *:* CIL module *
 0002:00015a78       $stateUnwindMap$?encodeToJpegBuffer@@YAXAEBV?$FunctionCallbackInfo@VValue@v8@@@Nan@@@Z 0000000180060a78     * CIL library *:* CIL module *
 0002:00015a90       $ip2state$?encodeToJpegBuffer@@YAXAEBV?$FunctionCallbackInfo@VValue@v8@@@Nan@@@Z 0000000180060a90     * CIL library *:* CIL module *
 0002:00015ac8       $unwind$?encodeToPngBuffer@@YAXAEBV?$FunctionCallbackInfo@VValue@v8@@@Nan@@@Z 0000000180060ac8     * CIL library *:* CIL module *
 0002:00015ae4       $stateUnwindMap$?encodeToPngBuffer@@YAXAEBV?$FunctionCallbackInfo@VValue@v8@@@Nan@@@Z 0000000180060ae4     * CIL library *:* CIL module *
 0002:00015afc       $ip2state$?encodeToPngBuffer@@YAXAEBV?$FunctionCallbackInfo@VValue@v8@@@Nan@@@Z 0000000180060afc     * CIL library *:* CIL module *
 0002:00015b34       $unwind$?encodeToGifBuffer@@YAXAEBV?$FunctionCallbackInfo@VValue@v8@@@Nan@@@Z 0000000180060b34     * CIL library *:* CIL module *
 0002:00015b54       $stateUnwindMap$?encodeToGifBuffer@@YAXAEBV?$FunctionCallbackInfo@VValue@v8@@@Nan@@@Z 0000000180060b54     * CIL library *:* CIL module *
 0002:00015b64       $ip2state$?encodeToGifBuffer@@YAXAEBV?$FunctionCallbackInfo@VValue@v8@@@Nan@@@Z 0000000180060b64     * CIL library *:* CIL module *
 0002:00015b8c       $unwind$?InitAll@@YAXV?$Local@VObject@v8@@@v8@@@Z 0000000180060b8c     * CIL library *:* CIL module *
 0002:00015b94       $unwind$?Call_@Callback@Nan@@AEBA?AV?$Local@VValue@v8@@@v8@@PEAVIsolate@4@V?$Local@VObject@v8@@@4@HQEAV34@@Z 0000000180060b94     * CIL library *:* CIL module *
 0002:00015bac       $ip2state$?Call_@Callback@Nan@@AEBA?AV?$Local@VValue@v8@@@v8@@PEAVIsolate@4@V?$Local@VObject@v8@@@4@HQEAV34@@Z 0000000180060bac     * CIL library *:* CIL module *
 0002:00015bc4       $unwind$??0AsyncWorker@Nan@@QEAA@PEAVCallback@1@@Z 0000000180060bc4     * CIL library *:* CIL module *
 0002:00015bd8       $stateUnwindMap$??0AsyncWorker@Nan@@QEAA@PEAVCallback@1@@Z 0000000180060bd8     * CIL library *:* CIL module *
 0002:00015be8       $ip2state$??0AsyncWorker@Nan@@QEAA@PEAVCallback@1@@Z 0000000180060be8     * CIL library *:* CIL module *
 0002:00015c10       $unwind$??1AsyncWorker@Nan@@UEAA@XZ 0000000180060c10     * CIL library *:* CIL module *
 0002:00015c24       $stateUnwindMap$??1AsyncWorker@Nan@@UEAA@XZ 0000000180060c24     * CIL library *:* CIL module *
 0002:00015c3c       $ip2state$??1AsyncWorker@Nan@@UEAA@XZ 0000000180060c3c     * CIL library *:* CIL module *
 0002:00015c74       $unwind$?WorkComplete@AsyncWorker@Nan@@UEAAXXZ 0000000180060c74     * CIL library *:* CIL module *
 0002:00015c88       $stateUnwindMap$?WorkComplete@AsyncWorker@Nan@@UEAAXXZ 0000000180060c88     * CIL library *:* CIL module *
 0002:00015c98       $ip2state$?WorkComplete@AsyncWorker@Nan@@UEAAXXZ 0000000180060c98     * CIL library *:* CIL module *
 0002:00015cc0       $unwind$?SaveToPersistent@AsyncWorker@Nan@@QEAAXPEBDAEBV?$Local@VValue@v8@@@v8@@@Z 0000000180060cc0     * CIL library *:* CIL module *
 0002:00015cd8       $ip2state$?SaveToPersistent@AsyncWorker@Nan@@QEAAXPEBDAEBV?$Local@VValue@v8@@@v8@@@Z 0000000180060cd8     * CIL library *:* CIL module *
 0002:00015cf0       $unwind$?HandleOKCallback@AsyncWorker@Nan@@MEAAXXZ 0000000180060cf0     * CIL library *:* CIL module *
 0002:00015cfc       $unwind$?HandleErrorCallback@AsyncWorker@Nan@@MEAAXXZ 0000000180060cfc     * CIL library *:* CIL module *
 0002:00015d10       $ip2state$?HandleErrorCallback@AsyncWorker@Nan@@MEAAXXZ 0000000180060d10     * CIL library *:* CIL module *
 0002:00015d28       $unwind$_lseeki64_nolock   0000000180060d28     * CIL library *:* CIL module *
 0002:00015d28       $unwind$png_set_longjmp_fn 0000000180060d28     * CIL library *:* CIL module *
 0002:00015d28       $unwind$write_marker_header 0000000180060d28     * CIL library *:* CIL module *
 0002:00015d28       $unwind$__check_float_string 0000000180060d28     * CIL library *:* CIL module *
 0002:00015d28       $unwind$realloc            0000000180060d28     * CIL library *:* CIL module *
 0002:00015d28       $unwind$_mtinitlocks       0000000180060d28     * CIL library *:* CIL module *
 0002:00015d28       $unwind$png_write_complete_chunk 0000000180060d28     * CIL library *:* CIL module *
 0002:00015d28       $unwind$emit_restart_e     0000000180060d28     * CIL library *:* CIL module *
 0002:00015d28       $unwind$_getenv_helper_nolock 0000000180060d28     * CIL library *:* CIL module *
 0002:00015d28       $unwind$_DllMainCRTStartup 0000000180060d28     * CIL library *:* CIL module *
 0002:00015d28       $unwind$_ioterm            0000000180060d28     * CIL library *:* CIL module *
 0002:00015d28       $unwind$GifAddExtensionBlock 0000000180060d28     * CIL library *:* CIL module *
 0002:00015d28       $unwind$malloc             0000000180060d28     * CIL library *:* CIL module *
 0002:00015d28       $unwind$jpeg_fdct_1x1      0000000180060d28     * CIL library *:* CIL module *
 0002:00015d28       $unwind$jinit_forward_dct  0000000180060d28     * CIL library *:* CIL module *
 0002:00015d28       $unwind$_exception_enabled 0000000180060d28     * CIL library *:* CIL module *
 0002:00015d28       $unwind$jpeg_fdct_2x2      0000000180060d28     * CIL library *:* CIL module *
 0002:00015d28       $unwind$?SetErrorMessage@AsyncWorker@Nan@@IEAAXPEBD@Z 0000000180060d28     * CIL library *:* CIL module *
 0002:00015d28       $unwind$jinit_color_converter 0000000180060d28     * CIL library *:* CIL module *
 0002:00015d28       $unwind$png_colorspace_check_gamma 0000000180060d28     * CIL library *:* CIL module *
 0002:00015d28       $unwind$_flush             0000000180060d28     * CIL library *:* CIL module *
 0002:00015d28       $unwind$_recalloc          0000000180060d28     * CIL library *:* CIL module *
 0002:00015d28       $unwind$memcpy_s           0000000180060d28     * CIL library *:* CIL module *
 0002:00015d28       $unwind$_filbuf            0000000180060d28     * CIL library *:* CIL module *
 0002:00015d28       $unwind$EGifBufferedOutput 0000000180060d28     * CIL library *:* CIL module *
 0002:00015d28       $unwind$jpeg_fdct_2x1      0000000180060d28     * CIL library *:* CIL module *
 0002:00015d28       $unwind$jpeg_fdct_1x2      0000000180060d28     * CIL library *:* CIL module *
 0002:00015d28       $unwind$_gmtime64          0000000180060d28     * CIL library *:* CIL module *
 0002:00015d28       $unwind$send_all_trees     0000000180060d28     * CIL library *:* CIL module *
 0002:00015d28       $unwind$jpeg_fdct_2x4      0000000180060d28     * CIL library *:* CIL module *
 0002:00015d28       $unwind$emit_sof           0000000180060d28     * CIL library *:* CIL module *
 0002:00015d38       $unwind$_getptd_noexit     0000000180060d38     * CIL library *:* CIL module *
 0002:00015d38       $unwind$emit_2bytes        0000000180060d38     * CIL library *:* CIL module *
 0002:00015d38       $unwind$_fptostr           0000000180060d38     * CIL library *:* CIL module *
 0002:00015d38       $unwind$jinit_c_master_control 0000000180060d38     * CIL library *:* CIL module *
 0002:00015d38       $unwind$_dosmaperr         0000000180060d38     * CIL library *:* CIL module *
 0002:00015d38       $unwind$jpeg_set_colorspace 0000000180060d38     * CIL library *:* CIL module *
 0002:00015d38       $unwind$??_Gbad_alloc@std@@UEAAPEAXI@Z 0000000180060d38     * CIL library *:* CIL module *
 0002:00015d38       $unwind$png_set_gAMA       0000000180060d38     * CIL library *:* CIL module *
 0002:00015d38       $unwind$emit_marker        0000000180060d38     * CIL library *:* CIL module *
 0002:00015d38       $unwind$??_GCImgIOException@cimg_library@@UEAAPEAXI@Z 0000000180060d38     * CIL library *:* CIL module *
 0002:00015d38       $unwind$_fclose_nolock     0000000180060d38     * CIL library *:* CIL module *
 0002:00015d38       $unwind$start_pass_prep    0000000180060d38     * CIL library *:* CIL module *
 0002:00015d38       $unwind$png_check_fp_string 0000000180060d38     * CIL library *:* CIL module *
 0002:00015d38       $unwind$_updatetlocinfoEx_nolock 0000000180060d38     * CIL library *:* CIL module *
 0002:00015d38       $unwind$_calloc_impl       0000000180060d38     * CIL library *:* CIL module *
 0002:00015d38       $unwind$_FindAndUnlinkFrame 0000000180060d38     * CIL library *:* CIL module *
 0002:00015d38       $unwind$_close_nolock      0000000180060d38     * CIL library *:* CIL module *
 0002:00015d38       $unwind$jinit_compress_master 0000000180060d38     * CIL library *:* CIL module *
 0002:00015d38       $unwind$png_get_sCAL       0000000180060d38     * CIL library *:* CIL module *
 0002:00015d38       $unwind$_initterm_e        0000000180060d38     * CIL library *:* CIL module *
 0002:00015d38       $unwind$_RTC_Initialize    0000000180060d38     * CIL library *:* CIL module *
 0002:00015d38       $unwind$??_GEncodeToPngBufferWorker@@UEAAPEAXI@Z 0000000180060d38     * CIL library *:* CIL module *
 0002:00015d38       $unwind$??_GEncodeToJpegBufferWorker@@UEAAPEAXI@Z 0000000180060d38     * CIL library *:* CIL module *
 0002:00015d38       $unwind$png_write_sRGB     0000000180060d38     * CIL library *:* CIL module *
 0002:00015d38       $unwind$png_calloc         0000000180060d38     * CIL library *:* CIL module *
 0002:00015d38       $unwind$??_GAsyncWorker@Nan@@UEAAPEAXI@Z 0000000180060d38     * CIL library *:* CIL module *
 0002:00015d38       $unwind$finish_pass        0000000180060d38     * CIL library *:* CIL module *
 0002:00015d38       $unwind$??_Gtype_info@@UEAAPEAXI@Z 0000000180060d38     * CIL library *:* CIL module *
 0002:00015d38       $unwind$dump_buffer_e      0000000180060d38     * CIL library *:* CIL module *
 0002:00015d38       $unwind$png_convert_to_rfc1123 0000000180060d38     * CIL library *:* CIL module *
 0002:00015d38       $unwind$??4exception@std@@QEAAAEAV01@AEBV01@@Z 0000000180060d38     * CIL library *:* CIL module *
 0002:00015d38       $unwind$__freeCrtMemory    0000000180060d38     * CIL library *:* CIL module *
 0002:00015d38       $unwind$??_Gexception@std@@UEAAPEAXI@Z 0000000180060d38     * CIL library *:* CIL module *
 0002:00015d38       $unwind$finish_pass_master 0000000180060d38     * CIL library *:* CIL module *
 0002:00015d38       $unwind$png_do_write_transformations 0000000180060d38     * CIL library *:* CIL module *
 0002:00015d38       $unwind$prepare_for_pass   0000000180060d38     * CIL library *:* CIL module *
 0002:00015d38       $unwind$__initstdio        0000000180060d38     * CIL library *:* CIL module *
 0002:00015d38       $unwind$??_GEncodeToGifBufferWorker@@UEAAPEAXI@Z 0000000180060d38     * CIL library *:* CIL module *
 0002:00015d38       $unwind$write_file_header  0000000180060d38     * CIL library *:* CIL module *
 0002:00015d38       $unwind$??_GCImgException@cimg_library@@UEAAPEAXI@Z 0000000180060d38     * CIL library *:* CIL module *
 0002:00015d38       $unwind$??_GCImgArgumentException@cimg_library@@UEAAPEAXI@Z 0000000180060d38     * CIL library *:* CIL module *
 0002:00015d38       $unwind$??_GCImgInstanceException@cimg_library@@UEAAPEAXI@Z 0000000180060d38     * CIL library *:* CIL module *
 0002:00015d38       $unwind$_RTC_Terminate     0000000180060d38     * CIL library *:* CIL module *
 0002:00015d38       $unwind$??_Gbad_exception@std@@UEAAPEAXI@Z 0000000180060d38     * CIL library *:* CIL module *
 0002:00015d38       $unwind$_initp_misc_cfltcvt_tab 0000000180060d38     * CIL library *:* CIL module *
 0002:00015d38       $unwind$lm_init            0000000180060d38     * CIL library *:* CIL module *
 0002:00015d38       $unwind$?__SetUnwindTryBlock@@YAXPEA_KPEAU_xDISPATCHER_CONTEXT@@PEBU_s_FuncInfo@@H@Z 0000000180060d38     * CIL library *:* CIL module *
 0002:00015d38       $unwind$_ungetc_nolock     0000000180060d38     * CIL library *:* CIL module *
 0002:00015d38       $unwind$_lock              0000000180060d38     * CIL library *:* CIL module *
 0002:00015d44       $unwind$?_snprintf@cimg@cimg_library@@YAHQEAD_KQEBDZZ 0000000180060d44     * CIL library *:* CIL module *
 0002:00015d4c       $unwind$?_vsnprintf@cimg@cimg_library@@YAHQEAD_KQEBDPEAD@Z 0000000180060d4c     * CIL library *:* CIL module *
 0002:00015d4c       $unwind$png_colorspace_set_sRGB 0000000180060d4c     * CIL library *:* CIL module *
 0002:00015d4c       $unwind$png_get_sCAL_fixed 0000000180060d4c     * CIL library *:* CIL module *
 0002:00015d4c       $unwind$_strdup            0000000180060d4c     * CIL library *:* CIL module *
 0002:00015d5c       $unwind$??0CImgException@cimg_library@@QEAA@AEBU01@@Z 0000000180060d5c     * CIL library *:* CIL module *
 0002:00015d70       $stateUnwindMap$??0CImgArgumentException@cimg_library@@QEAA@AEBU01@@Z 0000000180060d70     * CIL library *:* CIL module *
 0002:00015d70       $stateUnwindMap$??0CImgInstanceException@cimg_library@@QEAA@AEBU01@@Z 0000000180060d70     * CIL library *:* CIL module *
 0002:00015d70       $stateUnwindMap$??0CImgException@cimg_library@@QEAA@AEBU01@@Z 0000000180060d70     * CIL library *:* CIL module *
 0002:00015d70       $stateUnwindMap$??0CImgIOException@cimg_library@@QEAA@AEBU01@@Z 0000000180060d70     * CIL library *:* CIL module *
 0002:00015d78       $ip2state$??0CImgException@cimg_library@@QEAA@AEBU01@@Z 0000000180060d78     * CIL library *:* CIL module *
 0002:00015d90       $unwind$??0CImgArgumentException@cimg_library@@QEAA@QEBDZZ 0000000180060d90     * CIL library *:* CIL module *
 0002:00015da0       $stateUnwindMap$??0CImgIOException@cimg_library@@QEAA@QEBDZZ 0000000180060da0     * CIL library *:* CIL module *
 0002:00015da0       $stateUnwindMap$??0CImgInstanceException@cimg_library@@QEAA@QEBDZZ 0000000180060da0     * CIL library *:* CIL module *
 0002:00015da0       $stateUnwindMap$??0CImgArgumentException@cimg_library@@QEAA@QEBDZZ 0000000180060da0     * CIL library *:* CIL module *
 0002:00015dc8       $ip2state$??0CImgArgumentException@cimg_library@@QEAA@QEBDZZ 0000000180060dc8     * CIL library *:* CIL module *
 0002:00015de8       $unwind$??0CImgInstanceException@cimg_library@@QEAA@QEBDZZ 0000000180060de8     * CIL library *:* CIL module *
 0002:00015df8       $ip2state$??0CImgInstanceException@cimg_library@@QEAA@QEBDZZ 0000000180060df8     * CIL library *:* CIL module *
 0002:00015e18       $unwind$??0CImgIOException@cimg_library@@QEAA@QEBDZZ 0000000180060e18     * CIL library *:* CIL module *
 0002:00015e28       $ip2state$??0CImgIOException@cimg_library@@QEAA@QEBDZZ 0000000180060e28     * CIL library *:* CIL module *
 0002:00015e48       $chain$1$?Mutex_attr@cimg@cimg_library@@YAAEAUMutex_info@12@XZ 0000000180060e48     * CIL library *:* CIL module *
 0002:00015e60       $chain$2$?Mutex_attr@cimg@cimg_library@@YAAEAUMutex_info@12@XZ 0000000180060e60     * CIL library *:* CIL module *
 0002:00015e70       $unwind$?warn@cimg@cimg_library@@YAXQEBDZZ 0000000180060e70     * CIL library *:* CIL module *
 0002:00015e78       $chain$0$?warn@cimg@cimg_library@@YAXQEBDZZ 0000000180060e78     * CIL library *:* CIL module *
 0002:00015e8c       $chain$1$?warn@cimg@cimg_library@@YAXQEBDZZ 0000000180060e8c     * CIL library *:* CIL module *
 0002:00015e9c       $unwind$?filenamerand@cimg@cimg_library@@YAPEBDXZ 0000000180060e9c     * CIL library *:* CIL module *
 0002:00015eb0       $unwind$png_set_text_compression_window_bits 0000000180060eb0     * CIL library *:* CIL module *
 0002:00015eb0       $unwind$__free_lconv_num   0000000180060eb0     * CIL library *:* CIL module *
 0002:00015eb0       $unwind$?winformat_string@cimg@cimg_library@@YAXQEAD@Z 0000000180060eb0     * CIL library *:* CIL module *
 0002:00015eb0       $unwind$png_set_compression_window_bits 0000000180060eb0     * CIL library *:* CIL module *
 0002:00015eb0       $unwind$png_convert_from_time_t 0000000180060eb0     * CIL library *:* CIL module *
 0002:00015eb0       $unwind$png_image_free     0000000180060eb0     * CIL library *:* CIL module *
 0002:00015eb0       $unwind$png_data_freer     0000000180060eb0     * CIL library *:* CIL module *
 0002:00015eb0       $unwind$png_set_add_alpha  0000000180060eb0     * CIL library *:* CIL module *
 0002:00015eb0       $unwind$png_write_chunk_end 0000000180060eb0     * CIL library *:* CIL module *
 0002:00015eb0       $unwind$free               0000000180060eb0     * CIL library *:* CIL module *
 0002:00015eb0       $unwind$png_write_flush    0000000180060eb0     * CIL library *:* CIL module *
 0002:00015eb8       $chain$0$?winformat_string@cimg@cimg_library@@YAXQEAD@Z 0000000180060eb8     * CIL library *:* CIL module *
 0002:00015ecc       $chain$1$?winformat_string@cimg@cimg_library@@YAXQEAD@Z 0000000180060ecc     * CIL library *:* CIL module *
 0002:00015edc       $unwind$??0CImgArgumentException@cimg_library@@QEAA@AEBU01@@Z 0000000180060edc     * CIL library *:* CIL module *
 0002:00015edc       $unwind$??0CImgIOException@cimg_library@@QEAA@AEBU01@@Z 0000000180060edc     * CIL library *:* CIL module *
 0002:00015edc       $unwind$??0CImgInstanceException@cimg_library@@QEAA@AEBU01@@Z 0000000180060edc     * CIL library *:* CIL module *
 0002:00015ef0       $ip2state$??0CImgArgumentException@cimg_library@@QEAA@AEBU01@@Z 0000000180060ef0     * CIL library *:* CIL module *
 0002:00015ef0       $ip2state$??0CImgIOException@cimg_library@@QEAA@AEBU01@@Z 0000000180060ef0     * CIL library *:* CIL module *
 0002:00015ef0       $ip2state$??0CImgInstanceException@cimg_library@@QEAA@AEBU01@@Z 0000000180060ef0     * CIL library *:* CIL module *
 0002:00015f08       $unwind$png_image_free_function 0000000180060f08     * CIL library *:* CIL module *
 0002:00015f08       $unwind$?info@cimg@cimg_library@@YAXXZ 0000000180060f08     * CIL library *:* CIL module *
 0002:00015f08       $unwind$finish_pass_huff   0000000180060f08     * CIL library *:* CIL module *
 0002:00015f14       $unwind$?temporary_path@cimg@cimg_library@@YAPEBDQEBD_N@Z 0000000180060f14     * CIL library *:* CIL module *
 0002:00015f34       $stateUnwindMap$?temporary_path@cimg@cimg_library@@YAPEBDQEBD_N@Z 0000000180060f34     * CIL library *:* CIL module *
 0002:00015f44       $ip2state$?temporary_path@cimg@cimg_library@@YAPEBDQEBD_N@Z 0000000180060f44     * CIL library *:* CIL module *
 0002:00015f7c       $unwind$_vswprintf_c_l     0000000180060f7c     * CIL library *:* CIL module *
 0002:00015f7c       $unwind$_vsnprintf         0000000180060f7c     * CIL library *:* CIL module *
 0002:00015f7c       $unwind$_itow_s            0000000180060f7c     * CIL library *:* CIL module *
 0002:00015f7c       $unwind$?programfiles_path@cimg@cimg_library@@YAPEBDQEBD_N@Z 0000000180060f7c     * CIL library *:* CIL module *
 0002:00015f7c       $unwind$_cfltcvt_l         0000000180060f7c     * CIL library *:* CIL module *
 0002:00015f7c       $unwind$_invalid_parameter_noinfo 0000000180060f7c     * CIL library *:* CIL module *
 0002:00015f7c       $unwind$_sopen_s           0000000180060f7c     * CIL library *:* CIL module *
 0002:00015f7c       $unwind$?medcon_path@cimg@cimg_library@@YAPEBDQEBD_N@Z 0000000180060f7c     * CIL library *:* CIL module *
 0002:00015f7c       $unwind$_vsnprintf_s       0000000180060f7c     * CIL library *:* CIL module *
 0002:00015f7c       $unwind$wctomb_s           0000000180060f7c     * CIL library *:* CIL module *
 0002:00015f84       $unwind$?graphicsmagick_path@cimg@cimg_library@@YAPEBDQEBD_N@Z 0000000180060f84     * CIL library *:* CIL module *
 0002:00015f84       $unwind$?imagemagick_path@cimg@cimg_library@@YAPEBDQEBD_N@Z 0000000180060f84     * CIL library *:* CIL module *
 0002:00015f90       $chain$4$?imagemagick_path@cimg@cimg_library@@YAPEBDQEBD_N@Z 0000000180060f90     * CIL library *:* CIL module *
 0002:00015fb0       $chain$5$?imagemagick_path@cimg@cimg_library@@YAPEBDQEBD_N@Z 0000000180060fb0     * CIL library *:* CIL module *
 0002:00015fcc       $chain$6$?imagemagick_path@cimg@cimg_library@@YAPEBDQEBD_N@Z 0000000180060fcc     * CIL library *:* CIL module *
 0002:00015fe4       $chain$7$?imagemagick_path@cimg@cimg_library@@YAPEBDQEBD_N@Z 0000000180060fe4     * CIL library *:* CIL module *
 0002:00015ff8       $chain$8$?imagemagick_path@cimg@cimg_library@@YAPEBDQEBD_N@Z 0000000180060ff8     * CIL library *:* CIL module *
 0002:00016008       $chain$4$?graphicsmagick_path@cimg@cimg_library@@YAPEBDQEBD_N@Z 0000000180061008     * CIL library *:* CIL module *
 0002:00016028       $chain$5$?graphicsmagick_path@cimg@cimg_library@@YAPEBDQEBD_N@Z 0000000180061028     * CIL library *:* CIL module *
 0002:00016044       $chain$6$?graphicsmagick_path@cimg@cimg_library@@YAPEBDQEBD_N@Z 0000000180061044     * CIL library *:* CIL module *
 0002:0001605c       $chain$7$?graphicsmagick_path@cimg@cimg_library@@YAPEBDQEBD_N@Z 000000018006105c     * CIL library *:* CIL module *
 0002:00016070       $chain$8$?graphicsmagick_path@cimg@cimg_library@@YAPEBDQEBD_N@Z 0000000180061070     * CIL library *:* CIL module *
 0002:00016080       $chain$0$?medcon_path@cimg@cimg_library@@YAPEBDQEBD_N@Z 0000000180061080     * CIL library *:* CIL module *
 0002:00016094       $chain$1$?medcon_path@cimg@cimg_library@@YAPEBDQEBD_N@Z 0000000180061094     * CIL library *:* CIL module *
 0002:000160a4       $unwind$?strbuffersize@cimg@cimg_library@@YAPEBDK@Z 00000001800610a4     * CIL library *:* CIL module *
 0002:000160b4       $stateUnwindMap$?strbuffersize@cimg@cimg_library@@YAPEBDK@Z 00000001800610b4     * CIL library *:* CIL module *
 0002:000160bc       $ip2state$?strbuffersize@cimg@cimg_library@@YAPEBDK@Z 00000001800610bc     * CIL library *:* CIL module *
 0002:000160d4       $unwind$?dtor$0@?0??strbuffersize@cimg@cimg_library@@YAPEBDK@Z@4HA 00000001800610d4     * CIL library *:* CIL module *
 0002:000160d4       $unwind$png_image_size     00000001800610d4     * CIL library *:* CIL module *
 0002:000160dc       $unwind$png_reciprocal     00000001800610dc     * CIL library *:* CIL module *
 0002:000160dc       $unwind$_isatty            00000001800610dc     * CIL library *:* CIL module *
 0002:000160dc       $unwind$abort              00000001800610dc     * CIL library *:* CIL module *
 0002:000160dc       $unwind$png_get_pixels_per_inch 00000001800610dc     * CIL library *:* CIL module *
 0002:000160dc       $unwind$__crtInitializeCriticalSectionEx 00000001800610dc     * CIL library *:* CIL module *
 0002:000160dc       $unwind$__report_rangecheckfailure 00000001800610dc     * CIL library *:* CIL module *
 0002:000160dc       $unwind$deflateResetKeep   00000001800610dc     * CIL library *:* CIL module *
 0002:000160dc       $unwind$_set_error_mode    00000001800610dc     * CIL library *:* CIL module *
 0002:000160dc       $unwind$_strnicmp          00000001800610dc     * CIL library *:* CIL module *
 0002:000160dc       $unwind$_stricmp           00000001800610dc     * CIL library *:* CIL module *
 0002:000160dc       $unwind$_fileno            00000001800610dc     * CIL library *:* CIL module *
 0002:000160dc       $unwind$__GSHandlerCheck   00000001800610dc     * CIL library *:* CIL module *
 0002:000160dc       $unwind$_initp_eh_hooks    00000001800610dc     * CIL library *:* CIL module *
 0002:000160dc       $unwind$__termconout       00000001800610dc     * CIL library *:* CIL module *
 0002:000160dc       $unwind$_statfp            00000001800610dc     * CIL library *:* CIL module *
 0002:000160dc       $unwind$atexit             00000001800610dc     * CIL library *:* CIL module *
 0002:000160dc       $unwind$_FF_MSGBANNER      00000001800610dc     * CIL library *:* CIL module *
 0002:000160dc       $unwind$_set_errno_from_matherr 00000001800610dc     * CIL library *:* CIL module *
 0002:000160dc       $unwind$_errno             00000001800610dc     * CIL library *:* CIL module *
 0002:000160dc       $unwind$__doserrno         00000001800610dc     * CIL library *:* CIL module *
 0002:000160dc       $unwind$png_benign_error   00000001800610dc     * CIL library *:* CIL module *
 0002:000160dc       $unwind$EGifPutWord        00000001800610dc     * CIL library *:* CIL module *
 0002:000160dc       $unwind$png_app_error      00000001800610dc     * CIL library *:* CIL module *
 0002:000160dc       $unwind$_get_fmode         00000001800610dc     * CIL library *:* CIL module *
 0002:000160dc       $unwind$_GetImageBase      00000001800610dc     * CIL library *:* CIL module *
 0002:000160dc       $unwind$_GetThrowImageBase 00000001800610dc     * CIL library *:* CIL module *
 0002:000160dc       $unwind$__initmbctable     00000001800610dc     * CIL library *:* CIL module *
 0002:000160dc       $unwind$_get_osfhandle     00000001800610dc     * CIL library *:* CIL module *
 0002:000160dc       $unwind$?__GetCurrentState@@YAHPEA_KPEAU_xDISPATCHER_CONTEXT@@PEBU_s_FuncInfo@@@Z 00000001800610dc     * CIL library *:* CIL module *
 0002:000160dc       $unwind$_purecall          00000001800610dc     * CIL library *:* CIL module *
 0002:000160dc       $unwind$_wremove           00000001800610dc     * CIL library *:* CIL module *
 0002:000160dc       $unwind$__FrameUnwindFilter 00000001800610dc     * CIL library *:* CIL module *
 0002:000160dc       $unwind$_mtterm            00000001800610dc     * CIL library *:* CIL module *
 0002:000160dc       $unwind$png_write_finish_row 00000001800610dc     * CIL library *:* CIL module *
 0002:000160dc       $unwind$png_app_warning    00000001800610dc     * CIL library *:* CIL module *
 0002:000160dc       $unwind$??8type_info@@QEBA_NAEBV0@@Z 00000001800610dc     * CIL library *:* CIL module *
 0002:000160dc       $unwind$_inc               00000001800610dc     * CIL library *:* CIL module *
 0002:000160dc       $unwind$?lwip_jpeg_error_exit@@YAXPEAUjpeg_common_struct@@@Z 00000001800610dc     * CIL library *:* CIL module *
 0002:000160dc       $unwind$png_write_sBIT     00000001800610dc     * CIL library *:* CIL module *
 0002:000160dc       $unwind$_invoke_watson     00000001800610dc     * CIL library *:* CIL module *
 0002:000160dc       $unwind$png_longjmp        00000001800610dc     * CIL library *:* CIL module *
 0002:000160dc       $unwind$_heap_init         00000001800610dc     * CIL library *:* CIL module *
 0002:000160dc       $unwind$rand               00000001800610dc     * CIL library *:* CIL module *
 0002:000160dc       $unwind$png_safe_error     00000001800610dc     * CIL library *:* CIL module *
 0002:000160dc       $unwind$png_get_x_pixels_per_inch 00000001800610dc     * CIL library *:* CIL module *
 0002:000160dc       $unwind$_msize             00000001800610dc     * CIL library *:* CIL module *
 0002:000160dc       $unwind$png_get_y_pixels_per_inch 00000001800610dc     * CIL library *:* CIL module *
 0002:000160dc       $unwind$ferror             00000001800610dc     * CIL library *:* CIL module *
 0002:000160dc       $unwind$__endstdio         00000001800610dc     * CIL library *:* CIL module *
 0002:000160dc       $unwind$__crtDownlevelLocaleNameToLCID 00000001800610dc     * CIL library *:* CIL module *
 0002:000160e4       $unwind$?Execute@EncodeToJpegBufferWorker@@UEAAXXZ 00000001800610e4     * CIL library *:* CIL module *
 0002:0001610c       $stateUnwindMap$?Execute@EncodeToJpegBufferWorker@@UEAAXXZ 000000018006110c     * CIL library *:* CIL module *
 0002:00016114       $ip2state$?Execute@EncodeToJpegBufferWorker@@UEAAXXZ 0000000180061114     * CIL library *:* CIL module *
 0002:0001612c       $unwind$?HandleOKCallback@EncodeToJpegBufferWorker@@UEAAXXZ 000000018006112c     * CIL library *:* CIL module *
 0002:0001612c       $unwind$?HandleOKCallback@EncodeToGifBufferWorker@@UEAAXXZ 000000018006112c     * CIL library *:* CIL module *
 0002:0001612c       $unwind$?HandleOKCallback@EncodeToPngBufferWorker@@UEAAXXZ 000000018006112c     * CIL library *:* CIL module *
 0002:00016138       $unwind$??0?$CImg@D@cimg_library@@QEAA@IIII@Z 0000000180061138     * CIL library *:* CIL module *
 0002:0001614c       $stateUnwindMap$?assign@?$CImg@D@cimg_library@@QEAAAEAU12@IIII@Z 000000018006114c     * CIL library *:* CIL module *
 0002:0001614c       $stateUnwindMap$??0?$CImg@D@cimg_library@@QEAA@IIII@Z 000000018006114c     * CIL library *:* CIL module *
 0002:0001615c       $tryMap$??0?$CImg@D@cimg_library@@QEAA@IIII@Z 000000018006115c     * CIL library *:* CIL module *
 0002:00016170       $handlerMap$0$??0?$CImg@D@cimg_library@@QEAA@IIII@Z 0000000180061170     * CIL library *:* CIL module *
 0002:00016184       $ip2state$??0?$CImg@D@cimg_library@@QEAA@IIII@Z 0000000180061184     * CIL library *:* CIL module *
 0002:000161ac       $unwind$?catch$0@?0???0?$CImg@D@cimg_library@@QEAA@IIII@Z@4HA 00000001800611ac     * CIL library *:* CIL module *
 0002:000161c0       $unwind$?assign@?$CImg@D@cimg_library@@QEAAAEAU12@IIII@Z 00000001800611c0     * CIL library *:* CIL module *
 0002:000161d8       $tryMap$?assign@?$CImg@D@cimg_library@@QEAAAEAU12@IIII@Z 00000001800611d8     * CIL library *:* CIL module *
 0002:000161ec       $handlerMap$0$?assign@?$CImg@D@cimg_library@@QEAAAEAU12@IIII@Z 00000001800611ec     * CIL library *:* CIL module *
 0002:00016200       $ip2state$?assign@?$CImg@D@cimg_library@@QEAAAEAU12@IIII@Z 0000000180061200     * CIL library *:* CIL module *
 0002:00016228       $unwind$?catch$0@?0??assign@?$CImg@D@cimg_library@@QEAAAEAU12@IIII@Z@4HA 0000000180061228     * CIL library *:* CIL module *
 0002:0001623c       $unwind$?Execute@EncodeToPngBufferWorker@@UEAAXXZ 000000018006123c     * CIL library *:* CIL module *
 0002:00016264       $stateUnwindMap$?Execute@EncodeToPngBufferWorker@@UEAAXXZ 0000000180061264     * CIL library *:* CIL module *
 0002:0001626c       $ip2state$?Execute@EncodeToPngBufferWorker@@UEAAXXZ 000000018006126c     * CIL library *:* CIL module *
 0002:00016284       $unwind$?pngWriteCB@@YAXPEAUpng_struct_def@@PEAE_K@Z 0000000180061284     * CIL library *:* CIL module *
 0002:00016284       $unwind$_initterm          0000000180061284     * CIL library *:* CIL module *
 0002:00016284       $unwind$?gifWriteCB@@YAHPEAUGifFileType@@PEBEH@Z 0000000180061284     * CIL library *:* CIL module *
 0002:00016284       $unwind$xtow_s             0000000180061284     * CIL library *:* CIL module *
 0002:00016284       $unwind$?__StateFromIp@@YAHPEBU_s_FuncInfo@@PEAU_xDISPATCHER_CONTEXT@@_J@Z 0000000180061284     * CIL library *:* CIL module *
 0002:00016284       $unwind$_gmtime64_s        0000000180061284     * CIL library *:* CIL module *
 0002:00016284       $unwind$write_tables_only  0000000180061284     * CIL library *:* CIL module *
 0002:00016284       $unwind$empty_mem_output_buffer 0000000180061284     * CIL library *:* CIL module *
 0002:00016284       $unwind$realize_virt_arrays 0000000180061284     * CIL library *:* CIL module *
 0002:00016284       $unwind$jpeg_add_quant_table 0000000180061284     * CIL library *:* CIL module *
 0002:00016284       $unwind$write_frame_header 0000000180061284     * CIL library *:* CIL module *
 0002:00016284       $unwind$__freetlocinfo     0000000180061284     * CIL library *:* CIL module *
 0002:00016284       $unwind$_mtdeletelocks     0000000180061284     * CIL library *:* CIL module *
 0002:00016284       $unwind$?setSBCS@@YAXPEAUthreadmbcinfostruct@@@Z 0000000180061284     * CIL library *:* CIL module *
 0002:00016284       $unwind$jpeg_CreateCompress 0000000180061284     * CIL library *:* CIL module *
 0002:00016284       $unwind$_XcptFilter        0000000180061284     * CIL library *:* CIL module *
 0002:00016298       $unwind$??0EncodeToGifBufferWorker@@QEAA@AEAV?$Local@VObject@v8@@@v8@@_K1HH_N2HPEAVCallback@Nan@@@Z 0000000180061298     * CIL library *:* CIL module *
 0002:000162b0       $stateUnwindMap$??0EncodeToGifBufferWorker@@QEAA@AEAV?$Local@VObject@v8@@@v8@@_K1HH_N2HPEAVCallback@Nan@@@Z 00000001800612b0     * CIL library *:* CIL module *
 0002:000162b8       $ip2state$??0EncodeToGifBufferWorker@@QEAA@AEAV?$Local@VObject@v8@@@v8@@_K1HH_N2HPEAVCallback@Nan@@@Z 00000001800612b8     * CIL library *:* CIL module *
 0002:000162d0       $unwind$?Execute@EncodeToGifBufferWorker@@UEAAXXZ 00000001800612d0     * CIL library *:* CIL module *
 0002:000162e4       $chain$0$?Execute@EncodeToGifBufferWorker@@UEAAXXZ 00000001800612e4     * CIL library *:* CIL module *
 0002:000162f8       $chain$1$?Execute@EncodeToGifBufferWorker@@UEAAXXZ 00000001800612f8     * CIL library *:* CIL module *
 0002:0001630c       $chain$2$?Execute@EncodeToGifBufferWorker@@UEAAXXZ 000000018006130c     * CIL library *:* CIL module *
 0002:0001631c       $chain$3$?Execute@EncodeToGifBufferWorker@@UEAAXXZ 000000018006131c     * CIL library *:* CIL module *
 0002:0001632c       $unwind$_set_osfhnd        000000018006132c     * CIL library *:* CIL module *
 0002:0001632c       $unwind$jpeg_fdct_3x3      000000018006132c     * CIL library *:* CIL module *
 0002:0001632c       $unwind$jpeg_mem_dest      000000018006132c     * CIL library *:* CIL module *
 0002:00016340       $unwind$output_message     0000000180061340     * CIL library *:* CIL module *
 0002:00016350       $unwind$floor              0000000180061350     * CIL library *:* CIL module *
 0002:00016350       $unwind$format_message     0000000180061350     * CIL library *:* CIL module *
 0002:00016358       $unwind$jpeg_fdct_float    0000000180061358     * CIL library *:* CIL module *
 0002:00016390       $unwind$jpeg_fdct_ifast    0000000180061390     * CIL library *:* CIL module *
 0002:000163a8       $unwind$jpeg_fdct_islow    00000001800613a8     * CIL library *:* CIL module *
 0002:000163c0       $unwind$jpeg_fdct_7x7      00000001800613c0     * CIL library *:* CIL module *
 0002:000163d8       $unwind$jpeg_fdct_6x3      00000001800613d8     * CIL library *:* CIL module *
 0002:000163d8       $unwind$htest_one_block    00000001800613d8     * CIL library *:* CIL module *
 0002:000163d8       $unwind$SubdivColorMap     00000001800613d8     * CIL library *:* CIL module *
 0002:000163d8       $unwind$jpeg_fdct_6x6      00000001800613d8     * CIL library *:* CIL module *
 0002:000163d8       $unwind$?IsInExceptionSpec@@YAEPEAUEHExceptionRecord@@PEBU_s_ESTypeList@@@Z 00000001800613d8     * CIL library *:* CIL module *
 0002:000163f4       $unwind$jpeg_fdct_5x5      00000001800613f4     * CIL library *:* CIL module *
 0002:000163f4       $unwind$build_tree         00000001800613f4     * CIL library *:* CIL module *
 0002:000163f4       $unwind$alloc_barray       00000001800613f4     * CIL library *:* CIL module *
 0002:000163f4       $unwind$self_destruct      00000001800613f4     * CIL library *:* CIL module *
 0002:000163f4       $unwind$alloc_sarray       00000001800613f4     * CIL library *:* CIL module *
 0002:00016410       $unwind$png_check_IHDR     0000000180061410     * CIL library *:* CIL module *
 0002:00016410       $unwind$std_huff_tables    0000000180061410     * CIL library *:* CIL module *
 0002:00016410       $unwind$request_virt_barray 0000000180061410     * CIL library *:* CIL module *
 0002:00016410       $unwind$request_virt_sarray 0000000180061410     * CIL library *:* CIL module *
 0002:00016410       $unwind$_tr_flush_block    0000000180061410     * CIL library *:* CIL module *
 0002:00016410       $unwind$jpeg_fdct_3x6      0000000180061410     * CIL library *:* CIL module *
 0002:00016410       $unwind$alloc_large        0000000180061410     * CIL library *:* CIL module *
 0002:00016410       $unwind$jpeg_fdct_4x4      0000000180061410     * CIL library *:* CIL module *
 0002:00016410       $unwind$encode_mcu_DC_refine 0000000180061410     * CIL library *:* CIL module *
 0002:00016428       $unwind$jpeg_fdct_9x9      0000000180061428     * CIL library *:* CIL module *
 0002:0001644c       $unwind$jpeg_fdct_10x10    000000018006144c     * CIL library *:* CIL module *
 0002:00016474       $unwind$jpeg_fdct_5x10     0000000180061474     * CIL library *:* CIL module *
 0002:00016474       $unwind$jpeg_fdct_11x11    0000000180061474     * CIL library *:* CIL module *
 0002:0001649c       $unwind$jpeg_fdct_12x12    000000018006149c     * CIL library *:* CIL module *
 0002:000164c4       $unwind$jpeg_fdct_13x13    00000001800614c4     * CIL library *:* CIL module *
 0002:000164c4       $unwind$jpeg_fdct_6x12     00000001800614c4     * CIL library *:* CIL module *
 0002:000164ec       $unwind$jpeg_fdct_14x14    00000001800614ec     * CIL library *:* CIL module *
 0002:00016514       $unwind$encode_mcu_AC_refine 0000000180061514     * CIL library *:* CIL module *
 0002:00016514       $unwind$jpeg_fdct_15x15    0000000180061514     * CIL library *:* CIL module *
 0002:0001653c       $unwind$jpeg_fdct_8x16     000000018006153c     * CIL library *:* CIL module *
 0002:0001653c       $unwind$jpeg_fdct_16x16    000000018006153c     * CIL library *:* CIL module *
 0002:00016564       $unwind$jpeg_fdct_16x8     0000000180061564     * CIL library *:* CIL module *
 0002:0001657c       $unwind$jpeg_fdct_14x7     000000018006157c     * CIL library *:* CIL module *
 0002:0001657c       $unwind$jpeg_fdct_10x5     000000018006157c     * CIL library *:* CIL module *
 0002:00016594       $unwind$jpeg_fdct_8x4      0000000180061594     * CIL library *:* CIL module *
 0002:00016594       $unwind$png_icc_check_tag_table 0000000180061594     * CIL library *:* CIL module *
 0002:00016594       $unwind$jpeg_fdct_12x6     0000000180061594     * CIL library *:* CIL module *
 0002:000165ac       $unwind$write_string       00000001800615ac     * CIL library *:* CIL module *
 0002:000165ac       $unwind$jpeg_fdct_4x2      00000001800615ac     * CIL library *:* CIL module *
 0002:000165ac       $unwind$_recalloc_crt      00000001800615ac     * CIL library *:* CIL module *
 0002:000165ac       $unwind$write_string       00000001800615ac     * CIL library *:* CIL module *
 0002:000165ac       $unwind$png_write_compressed_data_out 00000001800615ac     * CIL library *:* CIL module *
 0002:000165ac       $unwind$write_string       00000001800615ac     * CIL library *:* CIL module *
 0002:000165c4       $unwind$jpeg_fdct_7x14     00000001800615c4     * CIL library *:* CIL module *
 0002:000165ec       $unwind$jpeg_fdct_4x8      00000001800615ec     * CIL library *:* CIL module *
 0002:00016608       $unwind$alloc_small        0000000180061608     * CIL library *:* CIL module *
 0002:00016620       $chain$0$alloc_small       0000000180061620     * CIL library *:* CIL module *
 0002:00016634       $chain$1$alloc_small       0000000180061634     * CIL library *:* CIL module *
 0002:00016644       $unwind$access_virt_sarray 0000000180061644     * CIL library *:* CIL module *
 0002:0001665c       $chain$2$access_virt_sarray 000000018006165c     * CIL library *:* CIL module *
 0002:00016670       $chain$3$access_virt_sarray 0000000180061670     * CIL library *:* CIL module *
 0002:00016680       $unwind$access_virt_barray 0000000180061680     * CIL library *:* CIL module *
 0002:00016698       $chain$2$access_virt_barray 0000000180061698     * CIL library *:* CIL module *
 0002:000166ac       $chain$3$access_virt_barray 00000001800616ac     * CIL library *:* CIL module *
 0002:000166bc       $unwind$free_pool          00000001800616bc     * CIL library *:* CIL module *
 0002:000166c8       $chain$2$free_pool         00000001800616c8     * CIL library *:* CIL module *
 0002:000166e4       $chain$3$free_pool         00000001800616e4     * CIL library *:* CIL module *
 0002:000166f8       $unwind$png_write_PLTE     00000001800616f8     * CIL library *:* CIL module *
 0002:000166f8       $unwind$jinit_memory_mgr   00000001800616f8     * CIL library *:* CIL module *
 0002:000166f8       $unwind$png_compare_ICC_profile_with_sRGB 00000001800616f8     * CIL library *:* CIL module *
 0002:00016708       $chain$0$jpeg_finish_compress 0000000180061708     * CIL library *:* CIL module *
 0002:0001671c       $chain$1$jpeg_finish_compress 000000018006171c     * CIL library *:* CIL module *
 0002:0001672c       $unwind$compress_data      000000018006172c     * CIL library *:* CIL module *
 0002:00016744       $unwind$compress_first_pass 0000000180061744     * CIL library *:* CIL module *
 0002:00016750       $chain$5$compress_first_pass 0000000180061750     * CIL library *:* CIL module *
 0002:00016778       $chain$6$compress_first_pass 0000000180061778     * CIL library *:* CIL module *
 0002:00016788       $unwind$compress_output    0000000180061788     * CIL library *:* CIL module *
 0002:000167ac       $unwind$png_icc_check_header 00000001800617ac     * CIL library *:* CIL module *
 0002:000167ac       $unwind$_invalid_parameter 00000001800617ac     * CIL library *:* CIL module *
 0002:000167ac       $unwind$jinit_c_coef_controller 00000001800617ac     * CIL library *:* CIL module *
 0002:000167ac       $unwind$_setenvp           00000001800617ac     * CIL library *:* CIL module *
 0002:000167c0       $unwind$rgb_ycc_start      00000001800617c0     * CIL library *:* CIL module *
 0002:000167cc       $chain$7$rgb_ycc_start     00000001800617cc     * CIL library *:* CIL module *
 0002:000167fc       $chain$9$rgb_ycc_start     00000001800617fc     * CIL library *:* CIL module *
 0002:00016810       $unwind$rgb_ycc_convert    0000000180061810     * CIL library *:* CIL module *
 0002:00016820       $chain$3$rgb_ycc_convert   0000000180061820     * CIL library *:* CIL module *
 0002:00016840       $chain$4$rgb_ycc_convert   0000000180061840     * CIL library *:* CIL module *
 0002:00016850       $unwind$rgb_gray_convert   0000000180061850     * CIL library *:* CIL module *
 0002:00016868       $unwind$cmyk_ycck_convert  0000000180061868     * CIL library *:* CIL module *
 0002:00016874       $chain$4$cmyk_ycck_convert 0000000180061874     * CIL library *:* CIL module *
 0002:00016898       $chain$5$cmyk_ycck_convert 0000000180061898     * CIL library *:* CIL module *
 0002:000168a8       $unwind$h2v2_downsample    00000001800618a8     * CIL library *:* CIL module *
 0002:000168a8       $unwind$rgb_rgb1_convert   00000001800618a8     * CIL library *:* CIL module *
 0002:000168bc       $chain$0$rgb_rgb1_convert  00000001800618bc     * CIL library *:* CIL module *
 0002:000168d0       $chain$1$rgb_rgb1_convert  00000001800618d0     * CIL library *:* CIL module *
 0002:000168e0       $unwind$png_format_buffer  00000001800618e0     * CIL library *:* CIL module *
 0002:000168e0       $unwind$grayscale_convert  00000001800618e0     * CIL library *:* CIL module *
 0002:000168e0       $unwind$png_setup_avg_row  00000001800618e0     * CIL library *:* CIL module *
 0002:000168f4       $unwind$rgb_convert        00000001800618f4     * CIL library *:* CIL module *
 0002:00016908       $chain$0$rgb_convert       0000000180061908     * CIL library *:* CIL module *
 0002:0001691c       $chain$1$rgb_convert       000000018006191c     * CIL library *:* CIL module *
 0002:0001692c       $unwind$null_convert       000000018006192c     * CIL library *:* CIL module *
 0002:00016940       $chain$1$null_convert      0000000180061940     * CIL library *:* CIL module *
 0002:00016958       $chain$2$null_convert      0000000180061958     * CIL library *:* CIL module *
 0002:00016968       $unwind$forward_DCT        0000000180061968     * CIL library *:* CIL module *
 0002:00016984       $chain$1$forward_DCT       0000000180061984     * CIL library *:* CIL module *
 0002:0001699c       $chain$2$forward_DCT       000000018006199c     * CIL library *:* CIL module *
 0002:000169ac       $unwind$forward_DCT_float  00000001800619ac     * CIL library *:* CIL module *
 0002:000169c8       $chain$3$forward_DCT_float 00000001800619c8     * CIL library *:* CIL module *
 0002:000169e8       $chain$4$forward_DCT_float 00000001800619e8     * CIL library *:* CIL module *
 0002:000169f8       $unwind$start_pass_fdctmgr 00000001800619f8     * CIL library *:* CIL module *
 0002:00016a0c       $chain$11$start_pass_fdctmgr 0000000180061a0c     * CIL library *:* CIL module *
 0002:00016a4c       $chain$12$start_pass_fdctmgr 0000000180061a4c     * CIL library *:* CIL module *
 0002:00016a5c       $unwind$jpeg_make_c_derived_tbl 0000000180061a5c     * CIL library *:* CIL module *
 0002:00016a80       $unwind$emit_bits_s        0000000180061a80     * CIL library *:* CIL module *
 0002:00016a98       $unwind$EGifCloseFile      0000000180061a98     * CIL library *:* CIL module *
 0002:00016a98       $unwind$emit_bits_e        0000000180061a98     * CIL library *:* CIL module *
 0002:00016aa4       $chain$0$emit_bits_e       0000000180061aa4     * CIL library *:* CIL module *
 0002:00016ab8       $chain$2$emit_bits_e       0000000180061ab8     * CIL library *:* CIL module *
 0002:00016ad0       $chain$3$emit_bits_e       0000000180061ad0     * CIL library *:* CIL module *
 0002:00016ae0       $chain$4$emit_bits_e       0000000180061ae0     * CIL library *:* CIL module *
 0002:00016af0       $unwind$emit_buffered_bits 0000000180061af0     * CIL library *:* CIL module *
 0002:00016afc       $chain$4$emit_buffered_bits 0000000180061afc     * CIL library *:* CIL module *
 0002:00016b20       $chain$5$emit_buffered_bits 0000000180061b20     * CIL library *:* CIL module *
 0002:00016b30       $unwind$png_free_buffer_list 0000000180061b30     * CIL library *:* CIL module *
 0002:00016b30       $unwind$emit_eobrun        0000000180061b30     * CIL library *:* CIL module *
 0002:00016b38       $chain$0$emit_eobrun       0000000180061b38     * CIL library *:* CIL module *
 0002:00016b4c       $chain$1$emit_eobrun       0000000180061b4c     * CIL library *:* CIL module *
 0002:00016b5c       $unwind$emit_restart_s     0000000180061b5c     * CIL library *:* CIL module *
 0002:00016b68       $chain$1$emit_restart_s    0000000180061b68     * CIL library *:* CIL module *
 0002:00016b80       $chain$3$emit_restart_s    0000000180061b80     * CIL library *:* CIL module *
 0002:00016b98       $chain$4$emit_restart_s    0000000180061b98     * CIL library *:* CIL module *
 0002:00016ba8       $unwind$encode_mcu_DC_first 0000000180061ba8     * CIL library *:* CIL module *
 0002:00016bb0       $chain$2$encode_mcu_DC_first 0000000180061bb0     * CIL library *:* CIL module *
 0002:00016bcc       $chain$6$encode_mcu_DC_first 0000000180061bcc     * CIL library *:* CIL module *
 0002:00016bec       $chain$7$encode_mcu_DC_first 0000000180061bec     * CIL library *:* CIL module *
 0002:00016bfc       $chain$8$encode_mcu_DC_first 0000000180061bfc     * CIL library *:* CIL module *
 0002:00016c0c       $unwind$encode_mcu_AC_first 0000000180061c0c     * CIL library *:* CIL module *
 0002:00016c14       $chain$4$encode_mcu_AC_first 0000000180061c14     * CIL library *:* CIL module *
 0002:00016c38       $chain$6$encode_mcu_AC_first 0000000180061c38     * CIL library *:* CIL module *
 0002:00016c50       $chain$7$encode_mcu_AC_first 0000000180061c50     * CIL library *:* CIL module *
 0002:00016c60       $chain$8$encode_mcu_AC_first 0000000180061c60     * CIL library *:* CIL module *
 0002:00016c70       $unwind$encode_one_block   0000000180061c70     * CIL library *:* CIL module *
 0002:00016c8c       $unwind$encode_mcu_huff    0000000180061c8c     * CIL library *:* CIL module *
 0002:00016ca0       $chain$2$encode_mcu_huff   0000000180061ca0     * CIL library *:* CIL module *
 0002:00016cbc       $chain$3$encode_mcu_huff   0000000180061cbc     * CIL library *:* CIL module *
 0002:00016ccc       $chain$4$encode_mcu_huff   0000000180061ccc     * CIL library *:* CIL module *
 0002:00016ce8       $unwind$encode_mcu_gather  0000000180061ce8     * CIL library *:* CIL module *
 0002:00016cf8       $chain$1$encode_mcu_gather 0000000180061cf8     * CIL library *:* CIL module *
 0002:00016d10       $chain$2$encode_mcu_gather 0000000180061d10     * CIL library *:* CIL module *
 0002:00016d20       $unwind$jpeg_gen_optimal_table 0000000180061d20     * CIL library *:* CIL module *
 0002:00016d44       $unwind$finish_pass_gather 0000000180061d44     * CIL library *:* CIL module *
 0002:00016d50       $chain$2$finish_pass_gather 0000000180061d50     * CIL library *:* CIL module *
 0002:00016d6c       $chain$3$finish_pass_gather 0000000180061d6c     * CIL library *:* CIL module *
 0002:00016d7c       $unwind$start_pass_huff    0000000180061d7c     * CIL library *:* CIL module *
 0002:00016d8c       $chain$2$start_pass_huff   0000000180061d8c     * CIL library *:* CIL module *
 0002:00016da8       $chain$3$start_pass_huff   0000000180061da8     * CIL library *:* CIL module *
 0002:00016db8       $unwind$process_data_simple_main 0000000180061db8     * CIL library *:* CIL module *
 0002:00016dcc       $chain$1$process_data_simple_main 0000000180061dcc     * CIL library *:* CIL module *
 0002:00016de4       $chain$2$process_data_simple_main 0000000180061de4     * CIL library *:* CIL module *
 0002:00016df4       $chain$1$jinit_c_main_controller 0000000180061df4     * CIL library *:* CIL module *
 0002:00016e0c       $chain$2$jinit_c_main_controller 0000000180061e0c     * CIL library *:* CIL module *
 0002:00016e20       $chain$3$jinit_c_main_controller 0000000180061e20     * CIL library *:* CIL module *
 0002:00016e30       $chain$4$jinit_c_main_controller 0000000180061e30     * CIL library *:* CIL module *
 0002:00016e40       $unwind$emit_dqt           0000000180061e40     * CIL library *:* CIL module *
 0002:00016e54       $chain$0$emit_dqt          0000000180061e54     * CIL library *:* CIL module *
 0002:00016e68       $chain$1$emit_dqt          0000000180061e68     * CIL library *:* CIL module *
 0002:00016e78       $unwind$emit_dht           0000000180061e78     * CIL library *:* CIL module *
 0002:00016e84       $chain$0$emit_dht          0000000180061e84     * CIL library *:* CIL module *
 0002:00016e98       $chain$1$emit_dht          0000000180061e98     * CIL library *:* CIL module *
 0002:00016eac       $chain$2$emit_dht          0000000180061eac     * CIL library *:* CIL module *
 0002:00016ec0       $chain$3$emit_dht          0000000180061ec0     * CIL library *:* CIL module *
 0002:00016ed0       $chain$4$emit_dht          0000000180061ed0     * CIL library *:* CIL module *
 0002:00016ee0       $chain$5$emit_dht          0000000180061ee0     * CIL library *:* CIL module *
 0002:00016ef0       $unwind$emit_dac           0000000180061ef0     * CIL library *:* CIL module *
 0002:00016f04       $chain$0$emit_dac          0000000180061f04     * CIL library *:* CIL module *
 0002:00016f18       $chain$1$emit_dac          0000000180061f18     * CIL library *:* CIL module *
 0002:00016f28       $chain$0$emit_sos          0000000180061f28     * CIL library *:* CIL module *
 0002:00016f3c       $chain$2$emit_sos          0000000180061f3c     * CIL library *:* CIL module *
 0002:00016f54       $chain$3$emit_sos          0000000180061f54     * CIL library *:* CIL module *
 0002:00016f64       $chain$4$emit_sos          0000000180061f64     * CIL library *:* CIL module *
 0002:00016f74       $unwind$write_scan_header  0000000180061f74     * CIL library *:* CIL module *
 0002:00016f80       $chain$0$write_scan_header 0000000180061f80     * CIL library *:* CIL module *
 0002:00016f94       $chain$2$write_scan_header 0000000180061f94     * CIL library *:* CIL module *
 0002:00016fac       $chain$3$write_scan_header 0000000180061fac     * CIL library *:* CIL module *
 0002:00016fbc       $chain$4$write_scan_header 0000000180061fbc     * CIL library *:* CIL module *
 0002:00016fcc       $unwind$encode_mcu_DC_refine 0000000180061fcc     * CIL library *:* CIL module *
 0002:00016fcc       $unwind$initial_setup      0000000180061fcc     * CIL library *:* CIL module *
 0002:00016fe0       $chain$0$initial_setup     0000000180061fe0     * CIL library *:* CIL module *
 0002:00016ff4       $chain$1$initial_setup     0000000180061ff4     * CIL library *:* CIL module *
 0002:00017004       $unwind$validate_script    0000000180062004     * CIL library *:* CIL module *
 0002:00017020       $chain$1$validate_script   0000000180062020     * CIL library *:* CIL module *
 0002:00017034       $chain$4$validate_script   0000000180062034     * CIL library *:* CIL module *
 0002:00017050       $chain$5$validate_script   0000000180062050     * CIL library *:* CIL module *
 0002:00017060       $chain$6$validate_script   0000000180062060     * CIL library *:* CIL module *
 0002:00017060       $chain$8$validate_script   0000000180062060     * CIL library *:* CIL module *
 0002:00017070       $chain$7$validate_script   0000000180062070     * CIL library *:* CIL module *
 0002:00017090       $unwind$reduce_script      0000000180062090     * CIL library *:* CIL module *
 0002:00017090       $unwind$__dtold            0000000180062090     * CIL library *:* CIL module *
 0002:00017090       $unwind$copy_block         0000000180062090     * CIL library *:* CIL module *
 0002:00017090       $unwind$png_do_pack        0000000180062090     * CIL library *:* CIL module *
 0002:00017098       $chain$0$per_scan_setup    0000000180062098     * CIL library *:* CIL module *
 0002:000170ac       $chain$2$per_scan_setup    00000001800620ac     * CIL library *:* CIL module *
 0002:000170c4       $chain$3$per_scan_setup    00000001800620c4     * CIL library *:* CIL module *
 0002:000170d4       $chain$4$per_scan_setup    00000001800620d4     * CIL library *:* CIL module *
 0002:000170e4       $unwind$jpeg_set_defaults  00000001800620e4     * CIL library *:* CIL module *
 0002:000170e4       $unwind$strerror           00000001800620e4     * CIL library *:* CIL module *
 0002:000170f0       $unwind$pre_process_data   00000001800620f0     * CIL library *:* CIL module *
 0002:000170fc       $chain$4$pre_process_data  00000001800620fc     * CIL library *:* CIL module *
 0002:00017120       $chain$5$pre_process_data  0000000180062120     * CIL library *:* CIL module *
 0002:00017130       $unwind$pre_process_context 0000000180062130     * CIL library *:* CIL module *
 0002:00017144       $chain$1$pre_process_context 0000000180062144     * CIL library *:* CIL module *
 0002:0001715c       $chain$2$pre_process_context 000000018006215c     * CIL library *:* CIL module *
 0002:0001716c       $unwind$create_context_buffer 000000018006216c     * CIL library *:* CIL module *
 0002:00017180       $chain$0$create_context_buffer 0000000180062180     * CIL library *:* CIL module *
 0002:00017194       $chain$1$create_context_buffer 0000000180062194     * CIL library *:* CIL module *
 0002:000171a4       $unwind$jinit_c_prep_controller 00000001800621a4     * CIL library *:* CIL module *
 0002:000171b4       $chain$2$jinit_c_prep_controller 00000001800621b4     * CIL library *:* CIL module *
 0002:000171c8       $chain$3$jinit_c_prep_controller 00000001800621c8     * CIL library *:* CIL module *
 0002:000171d8       $unwind$sep_downsample     00000001800621d8     * CIL library *:* CIL module *
 0002:000171e8       $chain$2$sep_downsample    00000001800621e8     * CIL library *:* CIL module *
 0002:00017204       $chain$3$sep_downsample    0000000180062204     * CIL library *:* CIL module *
 0002:00017214       $unwind$int_downsample     0000000180062214     * CIL library *:* CIL module *
 0002:00017224       $chain$2$int_downsample    0000000180062224     * CIL library *:* CIL module *
 0002:00017240       $chain$3$int_downsample    0000000180062240     * CIL library *:* CIL module *
 0002:00017250       $unwind$fullsize_downsample 0000000180062250     * CIL library *:* CIL module *
 0002:00017250       $unwind$png_write_find_filter 0000000180062250     * CIL library *:* CIL module *
 0002:0001726c       $unwind$h2v1_downsample    000000018006226c     * CIL library *:* CIL module *
 0002:00017280       $chain$0$h2v2_downsample   0000000180062280     * CIL library *:* CIL module *
 0002:00017294       $chain$1$h2v2_downsample   0000000180062294     * CIL library *:* CIL module *
 0002:000172a4       $unwind$h2v2_smooth_downsample 00000001800622a4     * CIL library *:* CIL module *
 0002:000172b4       $chain$3$h2v2_smooth_downsample 00000001800622b4     * CIL library *:* CIL module *
 0002:000172d4       $chain$4$h2v2_smooth_downsample 00000001800622d4     * CIL library *:* CIL module *
 0002:000172e4       $unwind$fullsize_smooth_downsample 00000001800622e4     * CIL library *:* CIL module *
 0002:000172f8       $chain$0$fullsize_smooth_downsample 00000001800622f8     * CIL library *:* CIL module *
 0002:0001730c       $chain$1$fullsize_smooth_downsample 000000018006230c     * CIL library *:* CIL module *
 0002:0001731c       $unwind$jinit_downsampler  000000018006231c     * CIL library *:* CIL module *
 0002:00017328       $chain$1$jinit_downsampler 0000000180062328     * CIL library *:* CIL module *
 0002:00017340       $chain$5$jinit_downsampler 0000000180062340     * CIL library *:* CIL module *
 0002:00017360       $chain$6$jinit_downsampler 0000000180062360     * CIL library *:* CIL module *
 0002:00017370       $chain$7$jinit_downsampler 0000000180062370     * CIL library *:* CIL module *
 0002:00017380       $unwind$fill_window        0000000180062380     * CIL library *:* CIL module *
 0002:00017380       $unwind$arith_encode       0000000180062380     * CIL library *:* CIL module *
 0002:00017380       $unwind$EGifSetupCompress  0000000180062380     * CIL library *:* CIL module *
 0002:00017380       $unwind$EGifPutExtensionBlock 0000000180062380     * CIL library *:* CIL module *
 0002:00017390       $chain$0$arith_encode      0000000180062390     * CIL library *:* CIL module *
 0002:000173a4       $chain$1$arith_encode      00000001800623a4     * CIL library *:* CIL module *
 0002:000173b4       $unwind$emit_restart       00000001800623b4     * CIL library *:* CIL module *
 0002:000173c8       $chain$0$emit_restart      00000001800623c8     * CIL library *:* CIL module *
 0002:000173dc       $chain$1$emit_restart      00000001800623dc     * CIL library *:* CIL module *
 0002:000173ec       $unwind$encode_mcu_DC_first 00000001800623ec     * CIL library *:* CIL module *
 0002:000173fc       $chain$3$encode_mcu_DC_first 00000001800623fc     * CIL library *:* CIL module *
 0002:0001741c       $chain$4$encode_mcu_DC_first 000000018006241c     * CIL library *:* CIL module *
 0002:0001742c       $unwind$encode_mcu_AC_first 000000018006242c     * CIL library *:* CIL module *
 0002:00017438       $chain$3$encode_mcu_AC_first 0000000180062438     * CIL library *:* CIL module *
 0002:00017458       $chain$4$encode_mcu_AC_first 0000000180062458     * CIL library *:* CIL module *
 0002:0001746c       $chain$5$encode_mcu_AC_first 000000018006246c     * CIL library *:* CIL module *
 0002:0001747c       $chain$6$encode_mcu_AC_first 000000018006247c     * CIL library *:* CIL module *
 0002:0001748c       $chain$0$encode_mcu_DC_refine 000000018006248c     * CIL library *:* CIL module *
 0002:000174a0       $chain$1$encode_mcu_DC_refine 00000001800624a0     * CIL library *:* CIL module *
 0002:000174b0       $unwind$encode_mcu_AC_refine 00000001800624b0     * CIL library *:* CIL module *
 0002:000174c8       $unwind$encode_mcu         00000001800624c8     * CIL library *:* CIL module *
 0002:000174d4       $chain$4$encode_mcu        00000001800624d4     * CIL library *:* CIL module *
 0002:000174f8       $chain$5$encode_mcu        00000001800624f8     * CIL library *:* CIL module *
 0002:00017508       $unwind$start_pass         0000000180062508     * CIL library *:* CIL module *
 0002:00017518       $chain$3$start_pass        0000000180062518     * CIL library *:* CIL module *
 0002:00017538       $chain$4$start_pass        0000000180062538     * CIL library *:* CIL module *
 0002:00017548       $unwind$png_calculate_crc  0000000180062548     * CIL library *:* CIL module *
 0002:00017558       $chain$1$png_calculate_crc 0000000180062558     * CIL library *:* CIL module *
 0002:00017570       $chain$2$png_calculate_crc 0000000180062570     * CIL library *:* CIL module *
 0002:00017580       $unwind$png_user_version_check 0000000180062580     * CIL library *:* CIL module *
 0002:00017594       $chain$0$png_user_version_check 0000000180062594     * CIL library *:* CIL module *
 0002:000175a8       $chain$1$png_user_version_check 00000001800625a8     * CIL library *:* CIL module *
 0002:000175b8       $unwind$png_create_png_struct 00000001800625b8     * CIL library *:* CIL module *
 0002:000175d8       $unwind$png_create_info_struct 00000001800625d8     * CIL library *:* CIL module *
 0002:000175e4       $unwind$png_destroy_write_struct 00000001800625e4     * CIL library *:* CIL module *
 0002:000175e4       $unwind$png_destroy_info_struct 00000001800625e4     * CIL library *:* CIL module *
 0002:000175ec       $chain$0$png_destroy_info_struct 00000001800625ec     * CIL library *:* CIL module *
 0002:00017600       $chain$2$png_destroy_info_struct 0000000180062600     * CIL library *:* CIL module *
 0002:00017614       $chain$3$png_destroy_info_struct 0000000180062614     * CIL library *:* CIL module *
 0002:00017624       $unwind$png_free_data      0000000180062624     * CIL library *:* CIL module *
 0002:00017634       $chain$2$png_free_data     0000000180062634     * CIL library *:* CIL module *
 0002:00017650       $chain$3$png_free_data     0000000180062650     * CIL library *:* CIL module *
 0002:00017668       $chain$4$png_free_data     0000000180062668     * CIL library *:* CIL module *
 0002:00017678       $unwind$png_convert_to_rfc1123_buffer 0000000180062678     * CIL library *:* CIL module *
 0002:00017688       $chain$3$png_convert_to_rfc1123_buffer 0000000180062688     * CIL library *:* CIL module *
 0002:000176a8       $chain$4$png_convert_to_rfc1123_buffer 00000001800626a8     * CIL library *:* CIL module *
 0002:000176c4       $chain$5$png_convert_to_rfc1123_buffer 00000001800626c4     * CIL library *:* CIL module *
 0002:000176d4       $unwind$png_xy_from_XYZ    00000001800626d4     * CIL library *:* CIL module *
 0002:000176f4       $chain$2$png_xy_from_XYZ   00000001800626f4     * CIL library *:* CIL module *
 0002:00017710       $chain$3$png_xy_from_XYZ   0000000180062710     * CIL library *:* CIL module *
 0002:00017720       $unwind$png_XYZ_from_xy    0000000180062720     * CIL library *:* CIL module *
 0002:0001772c       $chain$1$png_XYZ_from_xy   000000018006272c     * CIL library *:* CIL module *
 0002:00017744       $chain$2$png_XYZ_from_xy   0000000180062744     * CIL library *:* CIL module *
 0002:00017758       $chain$3$png_XYZ_from_xy   0000000180062758     * CIL library *:* CIL module *
 0002:0001776c       $chain$4$png_XYZ_from_xy   000000018006276c     * CIL library *:* CIL module *
 0002:00017780       $chain$5$png_XYZ_from_xy   0000000180062780     * CIL library *:* CIL module *
 0002:00017794       $chain$9$png_XYZ_from_xy   0000000180062794     * CIL library *:* CIL module *
 0002:000177b4       $chain$10$png_XYZ_from_xy  00000001800627b4     * CIL library *:* CIL module *
 0002:000177c4       $chain$11$png_XYZ_from_xy  00000001800627c4     * CIL library *:* CIL module *
 0002:000177d4       $chain$12$png_XYZ_from_xy  00000001800627d4     * CIL library *:* CIL module *
 0002:000177e4       $chain$13$png_XYZ_from_xy  00000001800627e4     * CIL library *:* CIL module *
 0002:000177f4       $chain$14$png_XYZ_from_xy  00000001800627f4     * CIL library *:* CIL module *
 0002:00017804       $chain$16$png_XYZ_from_xy  0000000180062804     * CIL library *:* CIL module *
 0002:0001783c       $chain$17$png_XYZ_from_xy  000000018006283c     * CIL library *:* CIL module *
 0002:00017864       $chain$18$png_XYZ_from_xy  0000000180062864     * CIL library *:* CIL module *
 0002:00017888       $chain$19$png_XYZ_from_xy  0000000180062888     * CIL library *:* CIL module *
 0002:000178a8       $chain$20$png_XYZ_from_xy  00000001800628a8     * CIL library *:* CIL module *
 0002:000178c4       $chain$21$png_XYZ_from_xy  00000001800628c4     * CIL library *:* CIL module *
 0002:000178dc       $chain$22$png_XYZ_from_xy  00000001800628dc     * CIL library *:* CIL module *
 0002:000178f0       $chain$23$png_XYZ_from_xy  00000001800628f0     * CIL library *:* CIL module *
 0002:00017900       $unwind$png_XYZ_normalize  0000000180062900     * CIL library *:* CIL module *
 0002:00017918       $unwind$png_colorspace_set_chromaticities 0000000180062918     * CIL library *:* CIL module *
 0002:0001792c       $unwind$png_colorspace_set_endpoints 000000018006292c     * CIL library *:* CIL module *
 0002:00017948       $unwind$png_icc_profile_error 0000000180062948     * CIL library *:* CIL module *
 0002:00017964       $chain$1$png_compare_ICC_profile_with_sRGB 0000000180062964     * CIL library *:* CIL module *
 0002:0001797c       $chain$3$png_compare_ICC_profile_with_sRGB 000000018006297c     * CIL library *:* CIL module *
 0002:00017994       $unwind$png_colorspace_set_ICC 0000000180062994     * CIL library *:* CIL module *
 0002:000179a8       $chain$0$png_colorspace_set_ICC 00000001800629a8     * CIL library *:* CIL module *
 0002:000179bc       $chain$1$png_colorspace_set_ICC 00000001800629bc     * CIL library *:* CIL module *
 0002:000179cc       $unwind$png_check_fp_number 00000001800629cc     * CIL library *:* CIL module *
 0002:000179dc       $chain$0$png_check_fp_number 00000001800629dc     * CIL library *:* CIL module *
 0002:000179f0       $chain$1$png_check_fp_number 00000001800629f0     * CIL library *:* CIL module *
 0002:00017a00       $chain$2$png_check_fp_number 0000000180062a00     * CIL library *:* CIL module *
 0002:00017a14       $unwind$png_ascii_from_fp  0000000180062a14     * CIL library *:* CIL module *
 0002:00017a38       $chain$0$png_ascii_from_fp 0000000180062a38     * CIL library *:* CIL module *
 0002:00017a4c       $chain$8$png_ascii_from_fp 0000000180062a4c     * CIL library *:* CIL module *
 0002:00017a7c       $chain$9$png_ascii_from_fp 0000000180062a7c     * CIL library *:* CIL module *
 0002:00017a98       $chain$10$png_ascii_from_fp 0000000180062a98     * CIL library *:* CIL module *
 0002:00017aa8       $chain$11$png_ascii_from_fp 0000000180062aa8     * CIL library *:* CIL module *
 0002:00017aa8       $chain$14$png_ascii_from_fp 0000000180062aa8     * CIL library *:* CIL module *
 0002:00017ab8       $chain$12$png_ascii_from_fp 0000000180062ab8     * CIL library *:* CIL module *
 0002:00017ad8       $chain$13$png_ascii_from_fp 0000000180062ad8     * CIL library *:* CIL module *
 0002:00017aec       $unwind$png_ascii_from_fixed 0000000180062aec     * CIL library *:* CIL module *
 0002:00017b00       $unwind$png_set_cHRM_fixed 0000000180062b00     * CIL library *:* CIL module *
 0002:00017b0c       $unwind$png_set_cHRM_XYZ_fixed 0000000180062b0c     * CIL library *:* CIL module *
 0002:00017b18       $unwind$png_set_cHRM       0000000180062b18     * CIL library *:* CIL module *
 0002:00017b3c       $chain$0$png_set_cHRM      0000000180062b3c     * CIL library *:* CIL module *
 0002:00017b50       $chain$4$png_set_cHRM      0000000180062b50     * CIL library *:* CIL module *
 0002:00017b70       $chain$5$png_set_cHRM      0000000180062b70     * CIL library *:* CIL module *
 0002:00017b84       $chain$7$png_set_cHRM      0000000180062b84     * CIL library *:* CIL module *
 0002:00017ba4       $chain$8$png_set_cHRM      0000000180062ba4     * CIL library *:* CIL module *
 0002:00017bc0       $chain$9$png_set_cHRM      0000000180062bc0     * CIL library *:* CIL module *
 0002:00017bd8       $chain$10$png_set_cHRM     0000000180062bd8     * CIL library *:* CIL module *
 0002:00017bec       $chain$11$png_set_cHRM     0000000180062bec     * CIL library *:* CIL module *
 0002:00017bfc       $chain$12$png_set_cHRM     0000000180062bfc     * CIL library *:* CIL module *
 0002:00017c0c       $unwind$png_set_cHRM_XYZ   0000000180062c0c     * CIL library *:* CIL module *
 0002:00017c30       $chain$0$png_set_cHRM_XYZ  0000000180062c30     * CIL library *:* CIL module *
 0002:00017c44       $chain$1$png_set_cHRM_XYZ  0000000180062c44     * CIL library *:* CIL module *
 0002:00017c58       $chain$4$png_set_cHRM_XYZ  0000000180062c58     * CIL library *:* CIL module *
 0002:00017c74       $chain$6$png_set_cHRM_XYZ  0000000180062c74     * CIL library *:* CIL module *
 0002:00017c8c       $chain$8$png_set_cHRM_XYZ  0000000180062c8c     * CIL library *:* CIL module *
 0002:00017ca8       $chain$9$png_set_cHRM_XYZ  0000000180062ca8     * CIL library *:* CIL module *
 0002:00017cc0       $chain$10$png_set_cHRM_XYZ 0000000180062cc0     * CIL library *:* CIL module *
 0002:00017cd4       $chain$11$png_set_cHRM_XYZ 0000000180062cd4     * CIL library *:* CIL module *
 0002:00017ce4       $chain$12$png_set_cHRM_XYZ 0000000180062ce4     * CIL library *:* CIL module *
 0002:00017cf4       $chain$13$png_set_cHRM_XYZ 0000000180062cf4     * CIL library *:* CIL module *
 0002:00017d04       $unwind$png_set_gAMA_fixed 0000000180062d04     * CIL library *:* CIL module *
 0002:00017d14       $chain$1$png_set_gAMA_fixed 0000000180062d14     * CIL library *:* CIL module *
 0002:00017d2c       $chain$2$png_set_gAMA_fixed 0000000180062d2c     * CIL library *:* CIL module *
 0002:00017d3c       $unwind$png_write_png      0000000180062d3c     * CIL library *:* CIL module *
 0002:00017d3c       $unwind$png_set_hIST       0000000180062d3c     * CIL library *:* CIL module *
 0002:00017d4c       $unwind$png_set_IHDR       0000000180062d4c     * CIL library *:* CIL module *
 0002:00017d5c       $unwind$png_set_pCAL       0000000180062d5c     * CIL library *:* CIL module *
 0002:00017d68       $chain$1$png_set_pCAL      0000000180062d68     * CIL library *:* CIL module *
 0002:00017d80       $chain$4$png_set_pCAL      0000000180062d80     * CIL library *:* CIL module *
 0002:00017d9c       $chain$5$png_set_pCAL      0000000180062d9c     * CIL library *:* CIL module *
 0002:00017dac       $chain$6$png_set_pCAL      0000000180062dac     * CIL library *:* CIL module *
 0002:00017dbc       $chain$7$png_set_pCAL      0000000180062dbc     * CIL library *:* CIL module *
 0002:00017de0       $chain$8$png_set_pCAL      0000000180062de0     * CIL library *:* CIL module *
 0002:00017dfc       $unwind$png_set_sCAL_s     0000000180062dfc     * CIL library *:* CIL module *
 0002:00017e0c       $chain$2$png_set_sCAL_s    0000000180062e0c     * CIL library *:* CIL module *
 0002:00017e28       $chain$3$png_set_sCAL_s    0000000180062e28     * CIL library *:* CIL module *
 0002:00017e38       $chain$4$png_set_sCAL_s    0000000180062e38     * CIL library *:* CIL module *
 0002:00017e54       $chain$5$png_set_sCAL_s    0000000180062e54     * CIL library *:* CIL module *
 0002:00017e6c       $unwind$png_set_sCAL       0000000180062e6c     * CIL library *:* CIL module *
 0002:00017e80       $unwind$png_set_sCAL_fixed 0000000180062e80     * CIL library *:* CIL module *
 0002:00017e94       $unwind$png_set_PLTE       0000000180062e94     * CIL library *:* CIL module *
 0002:00017ea8       $chain$0$png_set_PLTE      0000000180062ea8     * CIL library *:* CIL module *
 0002:00017ebc       $chain$1$png_set_PLTE      0000000180062ebc     * CIL library *:* CIL module *
 0002:00017ecc       $unwind$png_set_sRGB       0000000180062ecc     * CIL library *:* CIL module *
 0002:00017ecc       $unwind$png_set_sRGB_gAMA_and_cHRM 0000000180062ecc     * CIL library *:* CIL module *
 0002:00017ed8       $unwind$png_set_iCCP       0000000180062ed8     * CIL library *:* CIL module *
 0002:00017ee4       $chain$0$png_set_iCCP      0000000180062ee4     * CIL library *:* CIL module *
 0002:00017ef8       $chain$2$png_set_iCCP      0000000180062ef8     * CIL library *:* CIL module *
 0002:00017f10       $chain$3$png_set_iCCP      0000000180062f10     * CIL library *:* CIL module *
 0002:00017f24       $chain$4$png_set_iCCP      0000000180062f24     * CIL library *:* CIL module *
 0002:00017f34       $chain$5$png_set_iCCP      0000000180062f34     * CIL library *:* CIL module *
 0002:00017f44       $chain$6$png_set_iCCP      0000000180062f44     * CIL library *:* CIL module *
 0002:00017f54       $unwind$png_set_text_2     0000000180062f54     * CIL library *:* CIL module *
 0002:00017f64       $chain$1$png_set_text_2    0000000180062f64     * CIL library *:* CIL module *
 0002:00017f7c       $chain$3$png_set_text_2    0000000180062f7c     * CIL library *:* CIL module *
 0002:00017f94       $chain$4$png_set_text_2    0000000180062f94     * CIL library *:* CIL module *
 0002:00017f94       $chain$6$png_set_text_2    0000000180062f94     * CIL library *:* CIL module *
 0002:00017fa4       $chain$5$png_set_text_2    0000000180062fa4     * CIL library *:* CIL module *
 0002:00017fbc       $chain$8$png_set_text_2    0000000180062fbc     * CIL library *:* CIL module *
 0002:00017fdc       $chain$9$png_set_text_2    0000000180062fdc     * CIL library *:* CIL module *
 0002:00017fec       $unwind$png_set_tRNS       0000000180062fec     * CIL library *:* CIL module *
 0002:00018000       $chain$0$png_set_tRNS      0000000180063000     * CIL library *:* CIL module *
 0002:00018014       $chain$1$png_set_tRNS      0000000180063014     * CIL library *:* CIL module *
 0002:00018024       $unwind$png_set_sPLT       0000000180063024     * CIL library *:* CIL module *
 0002:00018034       $chain$0$png_set_sPLT      0000000180063034     * CIL library *:* CIL module *
 0002:00018048       $chain$1$png_set_sPLT      0000000180063048     * CIL library *:* CIL module *
 0002:0001805c       $chain$2$png_set_sPLT      000000018006305c     * CIL library *:* CIL module *
 0002:0001806c       $chain$3$png_set_sPLT      000000018006306c     * CIL library *:* CIL module *
 0002:0001807c       $chain$4$png_set_sPLT      000000018006307c     * CIL library *:* CIL module *
 0002:00018094       $unwind$png_set_unknown_chunks 0000000180063094     * CIL library *:* CIL module *
 0002:000180a4       $chain$0$png_set_unknown_chunks 00000001800630a4     * CIL library *:* CIL module *
 0002:000180b8       $chain$1$png_set_unknown_chunks 00000001800630b8     * CIL library *:* CIL module *
 0002:000180cc       $chain$2$png_set_unknown_chunks 00000001800630cc     * CIL library *:* CIL module *
 0002:000180dc       $chain$3$png_set_unknown_chunks 00000001800630dc     * CIL library *:* CIL module *
 0002:000180ec       $chain$4$png_set_unknown_chunks 00000001800630ec     * CIL library *:* CIL module *
 0002:00018104       $unwind$png_set_unknown_chunk_location 0000000180063104     * CIL library *:* CIL module *
 0002:00018118       $unwind$png_set_keep_unknown_chunks 0000000180063118     * CIL library *:* CIL module *
 0002:00018128       $chain$2$png_set_keep_unknown_chunks 0000000180063128     * CIL library *:* CIL module *
 0002:00018144       $chain$5$png_set_keep_unknown_chunks 0000000180063144     * CIL library *:* CIL module *
 0002:00018144       $chain$3$png_set_keep_unknown_chunks 0000000180063144     * CIL library *:* CIL module *
 0002:00018154       $chain$4$png_set_keep_unknown_chunks 0000000180063154     * CIL library *:* CIL module *
 0002:00018170       $unwind$png_set_text_compression_method 0000000180063170     * CIL library *:* CIL module *
 0002:00018170       $unwind$png_set_compression_method 0000000180063170     * CIL library *:* CIL module *
 0002:00018170       $unwind$png_set_rows       0000000180063170     * CIL library *:* CIL module *
 0002:00018170       $unwind$png_default_write_data 0000000180063170     * CIL library *:* CIL module *
 0002:0001817c       $unwind$png_set_compression_buffer_size 000000018006317c     * CIL library *:* CIL module *
 0002:00018188       $chain$0$png_set_compression_buffer_size 0000000180063188     * CIL library *:* CIL module *
 0002:0001819c       $chain$3$png_set_compression_buffer_size 000000018006319c     * CIL library *:* CIL module *
 0002:0001819c       $chain$1$png_set_compression_buffer_size 000000018006319c     * CIL library *:* CIL module *
 0002:000181ac       $chain$2$png_set_compression_buffer_size 00000001800631ac     * CIL library *:* CIL module *
 0002:000181c0       $unwind$png_create_write_struct_2 00000001800631c0     * CIL library *:* CIL module *
 0002:000181c0       $unwind$_raise_exc         00000001800631c0     * CIL library *:* CIL module *
 0002:000181c0       $unwind$png_create_write_struct 00000001800631c0     * CIL library *:* CIL module *
 0002:000181c0       $unwind$__initconout       00000001800631c0     * CIL library *:* CIL module *
 0002:000181c0       $unwind$_cfltcvt           00000001800631c0     * CIL library *:* CIL module *
 0002:000181c0       $unwind$png_get_IHDR       00000001800631c0     * CIL library *:* CIL module *
 0002:000181c8       $unwind$png_setup_sub_row  00000001800631c8     * CIL library *:* CIL module *
 0002:000181c8       $unwind$png_setup_up_row   00000001800631c8     * CIL library *:* CIL module *
 0002:000181c8       $unwind$png_get_pCAL       00000001800631c8     * CIL library *:* CIL module *
 0002:000181d8       $chain$0$png_get_sCAL_fixed 00000001800631d8     * CIL library *:* CIL module *
 0002:000181ec       $chain$1$png_get_sCAL_fixed 00000001800631ec     * CIL library *:* CIL module *
 0002:000181fc       $chain$2$png_get_sCAL_fixed 00000001800631fc     * CIL library *:* CIL module *
 0002:00018210       $unwind$__free_lc_time     0000000180063210     * CIL library *:* CIL module *
 0002:00018210       $unwind$png_set_filler     0000000180063210     * CIL library *:* CIL module *
 0002:00018210       $unwind$__free_lconv_mon   0000000180063210     * CIL library *:* CIL module *
 0002:00018218       $unwind$png_do_strip_channel 0000000180063218     * CIL library *:* CIL module *
 0002:00018220       $chain$0$png_do_strip_channel 0000000180063220     * CIL library *:* CIL module *
 0002:00018234       $chain$1$png_do_strip_channel 0000000180063234     * CIL library *:* CIL module *
 0002:00018244       $unwind$png_destroy_png_struct 0000000180063244     * CIL library *:* CIL module *
 0002:00018258       $unwind$png_realloc_array  0000000180063258     * CIL library *:* CIL module *
 0002:0001826c       $chain$0$png_realloc_array 000000018006326c     * CIL library *:* CIL module *
 0002:00018280       $chain$2$png_realloc_array 0000000180063280     * CIL library *:* CIL module *
 0002:00018294       $chain$3$png_realloc_array 0000000180063294     * CIL library *:* CIL module *
 0002:000182a4       $unwind$png_formatted_warning 00000001800632a4     * CIL library *:* CIL module *
 0002:000182c4       $unwind$png_chunk_warning  00000001800632c4     * CIL library *:* CIL module *
 0002:000182d8       $unwind$png_fixed_error    00000001800632d8     * CIL library *:* CIL module *
 0002:000182e4       $unwind$png_free_jmpbuf    00000001800632e4     * CIL library *:* CIL module *
 0002:000182fc       $chain$0$png_safe_error    00000001800632fc     * CIL library *:* CIL module *
 0002:00018310       $chain$1$png_safe_error    0000000180063310     * CIL library *:* CIL module *
 0002:00018320       $unwind$png_safe_execute   0000000180063320     * CIL library *:* CIL module *
 0002:00018330       $unwind$write_unknown_chunks 0000000180063330     * CIL library *:* CIL module *
 0002:00018330       $unwind$flush_pending      0000000180063330     * CIL library *:* CIL module *
 0002:00018340       $chain$0$write_unknown_chunks 0000000180063340     * CIL library *:* CIL module *
 0002:00018354       $chain$1$write_unknown_chunks 0000000180063354     * CIL library *:* CIL module *
 0002:00018364       $chain$2$write_unknown_chunks 0000000180063364     * CIL library *:* CIL module *
 0002:00018378       $unwind$png_write_info_before_PLTE 0000000180063378     * CIL library *:* CIL module *
 0002:00018384       $chain$0$png_write_info_before_PLTE 0000000180063384     * CIL library *:* CIL module *
 0002:00018398       $chain$1$png_write_info_before_PLTE 0000000180063398     * CIL library *:* CIL module *
 0002:000183a8       $unwind$png_write_info     00000001800633a8     * CIL library *:* CIL module *
 0002:000183b4       $chain$1$png_write_info    00000001800633b4     * CIL library *:* CIL module *
 0002:000183cc       $chain$4$png_write_info    00000001800633cc     * CIL library *:* CIL module *
 0002:000183cc       $chain$2$png_write_info    00000001800633cc     * CIL library *:* CIL module *
 0002:000183dc       $chain$3$png_write_info    00000001800633dc     * CIL library *:* CIL module *
 0002:000183f4       $unwind$png_write_end      00000001800633f4     * CIL library *:* CIL module *
 0002:00018400       $chain$0$png_write_end     0000000180063400     * CIL library *:* CIL module *
 0002:00018414       $chain$1$png_write_end     0000000180063414     * CIL library *:* CIL module *
 0002:00018428       $chain$2$png_write_end     0000000180063428     * CIL library *:* CIL module *
 0002:00018438       $chain$3$png_write_end     0000000180063438     * CIL library *:* CIL module *
 0002:00018448       $unwind$png_write_rows     0000000180063448     * CIL library *:* CIL module *
 0002:0001845c       $chain$0$png_write_rows    000000018006345c     * CIL library *:* CIL module *
 0002:00018470       $chain$4$png_write_rows    0000000180063470     * CIL library *:* CIL module *
 0002:00018490       $chain$5$png_write_rows    0000000180063490     * CIL library *:* CIL module *
 0002:000184a0       $chain$8$png_write_rows    00000001800634a0     * CIL library *:* CIL module *
 0002:000184a0       $chain$6$png_write_rows    00000001800634a0     * CIL library *:* CIL module *
 0002:000184b0       $chain$7$png_write_rows    00000001800634b0     * CIL library *:* CIL module *
 0002:000184d4       $unwind$png_write_image    00000001800634d4     * CIL library *:* CIL module *
 0002:000184e0       $chain$2$png_write_image   00000001800634e0     * CIL library *:* CIL module *
 0002:000184fc       $chain$3$png_write_image   00000001800634fc     * CIL library *:* CIL module *
 0002:0001850c       $unwind$png_write_row      000000018006350c     * CIL library *:* CIL module *
 0002:00018520       $chain$0$png_write_row     0000000180063520     * CIL library *:* CIL module *
 0002:00018534       $chain$1$png_write_row     0000000180063534     * CIL library *:* CIL module *
 0002:00018534       $chain$3$png_write_row     0000000180063534     * CIL library *:* CIL module *
 0002:00018544       $chain$2$png_write_row     0000000180063544     * CIL library *:* CIL module *
 0002:00018558       $unwind$png_write_destroy  0000000180063558     * CIL library *:* CIL module *
 0002:00018564       $chain$0$png_write_destroy 0000000180063564     * CIL library *:* CIL module *
 0002:00018578       $chain$1$png_write_destroy 0000000180063578     * CIL library *:* CIL module *
 0002:00018588       $chain$0$png_destroy_write_struct 0000000180063588     * CIL library *:* CIL module *
 0002:0001859c       $chain$1$png_destroy_write_struct 000000018006359c     * CIL library *:* CIL module *
 0002:000185ac       $unwind$png_set_filter     00000001800635ac     * CIL library *:* CIL module *
 0002:000185b8       $chain$0$png_set_filter    00000001800635b8     * CIL library *:* CIL module *
 0002:000185cc       $chain$1$png_set_filter    00000001800635cc     * CIL library *:* CIL module *
 0002:000185e0       $chain$2$png_set_filter    00000001800635e0     * CIL library *:* CIL module *
 0002:000185f0       $chain$3$png_set_filter    00000001800635f0     * CIL library *:* CIL module *
 0002:00018600       $unwind$?__SehTransFilter@@YAHPEAU_EXCEPTION_POINTERS@@PEAUEHExceptionRecord@@PEA_KPEAU_CONTEXT@@PEAU_xDISPATCHER_CONTEXT@@PEBU_s_FuncInfo@@PEAH@Z 0000000180063600     * CIL library *:* CIL module *
 0002:00018600       $unwind$_mbsnbicmp_l       0000000180063600     * CIL library *:* CIL module *
 0002:00018600       $unwind$png_image_write_init 0000000180063600     * CIL library *:* CIL module *
 0002:00018600       $unwind$_mbsnbcmp_l        0000000180063600     * CIL library *:* CIL module *
 0002:00018600       $unwind$_strnicmp_l        0000000180063600     * CIL library *:* CIL module *
 0002:00018614       $unwind$png_write_image_16bit 0000000180063614     * CIL library *:* CIL module *
 0002:00018628       $chain$0$png_write_image_16bit 0000000180063628     * CIL library *:* CIL module *
 0002:0001863c       $chain$1$png_write_image_16bit 000000018006363c     * CIL library *:* CIL module *
 0002:00018650       $chain$2$png_write_image_16bit 0000000180063650     * CIL library *:* CIL module *
 0002:00018660       $chain$3$png_write_image_16bit 0000000180063660     * CIL library *:* CIL module *
 0002:00018670       $unwind$png_write_image_8bit 0000000180063670     * CIL library *:* CIL module *
 0002:00018688       $unwind$png_image_set_PLTE 0000000180063688     * CIL library *:* CIL module *
 0002:000186b0       $unwind$png_image_write_main 00000001800636b0     * CIL library *:* CIL module *
 0002:000186cc       $unwind$__createFile       00000001800636cc     * CIL library *:* CIL module *
 0002:000186cc       $unwind$_strnicoll_l       00000001800636cc     * CIL library *:* CIL module *
 0002:000186cc       $unwind$png_image_write_to_stdio 00000001800636cc     * CIL library *:* CIL module *
 0002:000186e0       $unwind$png_image_write_to_file 00000001800636e0     * CIL library *:* CIL module *
 0002:000186f4       $chain$0$png_image_write_to_file 00000001800636f4     * CIL library *:* CIL module *
 0002:00018708       $chain$3$png_image_write_to_file 0000000180063708     * CIL library *:* CIL module *
 0002:00018708       $chain$1$png_image_write_to_file 0000000180063708     * CIL library *:* CIL module *
 0002:00018718       $chain$2$png_image_write_to_file 0000000180063718     * CIL library *:* CIL module *
 0002:0001872c       $unwind$png_write_tRNS     000000018006372c     * CIL library *:* CIL module *
 0002:0001872c       $unwind$png_write_sig      000000018006372c     * CIL library *:* CIL module *
 0002:0001872c       $unwind$png_write_tIME     000000018006372c     * CIL library *:* CIL module *
 0002:0001873c       $unwind$png_write_chunk_header 000000018006373c     * CIL library *:* CIL module *
 0002:00018750       $chain$1$png_write_chunk_header 0000000180063750     * CIL library *:* CIL module *
 0002:00018768       $chain$2$png_write_chunk_header 0000000180063768     * CIL library *:* CIL module *
 0002:0001877c       $chain$3$png_write_chunk_header 000000018006377c     * CIL library *:* CIL module *
 0002:0001878c       $chain$4$png_write_chunk_header 000000018006378c     * CIL library *:* CIL module *
 0002:0001879c       $unwind$png_write_chunk_data 000000018006379c     * CIL library *:* CIL module *
 0002:0001879c       $unwind$?_Copy_str@exception@std@@AEAAXPEBD@Z 000000018006379c     * CIL library *:* CIL module *
 0002:000187ac       $chain$3$png_image_size    00000001800637ac     * CIL library *:* CIL module *
 0002:000187cc       $chain$4$png_image_size    00000001800637cc     * CIL library *:* CIL module *
 0002:000187dc       $unwind$png_deflate_claim  00000001800637dc     * CIL library *:* CIL module *
 0002:000187f4       $chain$4$png_deflate_claim 00000001800637f4     * CIL library *:* CIL module *
 0002:00018818       $chain$5$png_deflate_claim 0000000180063818     * CIL library *:* CIL module *
 0002:00018828       $chain$6$png_deflate_claim 0000000180063828     * CIL library *:* CIL module *
 0002:0001884c       $chain$0$png_free_buffer_list 000000018006384c     * CIL library *:* CIL module *
 0002:00018860       $chain$1$png_free_buffer_list 0000000180063860     * CIL library *:* CIL module *
 0002:00018870       $unwind$png_text_compress  0000000180063870     * CIL library *:* CIL module *
 0002:0001887c       $chain$0$png_text_compress 000000018006387c     * CIL library *:* CIL module *
 0002:00018890       $chain$4$png_text_compress 0000000180063890     * CIL library *:* CIL module *
 0002:000188b0       $chain$5$png_text_compress 00000001800638b0     * CIL library *:* CIL module *
 0002:000188c4       $chain$6$png_text_compress 00000001800638c4     * CIL library *:* CIL module *
 0002:000188d4       $unwind$png_check_keyword  00000001800638d4     * CIL library *:* CIL module *
 0002:000188f0       $unwind$png_write_IHDR     00000001800638f0     * CIL library *:* CIL module *
 0002:00018908       $chain$1$png_write_IHDR    0000000180063908     * CIL library *:* CIL module *
 0002:00018920       $chain$2$png_write_IHDR    0000000180063920     * CIL library *:* CIL module *
 0002:00018930       $chain$0$png_write_PLTE    0000000180063930     * CIL library *:* CIL module *
 0002:00018944       $chain$1$png_write_PLTE    0000000180063944     * CIL library *:* CIL module *
 0002:00018954       $chain$2$png_write_PLTE    0000000180063954     * CIL library *:* CIL module *
 0002:00018968       $unwind$png_compress_IDAT  0000000180063968     * CIL library *:* CIL module *
 0002:0001897c       $chain$1$png_compress_IDAT 000000018006397c     * CIL library *:* CIL module *
 0002:00018994       $chain$2$png_compress_IDAT 0000000180063994     * CIL library *:* CIL module *
 0002:000189a4       $chain$3$png_compress_IDAT 00000001800639a4     * CIL library *:* CIL module *
 0002:000189bc       $unwind$png_write_iCCP     00000001800639bc     * CIL library *:* CIL module *
 0002:000189d0       $chain$1$png_write_iCCP    00000001800639d0     * CIL library *:* CIL module *
 0002:000189e8       $chain$3$png_write_iCCP    00000001800639e8     * CIL library *:* CIL module *
 0002:00018a00       $unwind$png_write_sPLT     0000000180063a00     * CIL library *:* CIL module *
 0002:00018a20       $unwind$png_write_cHRM_fixed 0000000180063a20     * CIL library *:* CIL module *
 0002:00018a34       $unwind$png_write_bKGD     0000000180063a34     * CIL library *:* CIL module *
 0002:00018a48       $unwind$png_write_hIST     0000000180063a48     * CIL library *:* CIL module *
 0002:00018a54       $chain$4$png_write_hIST    0000000180063a54     * CIL library *:* CIL module *
 0002:00018a78       $chain$5$png_write_hIST    0000000180063a78     * CIL library *:* CIL module *
 0002:00018a88       $chain$6$png_write_hIST    0000000180063a88     * CIL library *:* CIL module *
 0002:00018aac       $unwind$png_write_tEXt     0000000180063aac     * CIL library *:* CIL module *
 0002:00018ac4       $unwind$png_write_zTXt     0000000180063ac4     * CIL library *:* CIL module *
 0002:00018ad8       $chain$0$png_write_zTXt    0000000180063ad8     * CIL library *:* CIL module *
 0002:00018aec       $chain$1$png_write_zTXt    0000000180063aec     * CIL library *:* CIL module *
 0002:00018afc       $chain$2$png_write_zTXt    0000000180063afc     * CIL library *:* CIL module *
 0002:00018b10       $unwind$png_write_iTXt     0000000180063b10     * CIL library *:* CIL module *
 0002:00018b2c       $chain$2$png_write_iTXt    0000000180063b2c     * CIL library *:* CIL module *
 0002:00018b48       $chain$4$png_write_iTXt    0000000180063b48     * CIL library *:* CIL module *
 0002:00018b64       $chain$5$png_write_iTXt    0000000180063b64     * CIL library *:* CIL module *
 0002:00018b74       $unwind$png_write_pHYs     0000000180063b74     * CIL library *:* CIL module *
 0002:00018b74       $unwind$png_write_oFFs     0000000180063b74     * CIL library *:* CIL module *
 0002:00018b90       $unwind$png_write_pCAL     0000000180063b90     * CIL library *:* CIL module *
 0002:00018bac       $chain$2$png_write_pCAL    0000000180063bac     * CIL library *:* CIL module *
 0002:00018bc8       $unwind$png_write_sCAL_s   0000000180063bc8     * CIL library *:* CIL module *
 0002:00018be0       $chain$0$png_write_start_row 0000000180063be0     * CIL library *:* CIL module *
 0002:00018bf4       $chain$2$png_write_start_row 0000000180063bf4     * CIL library *:* CIL module *
 0002:00018c0c       $chain$3$png_write_start_row 0000000180063c0c     * CIL library *:* CIL module *
 0002:00018c20       $chain$4$png_write_start_row 0000000180063c20     * CIL library *:* CIL module *
 0002:00018c30       $chain$1$png_write_finish_row 0000000180063c30     * CIL library *:* CIL module *
 0002:00018c48       $chain$3$png_write_finish_row 0000000180063c48     * CIL library *:* CIL module *
 0002:00018c48       $chain$5$png_write_finish_row 0000000180063c48     * CIL library *:* CIL module *
 0002:00018c60       $chain$6$png_write_finish_row 0000000180063c60     * CIL library *:* CIL module *
 0002:00018c70       $unwind$png_do_write_interlace 0000000180063c70     * CIL library *:* CIL module *
 0002:00018c78       $chain$6$png_do_write_interlace 0000000180063c78     * CIL library *:* CIL module *
 0002:00018ca4       $chain$7$png_do_write_interlace 0000000180063ca4     * CIL library *:* CIL module *
 0002:00018cb4       $unwind$png_setup_paeth_row 0000000180063cb4     * CIL library *:* CIL module *
 0002:00018cc4       $chain$3$png_setup_paeth_row 0000000180063cc4     * CIL library *:* CIL module *
 0002:00018ce4       $chain$4$png_setup_paeth_row 0000000180063ce4     * CIL library *:* CIL module *
 0002:00018cf4       $unwind$png_do_shift       0000000180063cf4     * CIL library *:* CIL module *
 0002:00018d04       $chain$5$png_do_shift      0000000180063d04     * CIL library *:* CIL module *
 0002:00018d2c       $chain$6$png_do_shift      0000000180063d2c     * CIL library *:* CIL module *
 0002:00018d40       $chain$7$png_do_shift      0000000180063d40     * CIL library *:* CIL module *
 0002:00018d50       $chain$8$png_do_shift      0000000180063d50     * CIL library *:* CIL module *
 0002:00018d60       $unwind$crc32_little       0000000180063d60     * CIL library *:* CIL module *
 0002:00018d68       $chain$0$crc32_little      0000000180063d68     * CIL library *:* CIL module *
 0002:00018d7c       $chain$1$crc32_little      0000000180063d7c     * CIL library *:* CIL module *
 0002:00018d8c       $unwind$deflateInit2_      0000000180063d8c     * CIL library *:* CIL module *
 0002:00018d9c       $chain$1$deflateInit2_     0000000180063d9c     * CIL library *:* CIL module *
 0002:00018db4       $chain$2$deflateInit2_     0000000180063db4     * CIL library *:* CIL module *
 0002:00018dc8       $chain$3$deflateInit2_     0000000180063dc8     * CIL library *:* CIL module *
 0002:00018dd8       $chain$5$deflateInit2_     0000000180063dd8     * CIL library *:* CIL module *
 0002:00018df4       $chain$6$deflateInit2_     0000000180063df4     * CIL library *:* CIL module *
 0002:00018e0c       $chain$0$flush_pending     0000000180063e0c     * CIL library *:* CIL module *
 0002:00018e20       $chain$1$flush_pending     0000000180063e20     * CIL library *:* CIL module *
 0002:00018e30       $unwind$deflate            0000000180063e30     * CIL library *:* CIL module *
 0002:00018e3c       $chain$1$deflate           0000000180063e3c     * CIL library *:* CIL module *
 0002:00018e54       $chain$2$deflate           0000000180063e54     * CIL library *:* CIL module *
 0002:00018e68       $chain$3$deflate           0000000180063e68     * CIL library *:* CIL module *
 0002:00018e78       $chain$5$deflate           0000000180063e78     * CIL library *:* CIL module *
 0002:00018e90       $chain$6$deflate           0000000180063e90     * CIL library *:* CIL module *
 0002:00018ea0       $chain$0$deflateEnd        0000000180063ea0     * CIL library *:* CIL module *
 0002:00018eb4       $chain$2$deflateEnd        0000000180063eb4     * CIL library *:* CIL module *
 0002:00018ec8       $chain$3$deflateEnd        0000000180063ec8     * CIL library *:* CIL module *
 0002:00018ed8       $unwind$read_buf           0000000180063ed8     * CIL library *:* CIL module *
 0002:00018eec       $unwind$longest_match      0000000180063eec     * CIL library *:* CIL module *
 0002:00018f08       $chain$0$fill_window       0000000180063f08     * CIL library *:* CIL module *
 0002:00018f1c       $chain$1$fill_window       0000000180063f1c     * CIL library *:* CIL module *
 0002:00018f2c       $unwind$deflate_stored     0000000180063f2c     * CIL library *:* CIL module *
 0002:00018f4c       $unwind$deflate_fast       0000000180063f4c     * CIL library *:* CIL module *
 0002:00018f68       $unwind$deflate_slow       0000000180063f68     * CIL library *:* CIL module *
 0002:00018f84       $unwind$deflate_rle        0000000180063f84     * CIL library *:* CIL module *
 0002:00018fa4       $unwind$deflate_huff       0000000180063fa4     * CIL library *:* CIL module *
 0002:00018fc0       $unwind$pqdownheap         0000000180063fc0     * CIL library *:* CIL module *
 0002:00018fcc       $chain$0$pqdownheap        0000000180063fcc     * CIL library *:* CIL module *
 0002:00018fe0       $chain$2$pqdownheap        0000000180063fe0     * CIL library *:* CIL module *
 0002:00018ff4       $chain$3$pqdownheap        0000000180063ff4     * CIL library *:* CIL module *
 0002:00019004       $unwind$gen_bitlen         0000000180064004     * CIL library *:* CIL module *
 0002:00019014       $chain$2$gen_bitlen        0000000180064014     * CIL library *:* CIL module *
 0002:00019030       $chain$3$gen_bitlen        0000000180064030     * CIL library *:* CIL module *
 0002:00019040       $unwind$gen_codes          0000000180064040     * CIL library *:* CIL module *
 0002:00019050       $unwind$_setmode_nolock    0000000180064050     * CIL library *:* CIL module *
 0002:00019050       $unwind$EGifGetGifVersion  0000000180064050     * CIL library *:* CIL module *
 0002:00019050       $unwind$SortCmpRtn         0000000180064050     * CIL library *:* CIL module *
 0002:00019050       $unwind$scan_tree          0000000180064050     * CIL library *:* CIL module *
 0002:0001905c       $unwind$send_tree          000000018006405c     * CIL library *:* CIL module *
 0002:00019064       $chain$3$send_tree         0000000180064064     * CIL library *:* CIL module *
 0002:00019084       $chain$4$send_tree         0000000180064084     * CIL library *:* CIL module *
 0002:00019094       $unwind$compress_block     0000000180064094     * CIL library *:* CIL module *
 0002:000190a0       $chain$1$compress_block    00000001800640a0     * CIL library *:* CIL module *
 0002:000190b8       $chain$4$compress_block    00000001800640b8     * CIL library *:* CIL module *
 0002:000190d4       $chain$5$compress_block    00000001800640d4     * CIL library *:* CIL module *
 0002:000190e4       $chain$6$compress_block    00000001800640e4     * CIL library *:* CIL module *
 0002:000190f4       $unwind$EGifOpen           00000001800640f4     * CIL library *:* CIL module *
 0002:00019108       $chain$1$EGifOpen          0000000180064108     * CIL library *:* CIL module *
 0002:0001911c       $chain$2$EGifOpen          000000018006411c     * CIL library *:* CIL module *
 0002:0001912c       $unwind$EGifPutScreenDesc  000000018006412c     * CIL library *:* CIL module *
 0002:0001913c       $chain$1$EGifPutScreenDesc 000000018006413c     * CIL library *:* CIL module *
 0002:00019154       $chain$2$EGifPutScreenDesc 0000000180064154     * CIL library *:* CIL module *
 0002:00019168       $chain$3$EGifPutScreenDesc 0000000180064168     * CIL library *:* CIL module *
 0002:00019178       $chain$5$EGifPutScreenDesc 0000000180064178     * CIL library *:* CIL module *
 0002:00019194       $unwind$EGifPutImageDesc   0000000180064194     * CIL library *:* CIL module *
 0002:000191b0       $unwind$EGifPutLine        00000001800641b0     * CIL library *:* CIL module *
 0002:000191b8       $chain$6$EGifPutLine       00000001800641b8     * CIL library *:* CIL module *
 0002:000191e4       $chain$8$EGifPutLine       00000001800641e4     * CIL library *:* CIL module *
 0002:00019210       $chain$1$EGifCloseFile     0000000180064210     * CIL library *:* CIL module *
 0002:00019228       $chain$4$EGifCloseFile     0000000180064228     * CIL library *:* CIL module *
 0002:00019228       $chain$2$EGifCloseFile     0000000180064228     * CIL library *:* CIL module *
 0002:0001923c       $unwind$EGifCompressOutput 000000018006423c     * CIL library *:* CIL module *
 0002:0001924c       $chain$2$EGifCompressOutput 000000018006424c     * CIL library *:* CIL module *
 0002:00019268       $chain$3$EGifCompressOutput 0000000180064268     * CIL library *:* CIL module *
 0002:00019278       $unwind$EGifWriteExtensions 0000000180064278     * CIL library *:* CIL module *
 0002:0001928c       $unwind$EGifSpew           000000018006428c     * CIL library *:* CIL module *
 0002:000192a0       $chain$6$EGifSpew          00000001800642a0     * CIL library *:* CIL module *
 0002:000192cc       $chain$7$EGifSpew          00000001800642cc     * CIL library *:* CIL module *
 0002:000192dc       $unwind$GifMakeMapObject   00000001800642dc     * CIL library *:* CIL module *
 0002:000192f0       $chain$1$GifMakeMapObject  00000001800642f0     * CIL library *:* CIL module *
 0002:00019304       $chain$2$GifMakeMapObject  0000000180064304     * CIL library *:* CIL module *
 0002:00019314       $unwind$GifQuantizeBuffer  0000000180064314     * CIL library *:* CIL module *
 0002:00019334       $chain$0$GifQuantizeBuffer 0000000180064334     * CIL library *:* CIL module *
 0002:00019348       $chain$1$GifQuantizeBuffer 0000000180064348     * CIL library *:* CIL module *
 0002:00019358       xdata                      0000000180064358     node:node.exe
 0002:00019360       $xdatasym                  0000000180064360     LIBCMT:amdsecgs.obj
 0002:00019368       $xdatasym                  0000000180064368     LIBCMT:memcpy.obj
 0002:0001936c       $unwind$_onexit            000000018006436c     LIBCMT:onexit.obj
 0002:0001939c       $unwind$_vsnprintf_s_l     000000018006439c     LIBCMT:vsnprnc.obj
 0002:000193b4       $unwind$_vsnprintf_helper  00000001800643b4     LIBCMT:vsnprnc.obj
 0002:000193b4       $unwind$_vswprintf_helper  00000001800643b4     LIBCMT:vsnprnc.obj
 0002:000193cc       $unwind$swprintf           00000001800643cc     LIBCMT:wassert.obj
 0002:000193d4       $unwind$_wassert           00000001800643d4     LIBCMT:wassert.obj
 0002:000193f8       $xdatasym                  00000001800643f8     LIBCMT:strncpy.obj
 0002:000193fc       $unwind$_fsopen            00000001800643fc     LIBCMT:fopen.obj
 0002:00019438       $unwind$fprintf            0000000180064438     LIBCMT:fprintf.obj
 0002:00019460       $unwind$_write$fin$0       0000000180064460     LIBCMT:fprintf.obj
 0002:00019460       $unwind$__updatetmbcinfo$fin$0 0000000180064460     LIBCMT:fprintf.obj
 0002:00019460       $unwind$_read$fin$0        0000000180064460     LIBCMT:fprintf.obj
 0002:00019460       $unwind$_freefls$fin$1     0000000180064460     LIBCMT:fprintf.obj
 0002:00019460       $unwind$_ctrlfp$filt$0     0000000180064460     LIBCMT:fprintf.obj
 0002:00019460       $unwind$__updatetlocinfo$fin$0 0000000180064460     LIBCMT:fprintf.obj
 0002:00019460       $unwind$flsall$fin$0       0000000180064460     LIBCMT:fprintf.obj
 0002:00019460       $unwind$fclose$fin$0       0000000180064460     LIBCMT:fprintf.obj
 0002:00019460       $unwind$_freefls$fin$0     0000000180064460     LIBCMT:fprintf.obj
 0002:00019460       $unwind$?fin$0@?0??_Type_info_dtor@type_info@@CAXPEAV1@@Z@4HA 0000000180064460     LIBCMT:fprintf.obj
 0002:00019460       $unwind$setvbuf$fin$0      0000000180064460     LIBCMT:fprintf.obj
 0002:00019460       $unwind$_IsNonwritableInCurrentImage$filt$0 0000000180064460     LIBCMT:fprintf.obj
 0002:00019460       $unwind$fwprintf$fin$0     0000000180064460     LIBCMT:fprintf.obj
 0002:00019460       $unwind$_alloc_osfhnd$fin$1 0000000180064460     LIBCMT:fprintf.obj
 0002:00019460       $unwind$fprintf$fin$0      0000000180064460     LIBCMT:fprintf.obj
 0002:00019460       $unwind$fflush$fin$0       0000000180064460     LIBCMT:fprintf.obj
 0002:00019460       $unwind$flsall$fin$1       0000000180064460     LIBCMT:fprintf.obj
 0002:00019460       $unwind$_alloc_osfhnd$fin$0 0000000180064460     LIBCMT:fprintf.obj
 0002:00019460       $unwind$_ioinit$fin$0      0000000180064460     LIBCMT:fprintf.obj
 0002:00019460       $unwind$_locterm$fin$0     0000000180064460     LIBCMT:fprintf.obj
 0002:00019460       $unwind$getenv$fin$0       0000000180064460     LIBCMT:fprintf.obj
 0002:00019460       $unwind$__CxxCallCatchBlock$filt$0 0000000180064460     LIBCMT:fprintf.obj
 0002:00019460       $unwind$__DestructExceptionObject$filt$0 0000000180064460     LIBCMT:fprintf.obj
 0002:00019460       $unwind$__FrameUnwindToState$fin$1 0000000180064460     LIBCMT:fprintf.obj
 0002:00019460       $unwind$__DllMainCRTStartup$filt$0 0000000180064460     LIBCMT:fprintf.obj
 0002:00019460       $unwind$doexit$fin$0       0000000180064460     LIBCMT:fprintf.obj
 0002:00019460       $unwind$_fcloseall$fin$0   0000000180064460     LIBCMT:fprintf.obj
 0002:00019460       $unwind$__FrameUnwindToState$filt$0 0000000180064460     LIBCMT:fprintf.obj
 0002:00019460       $unwind$_initptd$fin$1     0000000180064460     LIBCMT:fprintf.obj
 0002:00019460       $unwind$_CRT_INIT$fin$0    0000000180064460     LIBCMT:fprintf.obj
 0002:00019460       $unwind$_commit$fin$0      0000000180064460     LIBCMT:fprintf.obj
 0002:00019460       $unwind$_mtinitlocknum$fin$0 0000000180064460     LIBCMT:fprintf.obj
 0002:00019460       $unwind$fwrite$fin$0       0000000180064460     LIBCMT:fprintf.obj
 0002:00019460       $unwind$_getstream$fin$0   0000000180064460     LIBCMT:fprintf.obj
 0002:00019460       $unwind$_initptd$fin$0     0000000180064460     LIBCMT:fprintf.obj
 0002:00019460       $unwind$_lseeki64$fin$0    0000000180064460     LIBCMT:fprintf.obj
 0002:00019460       $unwind$raise$fin$0        0000000180064460     LIBCMT:fprintf.obj
 0002:00019460       $unwind$__lock_fhandle$fin$0 0000000180064460     LIBCMT:fprintf.obj
 0002:00019460       $unwind$_close$fin$0       0000000180064460     LIBCMT:fprintf.obj
 0002:00019460       $unwind$_setmbcp$fin$0     0000000180064460     LIBCMT:fprintf.obj
 0002:00019460       $unwind$_fsopen$fin$0      0000000180064460     LIBCMT:fprintf.obj
 0002:00019460       $unwind$_onexit$fin$0      0000000180064460     LIBCMT:fprintf.obj
 0002:00019468       $xdatasym                  0000000180064468     LIBCMT:longjmp.obj
 0002:00019470       $unwind$getenv             0000000180064470     LIBCMT:getenv.obj
 0002:00019490       $unwind$_vsnprintf_l       0000000180064490     LIBCMT:vsprintf.obj
 0002:00019490       $unwind$vscan_fn           0000000180064490     LIBCMT:vsprintf.obj
 0002:00019490       $unwind$_vscprintf_helper  0000000180064490     LIBCMT:vsprintf.obj
 0002:000194a4       $unwind$fclose             00000001800644a4     LIBCMT:fclose.obj
 0002:000194c8       $unwind$fflush             00000001800644c8     LIBCMT:fflush.obj
 0002:000194ec       $unwind$flsall             00000001800644ec     LIBCMT:fflush.obj
 0002:0001952c       $unwind$fwrite             000000018006452c     LIBCMT:fwrite.obj
 0002:00019558       $unwind$_fwrite_nolock     0000000180064558     LIBCMT:fwrite.obj
 0002:00019574       $unwind$sprintf            0000000180064574     LIBCMT:sprintf.obj
 0002:00019580       $unwind$__copy_path_to_wide_string 0000000180064580     LIBCMT:crt0dat.obj
 0002:00019598       $unwind$doexit             0000000180064598     LIBCMT:crt0dat.obj
 0002:000195c8       $unwind$sscanf             00000001800645c8     LIBCMT:sscanf.obj
 0002:000195d0       $unwind$__report_securityfailure 00000001800645d0     LIBCMT:gs_report.obj
 0002:000195d8       $unwind$_putwch_nolock     00000001800645d8     LIBCMT:gs_report.obj
 0002:000195d8       $unwind$__report_gsfailure 00000001800645d8     LIBCMT:gs_report.obj
 0002:000195e0       $unwind$frexp              00000001800645e0     LIBCMT:frexp.obj
 0002:000195f0       $unwind$_atof_l            00000001800645f0     LIBCMT:atof.obj
 0002:00019600       $unwind$_lseeki64          0000000180064600     LIBCMT:lseeki64.obj
 0002:0001962c       $unwind$_wsopen_nolock     000000018006462c     LIBCMT:wopen.obj
 0002:00019648       $unwind$qsort              0000000180064648     LIBCMT:qsort.obj
 0002:00019660       $chain$4$qsort             0000000180064660     LIBCMT:qsort.obj
 0002:00019684       $chain$5$qsort             0000000180064684     LIBCMT:qsort.obj
 0002:00019694       $unwind$shortsort          0000000180064694     LIBCMT:qsort.obj
 0002:000196a4       $chain$2$shortsort         00000001800646a4     LIBCMT:qsort.obj
 0002:000196c0       $chain$3$shortsort         00000001800646c0     LIBCMT:qsort.obj
 0002:000196d0       $unwind$_stricmp_l         00000001800646d0     LIBCMT:stricmp.obj
 0002:000196d0       $unwind$?x_ismbbtype_l@@YAHPEAUlocaleinfo_struct@@IHH@Z 00000001800646d0     LIBCMT:stricmp.obj
 0002:000196d0       $unwind$_mbschr_l          00000001800646d0     LIBCMT:stricmp.obj
 0002:000196e0       $unwind$_CRT_INIT          00000001800646e0     LIBCMT:dllcrt0.obj
 0002:00019700       $unwind$__DllMainCRTStartup 0000000180064700     LIBCMT:dllcrt0.obj
 0002:00019728       $xdatasym                  0000000180064728     LIBCMT:strlen.obj
 0002:0001972c       $unwind$_CxxThrowException 000000018006472c     LIBCMT:throw.obj
 0002:0001973c       $unwind$?__FrameUnwindToEmptyState@@YAXPEA_KPEAU_xDISPATCHER_CONTEXT@@PEBU_s_FuncInfo@@@Z 000000018006473c     LIBCMT:trnsctrl.obj
 0002:00019750       $unwind$_UnwindNestedFrames 0000000180064750     LIBCMT:trnsctrl.obj
 0002:00019764       $unwind$_CallSETranslator  0000000180064764     LIBCMT:trnsctrl.obj
 0002:00019784       $unwind$_CallSETranslator$filt$0 0000000180064784     LIBCMT:trnsctrl.obj
 0002:00019784       $unwind$_sopen_helper$fin$0 0000000180064784     LIBCMT:trnsctrl.obj
 0002:0001978c       $unwind$parse_cmdline      000000018006478c     LIBCMT:trnsctrl.obj
 0002:0001978c       $unwind$?_GetRangeOfTrysToCheck@@YAPEBU_s_TryBlockMapEntry@@PEA_KPEBU_s_FuncInfo@@HHPEAI2PEAU_xDISPATCHER_CONTEXT@@@Z 000000018006478c     LIBCMT:trnsctrl.obj
 0002:000197a8       $unwind$?_GetEstablisherFrame@@YAPEA_KPEA_KPEAU_xDISPATCHER_CONTEXT@@PEBU_s_FuncInfo@@0@Z 00000001800647a8     LIBCMT:trnsctrl.obj
 0002:000197c0       $unwind$__CxxFrameHandler3 00000001800647c0     LIBCMT:trnsctrl.obj
 0002:000197d0       $unwind$__isa_available_init 00000001800647d0     LIBCMT:cpu_disp.obj
 0002:000197e4       $unwind$_NMSG_WRITE        00000001800647e4     LIBCMT:crt0msg.obj
 0002:00019808       $unwind$?terminate@@YAXXZ  0000000180064808     LIBCMT:hooks.obj
 0002:00019828       $unwind$?_inconsistency@@YAXXZ 0000000180064828     LIBCMT:hooks.obj
 0002:00019848       $unwind$__C_specific_handler 0000000180064848     LIBCMT:chandler.obj
 0002:00019864       $unwind$__TypeMatch        0000000180064864     LIBCMT:crtheap.obj
 0002:00019864       $unwind$_malloc_crt        0000000180064864     LIBCMT:crtheap.obj
 0002:00019864       $unwind$__GSHandlerCheck_EH 0000000180064864     LIBCMT:crtheap.obj
 0002:00019864       $unwind$_calloc_crt        0000000180064864     LIBCMT:crtheap.obj
 0002:00019864       $unwind$_realloc_crt       0000000180064864     LIBCMT:crtheap.obj
 0002:00019864       $unwind$GetTableIndexFromLocaleName 0000000180064864     LIBCMT:crtheap.obj
 0002:0001987c       $unwind$_ctrlfp            000000018006487c     LIBCMT:fpctrl.obj
 0002:000198a4       $unwind$_call_matherr      00000001800648a4     LIBCMT:libm_error.obj
 0002:000198ac       $unwind$_handle_error      00000001800648ac     LIBCMT:libm_error.obj
 0002:000198cc       $unwind$_call_reportfault  00000001800648cc     LIBCMT:invarg.obj
 0002:000198ec       $unwind$_flsbuf            00000001800648ec     LIBCMT:_flsbuf.obj
 0002:00019900       $unwind$_output_s_l        0000000180064900     LIBCMT:outputs.obj
 0002:00019900       $unwind$_output_l          0000000180064900     LIBCMT:outputs.obj
 0002:00019924       $unwind$write_multi_char   0000000180064924     LIBCMT:outputs.obj
 0002:00019924       $unwind$write_multi_char   0000000180064924     LIBCMT:outputs.obj
 0002:00019924       $unwind$write_multi_char   0000000180064924     LIBCMT:outputs.obj
 0002:00019938       $xdatasym                  0000000180064938     LIBCMT:memset.obj
 0002:0001993c       $unwind$_fcloseall         000000018006493c     LIBCMT:closeall.obj
 0002:00019964       $unwind$_mtinitlocknum     0000000180064964     LIBCMT:mlock.obj
 0002:0001998c       $unwind$setvbuf            000000018006498c     LIBCMT:setvbuf.obj
 0002:000199b8       $unwind$fwprintf           00000001800649b8     LIBCMT:fwprintf.obj
 0002:000199dc       $unwind$raise              00000001800649dc     LIBCMT:winsig.obj
 0002:00019a0c       $unwind$__crtMessageBoxW   0000000180064a0c     LIBCMT:crtmboxw.obj
 0002:00019a28       $unwind$_getstream         0000000180064a28     LIBCMT:stream.obj
 0002:00019a50       $unwind$_openfile          0000000180064a50     LIBCMT:_open.obj
 0002:00019a68       $xdatasym                  0000000180064a68     LIBCMT:jmpuwind.obj
 0002:00019a7c       $unwind$_ftbuf             0000000180064a7c     LIBCMT:_sftbuf.obj
 0002:00019a84       $unwind$_ioinit            0000000180064a84     LIBCMT:ioinit.obj
 0002:00019acc       $unwind$_freefls           0000000180064acc     LIBCMT:tidtable.obj
 0002:00019b00       $unwind$_initptd           0000000180064b00     LIBCMT:tidtable.obj
 0002:00019b34       $unwind$__wtomb_environ    0000000180064b34     LIBCMT:wtombenv.obj
 0002:00019b44       $unwind$_mbsnbicoll_l      0000000180064b44     LIBCMT:mbsnbico.obj
 0002:00019b60       $xdatasym                  0000000180064b60     LIBCMT:strcmp.obj
 0002:00019b64       $unwind$?_Type_info_dtor@type_info@@CAXPEAV1@@Z 0000000180064b64     LIBCMT:typname.obj
 0002:00019b84       $unwind$_close             0000000180064b84     LIBCMT:close.obj
 0002:00019bac       $unwind$_commit            0000000180064bac     LIBCMT:commit.obj
 0002:00019bd4       $unwind$_write             0000000180064bd4     LIBCMT:write.obj
 0002:00019c00       $unwind$_write_nolock      0000000180064c00     LIBCMT:write.obj
 0002:00019c24       $unwind$__crtCaptureCurrentContext 0000000180064c24     LIBCMT:winapisupp.obj
 0002:00019c30       $unwind$__crtCapturePreviousContext 0000000180064c30     LIBCMT:winapisupp.obj
 0002:00019c3c       $unwind$_IsNonwritableInCurrentImage 0000000180064c3c     LIBCMT:pesect.obj
 0002:00019c60       $unwind$__updatetmbcinfo   0000000180064c60     LIBCMT:mbctype.obj
 0002:00019c84       $unwind$_setmbcp           0000000180064c84     LIBCMT:mbctype.obj
 0002:00019cb4       $unwind$_setmbcp_nolock    0000000180064cb4     LIBCMT:mbctype.obj
 0002:00019cd4       $unwind$?setSBUpLow@@YAXPEAUthreadmbcinfostruct@@@Z 0000000180064cd4     LIBCMT:mbctype.obj
 0002:00019cf0       $unwind$_input_l           0000000180064cf0     LIBCMT:input.obj
 0002:00019d14       $unwind$_except1           0000000180064d14     LIBCMT:fpexcept.obj
 0002:00019d34       $unwind$_handle_qnan1      0000000180064d34     LIBCMT:fpexcept.obj
 0002:00019d40       $unwind$_handle_exc        0000000180064d40     LIBCMT:fpexcept.obj
 0002:00019d5c       $unwind$_umatherr          0000000180064d5c     LIBCMT:fpexcept.obj
 0002:00019d64       $unwind$_raise_exc_ex      0000000180064d64     LIBCMT:fpexcept.obj
 0002:00019d78       $unwind$_fltin2            0000000180064d78     LIBCMT:cfin.obj
 0002:00019d90       $unwind$__strgtold12_l     0000000180064d90     LIBCMT:strgtold.obj
 0002:00019db4       $unwind$__updatetlocinfo   0000000180064db4     LIBCMT:localref.obj
 0002:00019dd4       $unwind$_isctype_l         0000000180064dd4     LIBCMT:isctype.obj
 0002:00019de4       $unwind$_alloc_osfhnd      0000000180064de4     LIBCMT:osfinfo.obj
 0002:00019e28       $unwind$_stbuf             0000000180064e28     LIBCMT:osfinfo.obj
 0002:00019e28       $unwind$_free_osfhnd       0000000180064e28     LIBCMT:osfinfo.obj
 0002:00019e38       $unwind$__lock_fhandle     0000000180064e38     LIBCMT:osfinfo.obj
 0002:00019e64       $unwind$_chsize_nolock     0000000180064e64     LIBCMT:chsize.obj
 0002:00019e80       $unwind$_read              0000000180064e80     LIBCMT:read.obj
 0002:00019eb0       $unwind$_read_nolock       0000000180064eb0     LIBCMT:read.obj
 0002:00019ec8       $unwind$_tolower_l         0000000180064ec8     LIBCMT:tolower.obj
 0002:00019ed8       $unwind$_locterm           0000000180064ed8     LIBCMT:wsetloca.obj
 0002:00019ef8       $unwind$__security_init_cookie 0000000180064ef8     LIBCMT:gs_support.obj
 0002:00019f04       $unwind$__CxxCallCatchBlock 0000000180064f04     LIBCMT:frame.obj
 0002:00019f44       $unwind$__CxxCallCatchBlock$fin$1 0000000180064f44     LIBCMT:frame.obj
 0002:00019f50       $unwind$__FrameUnwindToState 0000000180064f50     LIBCMT:frame.obj
 0002:00019f8c       $unwind$?FindHandler@@YAXPEAUEHExceptionRecord@@PEA_KPEAU_CONTEXT@@PEAU_xDISPATCHER_CONTEXT@@PEBU_s_FuncInfo@@EH1@Z 0000000180064f8c     LIBCMT:frame.obj
 0002:00019fa8       $unwind$?CatchIt@@YAXPEAUEHExceptionRecord@@PEA_KPEAU_CONTEXT@@PEAU_xDISPATCHER_CONTEXT@@PEBU_s_FuncInfo@@PEBU_s_HandlerType@@PEBU_s_CatchableType@@PEBU_s_TryBlockMapEntry@@H1EE@Z 0000000180064fa8     LIBCMT:frame.obj
 0002:00019fc0       $unwind$__BuildCatchObject 0000000180064fc0     LIBCMT:frame.obj
 0002:00019fec       $unwind$?FindHandlerForForeignException@@YAXPEAUEHExceptionRecord@@PEA_KPEAU_CONTEXT@@PEAU_xDISPATCHER_CONTEXT@@PEBU_s_FuncInfo@@HH1@Z 0000000180064fec     LIBCMT:frame.obj
 0002:0001a004       $unwind$__DestructExceptionObject 0000000180065004     LIBCMT:frame.obj
 0002:0001a024       $unwind$__InternalCxxFrameHandler 0000000180065024     LIBCMT:frame.obj
 0002:0001a03c       $unwind$__BuildCatchObjectHelper 000000018006503c     LIBCMT:frame.obj
 0002:0001a06c       $unwind$_fassign_l         000000018006506c     LIBCMT:cvt.obj
 0002:0001a074       $unwind$_cftoe2_l          0000000180065074     LIBCMT:cvt.obj
 0002:0001a090       $unwind$_cftoe_l           0000000180065090     LIBCMT:cvt.obj
 0002:0001a0a8       $unwind$_cftoa_l           00000001800650a8     LIBCMT:cvt.obj
 0002:0001a0c4       $unwind$__crtGetEnvironmentStringsA 00000001800650c4     LIBCMT:cvt.obj
 0002:0001a0c4       $unwind$_cftof2_l          00000001800650c4     LIBCMT:cvt.obj
 0002:0001a0dc       $unwind$_cftof_l           00000001800650dc     LIBCMT:cvt.obj
 0002:0001a0f4       $unwind$_cftog_l           00000001800650f4     LIBCMT:cvt.obj
 0002:0001a110       $xdatasym                  0000000180065110     LIBCMT:fpsr.obj
 0002:0001a118       $unwind$isleadbyte         0000000180065118     LIBCMT:_wctype.obj
 0002:0001a118       $unwind$_cropzeros_l       0000000180065118     LIBCMT:_wctype.obj
 0002:0001a118       $unwind$_isleadbyte_l      0000000180065118     LIBCMT:_wctype.obj
 0002:0001a118       $unwind$isdigit            0000000180065118     LIBCMT:_wctype.obj
 0002:0001a118       $unwind$isspace            0000000180065118     LIBCMT:_wctype.obj
 0002:0001a118       $unwind$??2@YAPEAX_K@Z     0000000180065118     LIBCMT:_wctype.obj
 0002:0001a118       $unwind$isxdigit           0000000180065118     LIBCMT:_wctype.obj
 0002:0001a118       $unwind$_forcdecpt_l       0000000180065118     LIBCMT:_wctype.obj
 0002:0001a118       $unwind$?getSystemCP@@YAHH@Z 0000000180065118     LIBCMT:_wctype.obj
 0002:0001a120       $unwind$_wctomb_s_l        0000000180065120     LIBCMT:wctomb.obj
 0002:0001a130       $unwind$_woutput_l         0000000180065130     LIBCMT:woutput.obj
 0002:0001a154       $unwind$_sopen_helper      0000000180065154     LIBCMT:open.obj
 0002:0001a178       $unwind$__crtLCMapStringEx 0000000180065178     LIBCMT:open.obj
 0002:0001a178       $unwind$__crtCompareStringEx 0000000180065178     LIBCMT:open.obj
 0002:0001a178       $unwind$_sopen_nolock      0000000180065178     LIBCMT:open.obj
 0002:0001a188       $unwind$__crtsetenv        0000000180065188     LIBCMT:setenv.obj
 0002:0001a1a4       $unwind$__crtCompareStringA 00000001800651a4     LIBCMT:a_cmp.obj
 0002:0001a1a4       $unwind$__crtGetStringTypeA 00000001800651a4     LIBCMT:a_cmp.obj
 0002:0001a1b4       $unwind$?__crtCompareStringA_stat@@YAHPEAUlocaleinfo_struct@@PEB_WKPEBDH2HH@Z 00000001800651b4     LIBCMT:a_cmp.obj
 0002:0001a1d4       $unwind$_mbtowc_l          00000001800651d4     LIBCMT:mbtowc.obj
 0002:0001a1f0       $xdatasym                  00000001800651f0     LIBCMT:chkstk.obj
 0002:0001a1f8       $unwind$__crtLCMapStringA  00000001800651f8     LIBCMT:a_map.obj
 0002:0001a208       $unwind$?__crtLCMapStringA_stat@@YAHPEAUlocaleinfo_struct@@PEB_WKPEBDHPEADHHH@Z 0000000180065208     LIBCMT:a_map.obj
 0002:0001a230       $unwind$?__crtGetStringTypeA_stat@@YAHPEAUlocaleinfo_struct@@KPEBDHPEAGHH@Z 0000000180065230     LIBCMT:a_str.obj
 0002:0001a258       $unwind$_ld12tod           0000000180065258     LIBCMT:intrncvt.obj
 0002:0001a258       $unwind$_ld12tof           0000000180065258     LIBCMT:intrncvt.obj
 0002:0001a27c       $unwind$__mtold12          000000018006527c     LIBCMT:mantold.obj
 0002:0001a298       $xdatasym                  0000000180065298     LIBCMT:memcmp.obj
 0002:0001a2a0       $xdatasym                  00000001800652a0     LIBCMT:handlers.obj
 0002:0001a2a8       $unwind$strrchr            00000001800652a8     LIBCMT:strrchr.obj
 0002:0001a2a8       $unwind$strchr             00000001800652a8     LIBCMT:strrchr.obj
 0002:0001a2b0       $unwind$_atodbl_l          00000001800652b0     LIBCMT:atodbl.obj
 0002:0001a2c4       $unwind$__crt_atoflt_l     00000001800652c4     LIBCMT:atodbl.obj
 0002:0001a2d8       $unwind$_fltout2           00000001800652d8     LIBCMT:cfout.obj
 0002:0001a2f0       $unwind$_fputwc_nolock     00000001800652f0     LIBCMT:fputwc.obj
 0002:0001a310       $xdatasym                  0000000180065310     LIBCMT:strncmp.obj
 0002:0001a314       $unwind$$I10_OUTPUT        0000000180065314     LIBCMT:x10fout.obj
 0002:0001a338       $unwind$_flswbuf           0000000180065338     LIBCMT:_flswbuf.obj
 0002:0001a34c       $unwind$__delayLoadHelper2 000000018006534c     DelayImp:delayhlp.obj
 0002:0001a368       $xdatasym                  0000000180065368     LIBCMT:setjmp.obj
 0002:0001b280       .edata                     0000000180066280     lwip_encoder.exp
 0002:0001b2a8       rgpv                       00000001800662a8     lwip_encoder.exp
 0002:0001b590       rgszName                   0000000180066590     lwip_encoder.exp
 0002:0001b878       rgwOrd                     0000000180066878     lwip_encoder.exp
 0002:0001b9ec       szName                     00000001800669ec     lwip_encoder.exp
 0002:0001b9fe       $N00001                    00000001800669fe     lwip_encoder.exp
 0002:0001ba16       $N00002                    0000000180066a16     lwip_encoder.exp
 0002:0001ba30       $N00003                    0000000180066a30     lwip_encoder.exp
 0002:0001ba41       $N00004                    0000000180066a41     lwip_encoder.exp
 0002:0001ba5d       $N00005                    0000000180066a5d     lwip_encoder.exp
 0002:0001ba68       $N00006                    0000000180066a68     lwip_encoder.exp
 0002:0001ba7a       $N00007                    0000000180066a7a     lwip_encoder.exp
 0002:0001ba95       $N00008                    0000000180066a95     lwip_encoder.exp
 0002:0001baad       $N00009                    0000000180066aad     lwip_encoder.exp
 0002:0001bac4       $N00010                    0000000180066ac4     lwip_encoder.exp
 0002:0001bae2       $N00011                    0000000180066ae2     lwip_encoder.exp
 0002:0001baf9       $N00012                    0000000180066af9     lwip_encoder.exp
 0002:0001bb11       $N00013                    0000000180066b11     lwip_encoder.exp
 0002:0001bb2b       $N00014                    0000000180066b2b     lwip_encoder.exp
 0002:0001bb3a       $N00015                    0000000180066b3a     lwip_encoder.exp
 0002:0001bb52       $N00016                    0000000180066b52     lwip_encoder.exp
 0002:0001bb6b       $N00017                    0000000180066b6b     lwip_encoder.exp
 0002:0001bb75       $N00018                    0000000180066b75     lwip_encoder.exp
 0002:0001bb7e       $N00019                    0000000180066b7e     lwip_encoder.exp
 0002:0001bb8c       $N00020                    0000000180066b8c     lwip_encoder.exp
 0002:0001bb9d       $N00021                    0000000180066b9d     lwip_encoder.exp
 0002:0001bbaa       $N00022                    0000000180066baa     lwip_encoder.exp
 0002:0001bbb7       $N00023                    0000000180066bb7     lwip_encoder.exp
 0002:0001bbc4       $N00024                    0000000180066bc4     lwip_encoder.exp
 0002:0001bbd6       $N00025                    0000000180066bd6     lwip_encoder.exp
 0002:0001bbe3       $N00026                    0000000180066be3     lwip_encoder.exp
 0002:0001bbf4       $N00027                    0000000180066bf4     lwip_encoder.exp
 0002:0001bc0b       $N00028                    0000000180066c0b     lwip_encoder.exp
 0002:0001bc1e       $N00029                    0000000180066c1e     lwip_encoder.exp
 0002:0001bc2f       $N00030                    0000000180066c2f     lwip_encoder.exp
 0002:0001bc47       $N00031                    0000000180066c47     lwip_encoder.exp
 0002:0001bc60       $N00032                    0000000180066c60     lwip_encoder.exp
 0002:0001bc73       $N00033                    0000000180066c73     lwip_encoder.exp
 0002:0001bc93       $N00034                    0000000180066c93     lwip_encoder.exp
 0002:0001bcac       $N00035                    0000000180066cac     lwip_encoder.exp
 0002:0001bcbe       $N00036                    0000000180066cbe     lwip_encoder.exp
 0002:0001bcda       $N00037                    0000000180066cda     lwip_encoder.exp
 0002:0001bcf5       $N00038                    0000000180066cf5     lwip_encoder.exp
 0002:0001bd07       $N00039                    0000000180066d07     lwip_encoder.exp
 0002:0001bd1b       $N00040                    0000000180066d1b     lwip_encoder.exp
 0002:0001bd28       $N00041                    0000000180066d28     lwip_encoder.exp
 0002:0001bd3b       $N00042                    0000000180066d3b     lwip_encoder.exp
 0002:0001bd48       $N00043                    0000000180066d48     lwip_encoder.exp
 0002:0001bd5b       $N00044                    0000000180066d5b     lwip_encoder.exp
 0002:0001bd72       $N00045                    0000000180066d72     lwip_encoder.exp
 0002:0001bd7f       $N00046                    0000000180066d7f     lwip_encoder.exp
 0002:0001bd94       $N00047                    0000000180066d94     lwip_encoder.exp
 0002:0001bda8       $N00048                    0000000180066da8     lwip_encoder.exp
 0002:0001bdbf       $N00049                    0000000180066dbf     lwip_encoder.exp
 0002:0001bdd5       $N00050                    0000000180066dd5     lwip_encoder.exp
 0002:0001bde4       $N00051                    0000000180066de4     lwip_encoder.exp
 0002:0001bdf5       $N00052                    0000000180066df5     lwip_encoder.exp
 0002:0001be08       $N00053                    0000000180066e08     lwip_encoder.exp
 0002:0001be18       $N00054                    0000000180066e18     lwip_encoder.exp
 0002:0001be25       $N00055                    0000000180066e25     lwip_encoder.exp
 0002:0001be32       $N00056                    0000000180066e32     lwip_encoder.exp
 0002:0001be3f       $N00057                    0000000180066e3f     lwip_encoder.exp
 0002:0001be50       $N00058                    0000000180066e50     lwip_encoder.exp
 0002:0001be64       $N00059                    0000000180066e64     lwip_encoder.exp
 0002:0001be7f       $N00060                    0000000180066e7f     lwip_encoder.exp
 0002:0001bea0       $N00061                    0000000180066ea0     lwip_encoder.exp
 0002:0001beb8       $N00062                    0000000180066eb8     lwip_encoder.exp
 0002:0001bed1       $N00063                    0000000180066ed1     lwip_encoder.exp
 0002:0001bee2       $N00064                    0000000180066ee2     lwip_encoder.exp
 0002:0001beef       $N00065                    0000000180066eef     lwip_encoder.exp
 0002:0001befc       $N00066                    0000000180066efc     lwip_encoder.exp
 0002:0001bf09       $N00067                    0000000180066f09     lwip_encoder.exp
 0002:0001bf1c       $N00068                    0000000180066f1c     lwip_encoder.exp
 0002:0001bf2b       $N00069                    0000000180066f2b     lwip_encoder.exp
 0002:0001bf38       $N00070                    0000000180066f38     lwip_encoder.exp
 0002:0001bf45       $N00071                    0000000180066f45     lwip_encoder.exp
 0002:0001bf52       $N00072                    0000000180066f52     lwip_encoder.exp
 0002:0001bf5f       $N00073                    0000000180066f5f     lwip_encoder.exp
 0002:0001bf6c       $N00074                    0000000180066f6c     lwip_encoder.exp
 0002:0001bf83       $N00075                    0000000180066f83     lwip_encoder.exp
 0002:0001bf9a       $N00076                    0000000180066f9a     lwip_encoder.exp
 0002:0001bfb2       $N00077                    0000000180066fb2     lwip_encoder.exp
 0002:0001bfcd       $N00078                    0000000180066fcd     lwip_encoder.exp
 0002:0001bfe4       $N00079                    0000000180066fe4     lwip_encoder.exp
 0002:0001bff2       $N00080                    0000000180066ff2     lwip_encoder.exp
 0002:0001c00a       $N00081                    000000018006700a     lwip_encoder.exp
 0002:0001c028       $N00082                    0000000180067028     lwip_encoder.exp
 0002:0001c041       $N00083                    0000000180067041     lwip_encoder.exp
 0002:0001c059       $N00084                    0000000180067059     lwip_encoder.exp
 0002:0001c073       $N00085                    0000000180067073     lwip_encoder.exp
 0002:0001c08e       $N00086                    000000018006708e     lwip_encoder.exp
 0002:0001c0a6       $N00087                    00000001800670a6     lwip_encoder.exp
 0002:0001c0c4       $N00088                    00000001800670c4     lwip_encoder.exp
 0002:0001c0dd       $N00089                    00000001800670dd     lwip_encoder.exp
 0002:0001c0f5       $N00090                    00000001800670f5     lwip_encoder.exp
 0002:0001c10f       $N00091                    000000018006710f     lwip_encoder.exp
 0002:0001c12a       $N00092                    000000018006712a     lwip_encoder.exp
 0002:0001c140       $N00093                    0000000180067140     lwip_encoder.exp
 0002:0001c158       $N00094                    0000000180067158     lwip_encoder.exp
 0002:0001c171       $N00095                    0000000180067171     lwip_encoder.exp
 0002:0001c181       $N00096                    0000000180067181     lwip_encoder.exp
 0002:0001c18d       $N00097                    000000018006718d     lwip_encoder.exp
 0002:0001c199       $N00098                    0000000180067199     lwip_encoder.exp
 0002:0001c1a4       $N00099                    00000001800671a4     lwip_encoder.exp
 0002:0001c1b7       $N00100                    00000001800671b7     lwip_encoder.exp
 0002:0001c1c7       $N00101                    00000001800671c7     lwip_encoder.exp
 0002:0001c1df       $N00102                    00000001800671df     lwip_encoder.exp
 0002:0001c1ef       $N00103                    00000001800671ef     lwip_encoder.exp
 0002:0001c200       $N00104                    0000000180067200     lwip_encoder.exp
 0002:0001c211       $N00105                    0000000180067211     lwip_encoder.exp
 0002:0001c21e       $N00106                    000000018006721e     lwip_encoder.exp
 0002:0001c22b       $N00107                    000000018006722b     lwip_encoder.exp
 0002:0001c23d       $N00108                    000000018006723d     lwip_encoder.exp
 0002:0001c24a       $N00109                    000000018006724a     lwip_encoder.exp
 0002:0001c260       $N00110                    0000000180067260     lwip_encoder.exp
 0002:0001c26c       $N00111                    000000018006726c     lwip_encoder.exp
 0002:0001c279       $N00112                    0000000180067279     lwip_encoder.exp
 0002:0001c28a       $N00113                    000000018006728a     lwip_encoder.exp
 0002:0001c2a1       $N00114                    00000001800672a1     lwip_encoder.exp
 0002:0001c2b4       $N00115                    00000001800672b4     lwip_encoder.exp
 0002:0001c2d4       $N00116                    00000001800672d4     lwip_encoder.exp
 0002:0001c2ec       $N00117                    00000001800672ec     lwip_encoder.exp
 0002:0001c305       $N00118                    0000000180067305     lwip_encoder.exp
 0002:0001c325       $N00119                    0000000180067325     lwip_encoder.exp
 0002:0001c33f       $N00120                    000000018006733f     lwip_encoder.exp
 0002:0001c35d       $N00121                    000000018006735d     lwip_encoder.exp
 0002:0001c378       $N00122                    0000000180067378     lwip_encoder.exp
 0002:0001c395       $N00123                    0000000180067395     lwip_encoder.exp
 0002:0001c3b5       $N00124                    00000001800673b5     lwip_encoder.exp
 0002:0001c3c6       $N00125                    00000001800673c6     lwip_encoder.exp
 0002:0001c3d5       $N00126                    00000001800673d5     lwip_encoder.exp
 0002:0001c3e4       $N00127                    00000001800673e4     lwip_encoder.exp
 0002:0001c3fe       $N00128                    00000001800673fe     lwip_encoder.exp
 0002:0001c41e       $N00129                    000000018006741e     lwip_encoder.exp
 0002:0001c42c       $N00130                    000000018006742c     lwip_encoder.exp
 0002:0001c439       $N00131                    0000000180067439     lwip_encoder.exp
 0002:0001c44c       $N00132                    000000018006744c     lwip_encoder.exp
 0002:0001c459       $N00133                    0000000180067459     lwip_encoder.exp
 0002:0001c466       $N00134                    0000000180067466     lwip_encoder.exp
 0002:0001c481       $N00135                    0000000180067481     lwip_encoder.exp
 0002:0001c491       $N00136                    0000000180067491     lwip_encoder.exp
 0002:0001c4a6       $N00137                    00000001800674a6     lwip_encoder.exp
 0002:0001c4ba       $N00138                    00000001800674ba     lwip_encoder.exp
 0002:0001c4d6       $N00139                    00000001800674d6     lwip_encoder.exp
 0002:0001c4e9       $N00140                    00000001800674e9     lwip_encoder.exp
 0002:0001c4f8       $N00141                    00000001800674f8     lwip_encoder.exp
 0002:0001c505       $N00142                    0000000180067505     lwip_encoder.exp
 0002:0001c514       $N00143                    0000000180067514     lwip_encoder.exp
 0002:0001c521       $N00144                    0000000180067521     lwip_encoder.exp
 0002:0001c52e       $N00145                    000000018006752e     lwip_encoder.exp
 0002:0001c53e       $N00146                    000000018006753e     lwip_encoder.exp
 0002:0001c54f       $N00147                    000000018006754f     lwip_encoder.exp
 0002:0001c55c       $N00148                    000000018006755c     lwip_encoder.exp
 0002:0001c569       $N00149                    0000000180067569     lwip_encoder.exp
 0002:0001c576       $N00150                    0000000180067576     lwip_encoder.exp
 0002:0001c589       $N00151                    0000000180067589     lwip_encoder.exp
 0002:0001c598       $N00152                    0000000180067598     lwip_encoder.exp
 0002:0001c5a5       $N00153                    00000001800675a5     lwip_encoder.exp
 0002:0001c5b2       $N00154                    00000001800675b2     lwip_encoder.exp
 0002:0001c5cd       $N00155                    00000001800675cd     lwip_encoder.exp
 0002:0001c5db       $N00156                    00000001800675db     lwip_encoder.exp
 0002:0001c5e8       $N00157                    00000001800675e8     lwip_encoder.exp
 0002:0001c5fb       $N00158                    00000001800675fb     lwip_encoder.exp
 0002:0001c608       $N00159                    0000000180067608     lwip_encoder.exp
 0002:0001c615       $N00160                    0000000180067615     lwip_encoder.exp
 0002:0001c622       $N00161                    0000000180067622     lwip_encoder.exp
 0002:0001c641       $N00162                    0000000180067641     lwip_encoder.exp
 0002:0001c664       $N00163                    0000000180067664     lwip_encoder.exp
 0002:0001c684       $N00164                    0000000180067684     lwip_encoder.exp
 0002:0001c6a6       $N00165                    00000001800676a6     lwip_encoder.exp
 0002:0001c6cb       $N00166                    00000001800676cb     lwip_encoder.exp
 0002:0001c6ea       $N00167                    00000001800676ea     lwip_encoder.exp
 0002:0001c701       $N00168                    0000000180067701     lwip_encoder.exp
 0002:0001c715       $N00169                    0000000180067715     lwip_encoder.exp
 0002:0001c731       $N00170                    0000000180067731     lwip_encoder.exp
 0002:0001c742       $N00171                    0000000180067742     lwip_encoder.exp
 0002:0001c75a       $N00172                    000000018006775a     lwip_encoder.exp
 0002:0001c77a       $N00173                    000000018006777a     lwip_encoder.exp
 0002:0001c786       $N00174                    0000000180067786     lwip_encoder.exp
 0002:0001c796       $N00175                    0000000180067796     lwip_encoder.exp
 0002:0001c7ab       $N00176                    00000001800677ab     lwip_encoder.exp
 0002:0001c7bf       $N00177                    00000001800677bf     lwip_encoder.exp
 0002:0001c7d5       $N00178                    00000001800677d5     lwip_encoder.exp
 0002:0001c7e3       $N00179                    00000001800677e3     lwip_encoder.exp
 0002:0001c7f3       $N00180                    00000001800677f3     lwip_encoder.exp
 0002:0001c803       $N00181                    0000000180067803     lwip_encoder.exp
 0002:0001c812       $N00182                    0000000180067812     lwip_encoder.exp
 0002:0001c82d       $N00183                    000000018006782d     lwip_encoder.exp
 0002:0001c83b       $N00184                    000000018006783b     lwip_encoder.exp
 0002:0001c849       $N00185                    0000000180067849     lwip_encoder.exp
 0002:0001c858       $N00186                    0000000180067858     lwip_encoder.exp
 0002:0001cbbc       .idata$6                   0000000180067bbc     kernel32:KERNEL32.dll
 0002:0001cbe4       .idata$6                   0000000180067be4     shell32:SHELL32.dll
 0003:000003c0       _assertstring              00000001800693c0     LIBCMT:wassert.obj
 0003:00000410       dotdotdot                  0000000180069410     LIBCMT:wassert.obj
 0003:00000418       newline                    0000000180069418     LIBCMT:wassert.obj
 0003:00000420       dblnewline                 0000000180069420     LIBCMT:wassert.obj
 0003:00000440       errtable                   0000000180069440     LIBCMT:dosmap.obj
 0003:000005a8       ErrnoNoMem                 00000001800695a8     LIBCMT:dosmap.obj
 0003:000005ac       DoserrorNoMem              00000001800695ac     LIBCMT:dosmap.obj
 0003:000005d0       ?dazSupported@?1??_ctrlfp@@9@9 00000001800695d0     LIBCMT:fpctrl.obj
 0003:000005f0       _locktable                 00000001800695f0     LIBCMT:mlock.obj
 0003:00000890       ?isPackaged@?1??__crtIsPackagedApp@@9@9 0000000180069890     LIBCMT:winapisupp.obj
 0003:00000d28       __rgctypeflag              0000000180069d28     LIBCMT:mbctype.obj
 0003:00000d30       __rgcode_page_info         0000000180069d30     LIBCMT:mbctype.obj
 0003:00000e30       ?_names@?1??_get_fname@@9@9 0000000180069e30     LIBCMT:fpexcept.obj
 0003:000015d0       _ctype_loc_style           000000018006a5d0     LIBCMT:wsetloca.obj
 0003:000015f0       DoubleFormat               000000018006a5f0     LIBCMT:intrncvt.obj
 0003:00001608       FloatFormat                000000018006a608     LIBCMT:intrncvt.obj
 0003:000019c0       _module                    000000018006a9c0     * CIL library *:* CIL module *
 0003:00001a00       static_bl_desc             000000018006aa00     * CIL library *:* CIL module *
 0003:00001a20       static_d_desc              000000018006aa20     * CIL library *:* CIL module *
 0003:00001a40       static_l_desc              000000018006aa40     * CIL library *:* CIL module *
 0003:00001d68       allocator_arg              000000018006ad68     libcpmt:syserror.obj
 0003:00001d69       piecewise_construct        000000018006ad69     libcpmt:syserror.obj
 0003:00001d6a       _Tuple_alloc               000000018006ad6a     libcpmt:xthrow.obj
 0003:00001d6b       ignore                     000000018006ad6b     libcpmt:xthrow.obj
 0003:00001d6c       allocator_arg              000000018006ad6c     libcpmt:xthrow.obj
 0003:00001d6d       piecewise_construct        000000018006ad6d     libcpmt:xthrow.obj
 0003:00001dd0       GS_ExceptionRecord         000000018006add0     LIBCMT:gs_report.obj
 0003:00001e70       GS_ContextRecord           000000018006ae70     LIBCMT:gs_report.obj
 0003:00002340       DebuggerWasPresent         000000018006b340     LIBCMT:gs_report.obj
 0003:00002348       __proc_attached            000000018006b348     LIBCMT:dllcrt0.obj
 0003:00002380       ?outmsg@?8??_NMSG_WRITE@@9@9 000000018006b380     LIBCMT:crt0msg.obj
 0003:000029e0       lclcritsects               000000018006b9e0     LIBCMT:mlock.obj
 0003:00002c18       ctrlc_action               000000018006bc18     LIBCMT:winsig.obj
 0003:00002c20       ctrlbreak_action           000000018006bc20     LIBCMT:winsig.obj
 0003:00002c28       abort_action               000000018006bc28     LIBCMT:winsig.obj
 0003:00002c30       term_action                000000018006bc30     LIBCMT:winsig.obj
 0003:00002c38       ConsoleCtrlHandler_Installed 000000018006bc38     LIBCMT:winsig.obj
 0003:00002c40       ?pfnMessageBox@?1??__crtMessageBoxW@@9@9 000000018006bc40     LIBCMT:crtmboxw.obj
 0003:00002c48       ?pfnGetActiveWindow@?1??__crtMessageBoxW@@9@9 000000018006bc48     LIBCMT:crtmboxw.obj
 0003:00002c50       ?pfnGetLastActivePopup@?1??__crtMessageBoxW@@9@9 000000018006bc50     LIBCMT:crtmboxw.obj
 0003:00002c58       ?pfnGetProcessWindowStation@?1??__crtMessageBoxW@@9@9 000000018006bc58     LIBCMT:crtmboxw.obj
 0003:00002c60       ?pfnGetUserObjectInformation@?1??__crtMessageBoxW@@9@9 000000018006bc60     LIBCMT:crtmboxw.obj
 0003:00002e80       __type_info_root_node      000000018006be80     LIBCMT:typname.obj
 0003:00002e90       g_pfnRtlGenRandom          000000018006be90     LIBCMT:rand_s.obj
 0003:00002eb8       fSystemSet                 000000018006beb8     LIBCMT:mbctype.obj
 0003:00002ed0       ?_pgmname@?1??_setargv@@9@9 000000018006bed0     LIBCMT:stdargv.obj
 0003:00002fe0       __crtCallProc              000000018006bfe0     LIBCMT:winapinls.obj
 0003:00002fe8       __enable_percent_n         000000018006bfe8     LIBCMT:printf.obj
 0003:00003040       heap                       000000018006c040     LIBCMT:undname.obj
 0003:000032b0       allocator_arg              000000018006c2b0     * CIL library *:* CIL module *
 0003:000032b1       piecewise_construct        000000018006c2b1     * CIL library *:* CIL module *
 0003:000032b2       allocator_arg              000000018006c2b2     * CIL library *:* CIL module *
 0003:000032b3       piecewise_construct        000000018006c2b3     * CIL library *:* CIL module *
 0003:000032b4       allocator_arg              000000018006c2b4     * CIL library *:* CIL module *
 0003:000032b5       piecewise_construct        000000018006c2b5     * CIL library *:* CIL module *
 0003:000032b6       allocator_arg              000000018006c2b6     * CIL library *:* CIL module *
 0003:000032b7       piecewise_construct        000000018006c2b7     * CIL library *:* CIL module *
 0003:000032b8       SortRGBAxis                000000018006c2b8     * CIL library *:* CIL module *
 0004:00000000       $pdata$?FunctionCallbackWrapper@imp@Nan@@YAXAEBV?$FunctionCallbackInfo@VValue@v8@@@v8@@@Z 000000018006e000     * CIL library *:* CIL module *
 0004:0000000c       $pdata$?New@?$Factory@VFunctionTemplate@v8@@@imp@Nan@@SA?AV?$Local@VFunctionTemplate@v8@@@v8@@P6AXAEBV?$FunctionCallbackInfo@VValue@v8@@@3@@ZV?$Local@VValue@v8@@@5@V?$Local@VSignature@v8@@@5@@Z 000000018006e00c     * CIL library *:* CIL module *
 0004:00000018       $pdata$??0Callback@Nan@@QEAA@AEBV?$Local@VFunction@v8@@@v8@@@Z 000000018006e018     * CIL library *:* CIL module *
 0004:00000024       $pdata$?SetFunction@Callback@Nan@@QEAAXAEBV?$Local@VFunction@v8@@@v8@@@Z 000000018006e024     * CIL library *:* CIL module *
 0004:00000030       $pdata$?AsyncExecuteComplete@Nan@@YAXPEAUuv_work_s@@@Z 000000018006e030     * CIL library *:* CIL module *
 0004:0000003c       $pdata$?Export@Nan@@YAXV?$Local@VObject@v8@@@v8@@PEBDP6AXAEBV?$FunctionCallbackInfo@VValue@v8@@@1@@Z@Z 000000018006e03c     * CIL library *:* CIL module *
 0004:00000048       $pdata$?encodeToJpegBuffer@@YAXAEBV?$FunctionCallbackInfo@VValue@v8@@@Nan@@@Z 000000018006e048     * CIL library *:* CIL module *
 0004:00000054       $pdata$?encodeToPngBuffer@@YAXAEBV?$FunctionCallbackInfo@VValue@v8@@@Nan@@@Z 000000018006e054     * CIL library *:* CIL module *
 0004:00000060       $pdata$?encodeToGifBuffer@@YAXAEBV?$FunctionCallbackInfo@VValue@v8@@@Nan@@@Z 000000018006e060     * CIL library *:* CIL module *
 0004:0000006c       $pdata$?InitAll@@YAXV?$Local@VObject@v8@@@v8@@@Z 000000018006e06c     * CIL library *:* CIL module *
 0004:00000078       $pdata$??_Gexception@stdext@@UEAAPEAXI@Z 000000018006e078     * CIL library *:* CIL module *
 0004:00000084       $pdata$?Call_@Callback@Nan@@AEBA?AV?$Local@VValue@v8@@@v8@@PEAVIsolate@4@V?$Local@VObject@v8@@@4@HQEAV34@@Z 000000018006e084     * CIL library *:* CIL module *
 0004:00000090       $pdata$??0AsyncWorker@Nan@@QEAA@PEAVCallback@1@@Z 000000018006e090     * CIL library *:* CIL module *
 0004:0000009c       $pdata$??1AsyncWorker@Nan@@UEAA@XZ 000000018006e09c     * CIL library *:* CIL module *
 0004:000000a8       $pdata$?WorkComplete@AsyncWorker@Nan@@UEAAXXZ 000000018006e0a8     * CIL library *:* CIL module *
 0004:000000b4       $pdata$?SaveToPersistent@AsyncWorker@Nan@@QEAAXPEBDAEBV?$Local@VValue@v8@@@v8@@@Z 000000018006e0b4     * CIL library *:* CIL module *
 0004:000000c0       $pdata$?HandleOKCallback@AsyncWorker@Nan@@MEAAXXZ 000000018006e0c0     * CIL library *:* CIL module *
 0004:000000cc       $pdata$?HandleErrorCallback@AsyncWorker@Nan@@MEAAXXZ 000000018006e0cc     * CIL library *:* CIL module *
 0004:000000d8       $pdata$?SetErrorMessage@AsyncWorker@Nan@@IEAAXPEBD@Z 000000018006e0d8     * CIL library *:* CIL module *
 0004:000000e4       $pdata$??_GAsyncWorker@Nan@@UEAAPEAXI@Z 000000018006e0e4     * CIL library *:* CIL module *
 0004:000000f0       $pdata$?_snprintf@cimg@cimg_library@@YAHQEAD_KQEBDZZ 000000018006e0f0     * CIL library *:* CIL module *
 0004:000000fc       $pdata$?_vsnprintf@cimg@cimg_library@@YAHQEAD_KQEBDPEAD@Z 000000018006e0fc     * CIL library *:* CIL module *
 0004:00000108       $pdata$??0CImgException@cimg_library@@QEAA@AEBU01@@Z 000000018006e108     * CIL library *:* CIL module *
 0004:00000114       $pdata$??1CImgIOException@cimg_library@@UEAA@XZ 000000018006e114     * CIL library *:* CIL module *
 0004:00000114       $pdata$??1CImgInstanceException@cimg_library@@UEAA@XZ 000000018006e114     * CIL library *:* CIL module *
 0004:00000114       $pdata$??1CImgException@cimg_library@@UEAA@XZ 000000018006e114     * CIL library *:* CIL module *
 0004:00000114       $pdata$??1CImgArgumentException@cimg_library@@UEAA@XZ 000000018006e114     * CIL library *:* CIL module *
 0004:00000120       $pdata$??_GCImgIOException@cimg_library@@UEAAPEAXI@Z 000000018006e120     * CIL library *:* CIL module *
 0004:00000120       $pdata$??_GCImgInstanceException@cimg_library@@UEAAPEAXI@Z 000000018006e120     * CIL library *:* CIL module *
 0004:00000120       $pdata$??_GCImgException@cimg_library@@UEAAPEAXI@Z 000000018006e120     * CIL library *:* CIL module *
 0004:00000120       $pdata$??_GCImgArgumentException@cimg_library@@UEAAPEAXI@Z 000000018006e120     * CIL library *:* CIL module *
 0004:0000012c       $pdata$??0CImgArgumentException@cimg_library@@QEAA@QEBDZZ 000000018006e12c     * CIL library *:* CIL module *
 0004:00000138       $pdata$??0CImgInstanceException@cimg_library@@QEAA@QEBDZZ 000000018006e138     * CIL library *:* CIL module *
 0004:00000144       $pdata$??0CImgIOException@cimg_library@@QEAA@QEBDZZ 000000018006e144     * CIL library *:* CIL module *
 0004:00000150       $pdata$?Mutex_attr@cimg@cimg_library@@YAAEAUMutex_info@12@XZ 000000018006e150     * CIL library *:* CIL module *
 0004:0000015c       $pdata$1$?Mutex_attr@cimg@cimg_library@@YAAEAUMutex_info@12@XZ 000000018006e15c     * CIL library *:* CIL module *
 0004:00000168       $pdata$2$?Mutex_attr@cimg@cimg_library@@YAAEAUMutex_info@12@XZ 000000018006e168     * CIL library *:* CIL module *
 0004:00000174       $pdata$?warn@cimg@cimg_library@@YAXQEBDZZ 000000018006e174     * CIL library *:* CIL module *
 0004:00000180       $pdata$0$?warn@cimg@cimg_library@@YAXQEBDZZ 000000018006e180     * CIL library *:* CIL module *
 0004:0000018c       $pdata$1$?warn@cimg@cimg_library@@YAXQEBDZZ 000000018006e18c     * CIL library *:* CIL module *
 0004:00000198       $pdata$?filenamerand@cimg@cimg_library@@YAPEBDXZ 000000018006e198     * CIL library *:* CIL module *
 0004:000001a4       $pdata$?winformat_string@cimg@cimg_library@@YAXQEAD@Z 000000018006e1a4     * CIL library *:* CIL module *
 0004:000001b0       $pdata$0$?winformat_string@cimg@cimg_library@@YAXQEAD@Z 000000018006e1b0     * CIL library *:* CIL module *
 0004:000001bc       $pdata$1$?winformat_string@cimg@cimg_library@@YAXQEAD@Z 000000018006e1bc     * CIL library *:* CIL module *
 0004:000001c8       $pdata$??0CImgArgumentException@cimg_library@@QEAA@AEBU01@@Z 000000018006e1c8     * CIL library *:* CIL module *
 0004:000001c8       $pdata$??0CImgInstanceException@cimg_library@@QEAA@AEBU01@@Z 000000018006e1c8     * CIL library *:* CIL module *
 0004:000001c8       $pdata$??0CImgIOException@cimg_library@@QEAA@AEBU01@@Z 000000018006e1c8     * CIL library *:* CIL module *
 0004:000001d4       $pdata$?fclose@cimg@cimg_library@@YAHPEAU_iobuf@@@Z 000000018006e1d4     * CIL library *:* CIL module *
 0004:000001e0       $pdata$?info@cimg@cimg_library@@YAXXZ 000000018006e1e0     * CIL library *:* CIL module *
 0004:000001ec       $pdata$?temporary_path@cimg@cimg_library@@YAPEBDQEBD_N@Z 000000018006e1ec     * CIL library *:* CIL module *
 0004:000001f8       $pdata$?programfiles_path@cimg@cimg_library@@YAPEBDQEBD_N@Z 000000018006e1f8     * CIL library *:* CIL module *
 0004:00000204       $pdata$?imagemagick_path@cimg@cimg_library@@YAPEBDQEBD_N@Z 000000018006e204     * CIL library *:* CIL module *
 0004:00000210       $pdata$4$?imagemagick_path@cimg@cimg_library@@YAPEBDQEBD_N@Z 000000018006e210     * CIL library *:* CIL module *
 0004:0000021c       $pdata$5$?imagemagick_path@cimg@cimg_library@@YAPEBDQEBD_N@Z 000000018006e21c     * CIL library *:* CIL module *
 0004:00000228       $pdata$6$?imagemagick_path@cimg@cimg_library@@YAPEBDQEBD_N@Z 000000018006e228     * CIL library *:* CIL module *
 0004:00000234       $pdata$7$?imagemagick_path@cimg@cimg_library@@YAPEBDQEBD_N@Z 000000018006e234     * CIL library *:* CIL module *
 0004:00000240       $pdata$8$?imagemagick_path@cimg@cimg_library@@YAPEBDQEBD_N@Z 000000018006e240     * CIL library *:* CIL module *
 0004:0000024c       $pdata$?graphicsmagick_path@cimg@cimg_library@@YAPEBDQEBD_N@Z 000000018006e24c     * CIL library *:* CIL module *
 0004:00000258       $pdata$4$?graphicsmagick_path@cimg@cimg_library@@YAPEBDQEBD_N@Z 000000018006e258     * CIL library *:* CIL module *
 0004:00000264       $pdata$5$?graphicsmagick_path@cimg@cimg_library@@YAPEBDQEBD_N@Z 000000018006e264     * CIL library *:* CIL module *
 0004:00000270       $pdata$6$?graphicsmagick_path@cimg@cimg_library@@YAPEBDQEBD_N@Z 000000018006e270     * CIL library *:* CIL module *
 0004:0000027c       $pdata$7$?graphicsmagick_path@cimg@cimg_library@@YAPEBDQEBD_N@Z 000000018006e27c     * CIL library *:* CIL module *
 0004:00000288       $pdata$8$?graphicsmagick_path@cimg@cimg_library@@YAPEBDQEBD_N@Z 000000018006e288     * CIL library *:* CIL module *
 0004:00000294       $pdata$?medcon_path@cimg@cimg_library@@YAPEBDQEBD_N@Z 000000018006e294     * CIL library *:* CIL module *
 0004:000002a0       $pdata$0$?medcon_path@cimg@cimg_library@@YAPEBDQEBD_N@Z 000000018006e2a0     * CIL library *:* CIL module *
 0004:000002ac       $pdata$1$?medcon_path@cimg@cimg_library@@YAPEBDQEBD_N@Z 000000018006e2ac     * CIL library *:* CIL module *
 0004:000002b8       $pdata$?strbuffersize@cimg@cimg_library@@YAPEBDK@Z 000000018006e2b8     * CIL library *:* CIL module *
 0004:000002c4       $pdata$?lwip_jpeg_error_exit@@YAXPEAUjpeg_common_struct@@@Z 000000018006e2c4     * CIL library *:* CIL module *
 0004:000002d0       $pdata$??_GEncodeToJpegBufferWorker@@UEAAPEAXI@Z 000000018006e2d0     * CIL library *:* CIL module *
 0004:000002dc       $pdata$?Execute@EncodeToJpegBufferWorker@@UEAAXXZ 000000018006e2dc     * CIL library *:* CIL module *
 0004:000002e8       $pdata$?HandleOKCallback@EncodeToJpegBufferWorker@@UEAAXXZ 000000018006e2e8     * CIL library *:* CIL module *
 0004:000002f4       $pdata$??0?$CImg@D@cimg_library@@QEAA@IIII@Z 000000018006e2f4     * CIL library *:* CIL module *
 0004:00000300       $pdata$?assign@?$CImg@D@cimg_library@@QEAAAEAU12@IIII@Z 000000018006e300     * CIL library *:* CIL module *
 0004:0000030c       $pdata$??_GEncodeToPngBufferWorker@@UEAAPEAXI@Z 000000018006e30c     * CIL library *:* CIL module *
 0004:00000318       $pdata$?Execute@EncodeToPngBufferWorker@@UEAAXXZ 000000018006e318     * CIL library *:* CIL module *
 0004:00000324       $pdata$?HandleOKCallback@EncodeToGifBufferWorker@@UEAAXXZ 000000018006e324     * CIL library *:* CIL module *
 0004:00000324       $pdata$?HandleOKCallback@EncodeToPngBufferWorker@@UEAAXXZ 000000018006e324     * CIL library *:* CIL module *
 0004:00000330       $pdata$?pngWriteCB@@YAXPEAUpng_struct_def@@PEAE_K@Z 000000018006e330     * CIL library *:* CIL module *
 0004:0000033c       $pdata$??0EncodeToGifBufferWorker@@QEAA@AEAV?$Local@VObject@v8@@@v8@@_K1HH_N2HPEAVCallback@Nan@@@Z 000000018006e33c     * CIL library *:* CIL module *
 0004:00000348       $pdata$??_GEncodeToGifBufferWorker@@UEAAPEAXI@Z 000000018006e348     * CIL library *:* CIL module *
 0004:00000354       $pdata$?Execute@EncodeToGifBufferWorker@@UEAAXXZ 000000018006e354     * CIL library *:* CIL module *
 0004:00000360       $pdata$0$?Execute@EncodeToGifBufferWorker@@UEAAXXZ 000000018006e360     * CIL library *:* CIL module *
 0004:0000036c       $pdata$1$?Execute@EncodeToGifBufferWorker@@UEAAXXZ 000000018006e36c     * CIL library *:* CIL module *
 0004:00000378       $pdata$2$?Execute@EncodeToGifBufferWorker@@UEAAXXZ 000000018006e378     * CIL library *:* CIL module *
 0004:00000384       $pdata$3$?Execute@EncodeToGifBufferWorker@@UEAAXXZ 000000018006e384     * CIL library *:* CIL module *
 0004:00000390       $pdata$?gifWriteCB@@YAHPEAUGifFileType@@PEBEH@Z 000000018006e390     * CIL library *:* CIL module *
 0004:0000039c       $pdata$empty_mem_output_buffer 000000018006e39c     * CIL library *:* CIL module *
 0004:000003a8       $pdata$jpeg_mem_dest       000000018006e3a8     * CIL library *:* CIL module *
 0004:000003b4       $pdata$output_message      000000018006e3b4     * CIL library *:* CIL module *
 0004:000003c0       $pdata$emit_message        000000018006e3c0     * CIL library *:* CIL module *
 0004:000003cc       $pdata$format_message      000000018006e3cc     * CIL library *:* CIL module *
 0004:000003d8       $pdata$jpeg_fdct_float     000000018006e3d8     * CIL library *:* CIL module *
 0004:000003e4       $pdata$jpeg_fdct_ifast     000000018006e3e4     * CIL library *:* CIL module *
 0004:000003f0       $pdata$jpeg_fdct_islow     000000018006e3f0     * CIL library *:* CIL module *
 0004:000003fc       $pdata$jpeg_fdct_7x7       000000018006e3fc     * CIL library *:* CIL module *
 0004:00000408       $pdata$jpeg_fdct_6x6       000000018006e408     * CIL library *:* CIL module *
 0004:00000414       $pdata$jpeg_fdct_5x5       000000018006e414     * CIL library *:* CIL module *
 0004:00000420       $pdata$jpeg_fdct_4x4       000000018006e420     * CIL library *:* CIL module *
 0004:0000042c       $pdata$jpeg_fdct_3x3       000000018006e42c     * CIL library *:* CIL module *
 0004:00000438       $pdata$jpeg_fdct_2x2       000000018006e438     * CIL library *:* CIL module *
 0004:00000444       $pdata$jpeg_fdct_1x1       000000018006e444     * CIL library *:* CIL module *
 0004:00000450       $pdata$jpeg_fdct_9x9       000000018006e450     * CIL library *:* CIL module *
 0004:0000045c       $pdata$jpeg_fdct_10x10     000000018006e45c     * CIL library *:* CIL module *
 0004:00000468       $pdata$jpeg_fdct_11x11     000000018006e468     * CIL library *:* CIL module *
 0004:00000474       $pdata$jpeg_fdct_12x12     000000018006e474     * CIL library *:* CIL module *
 0004:00000480       $pdata$jpeg_fdct_13x13     000000018006e480     * CIL library *:* CIL module *
 0004:0000048c       $pdata$jpeg_fdct_14x14     000000018006e48c     * CIL library *:* CIL module *
 0004:00000498       $pdata$jpeg_fdct_15x15     000000018006e498     * CIL library *:* CIL module *
 0004:000004a4       $pdata$jpeg_fdct_16x16     000000018006e4a4     * CIL library *:* CIL module *
 0004:000004b0       $pdata$jpeg_fdct_16x8      000000018006e4b0     * CIL library *:* CIL module *
 0004:000004bc       $pdata$jpeg_fdct_14x7      000000018006e4bc     * CIL library *:* CIL module *
 0004:000004c8       $pdata$jpeg_fdct_12x6      000000018006e4c8     * CIL library *:* CIL module *
 0004:000004d4       $pdata$jpeg_fdct_10x5      000000018006e4d4     * CIL library *:* CIL module *
 0004:000004e0       $pdata$jpeg_fdct_8x4       000000018006e4e0     * CIL library *:* CIL module *
 0004:000004ec       $pdata$jpeg_fdct_6x3       000000018006e4ec     * CIL library *:* CIL module *
 0004:000004f8       $pdata$jpeg_fdct_4x2       000000018006e4f8     * CIL library *:* CIL module *
 0004:00000504       $pdata$jpeg_fdct_2x1       000000018006e504     * CIL library *:* CIL module *
 0004:00000510       $pdata$jpeg_fdct_8x16      000000018006e510     * CIL library *:* CIL module *
 0004:0000051c       $pdata$jpeg_fdct_7x14      000000018006e51c     * CIL library *:* CIL module *
 0004:00000528       $pdata$jpeg_fdct_6x12      000000018006e528     * CIL library *:* CIL module *
 0004:00000534       $pdata$jpeg_fdct_5x10      000000018006e534     * CIL library *:* CIL module *
 0004:00000540       $pdata$jpeg_fdct_4x8       000000018006e540     * CIL library *:* CIL module *
 0004:0000054c       $pdata$jpeg_fdct_3x6       000000018006e54c     * CIL library *:* CIL module *
 0004:00000558       $pdata$jpeg_fdct_2x4       000000018006e558     * CIL library *:* CIL module *
 0004:00000564       $pdata$jpeg_fdct_1x2       000000018006e564     * CIL library *:* CIL module *
 0004:00000570       $pdata$alloc_small         000000018006e570     * CIL library *:* CIL module *
 0004:0000057c       $pdata$0$alloc_small       000000018006e57c     * CIL library *:* CIL module *
 0004:00000588       $pdata$1$alloc_small       000000018006e588     * CIL library *:* CIL module *
 0004:00000594       $pdata$alloc_large         000000018006e594     * CIL library *:* CIL module *
 0004:000005a0       $pdata$alloc_sarray        000000018006e5a0     * CIL library *:* CIL module *
 0004:000005ac       $pdata$alloc_barray        000000018006e5ac     * CIL library *:* CIL module *
 0004:000005b8       $pdata$request_virt_sarray 000000018006e5b8     * CIL library *:* CIL module *
 0004:000005c4       $pdata$request_virt_barray 000000018006e5c4     * CIL library *:* CIL module *
 0004:000005d0       $pdata$realize_virt_arrays 000000018006e5d0     * CIL library *:* CIL module *
 0004:000005dc       $pdata$access_virt_sarray  000000018006e5dc     * CIL library *:* CIL module *
 0004:000005e8       $pdata$2$access_virt_sarray 000000018006e5e8     * CIL library *:* CIL module *
 0004:000005f4       $pdata$3$access_virt_sarray 000000018006e5f4     * CIL library *:* CIL module *
 0004:00000600       $pdata$access_virt_barray  000000018006e600     * CIL library *:* CIL module *
 0004:0000060c       $pdata$2$access_virt_barray 000000018006e60c     * CIL library *:* CIL module *
 0004:00000618       $pdata$3$access_virt_barray 000000018006e618     * CIL library *:* CIL module *
 0004:00000624       $pdata$free_pool           000000018006e624     * CIL library *:* CIL module *
 0004:00000630       $pdata$2$free_pool         000000018006e630     * CIL library *:* CIL module *
 0004:0000063c       $pdata$3$free_pool         000000018006e63c     * CIL library *:* CIL module *
 0004:00000648       $pdata$self_destruct       000000018006e648     * CIL library *:* CIL module *
 0004:00000654       $pdata$jinit_memory_mgr    000000018006e654     * CIL library *:* CIL module *
 0004:00000660       $pdata$jpeg_CreateCompress 000000018006e660     * CIL library *:* CIL module *
 0004:0000066c       $pdata$jpeg_finish_compress 000000018006e66c     * CIL library *:* CIL module *
 0004:00000678       $pdata$0$jpeg_finish_compress 000000018006e678     * CIL library *:* CIL module *
 0004:00000684       $pdata$1$jpeg_finish_compress 000000018006e684     * CIL library *:* CIL module *
 0004:00000690       $pdata$start_pass_coef     000000018006e690     * CIL library *:* CIL module *
 0004:0000069c       $pdata$compress_data       000000018006e69c     * CIL library *:* CIL module *
 0004:000006a8       $pdata$compress_first_pass 000000018006e6a8     * CIL library *:* CIL module *
 0004:000006b4       $pdata$5$compress_first_pass 000000018006e6b4     * CIL library *:* CIL module *
 0004:000006c0       $pdata$6$compress_first_pass 000000018006e6c0     * CIL library *:* CIL module *
 0004:000006cc       $pdata$compress_output     000000018006e6cc     * CIL library *:* CIL module *
 0004:000006d8       $pdata$jinit_c_coef_controller 000000018006e6d8     * CIL library *:* CIL module *
 0004:000006e4       $pdata$rgb_ycc_start       000000018006e6e4     * CIL library *:* CIL module *
 0004:000006f0       $pdata$7$rgb_ycc_start     000000018006e6f0     * CIL library *:* CIL module *
 0004:000006fc       $pdata$9$rgb_ycc_start     000000018006e6fc     * CIL library *:* CIL module *
 0004:00000708       $pdata$rgb_ycc_convert     000000018006e708     * CIL library *:* CIL module *
 0004:00000714       $pdata$3$rgb_ycc_convert   000000018006e714     * CIL library *:* CIL module *
 0004:00000720       $pdata$4$rgb_ycc_convert   000000018006e720     * CIL library *:* CIL module *
 0004:0000072c       $pdata$rgb_gray_convert    000000018006e72c     * CIL library *:* CIL module *
 0004:00000738       $pdata$cmyk_ycck_convert   000000018006e738     * CIL library *:* CIL module *
 0004:00000744       $pdata$4$cmyk_ycck_convert 000000018006e744     * CIL library *:* CIL module *
 0004:00000750       $pdata$5$cmyk_ycck_convert 000000018006e750     * CIL library *:* CIL module *
 0004:0000075c       $pdata$rgb_rgb1_convert    000000018006e75c     * CIL library *:* CIL module *
 0004:00000768       $pdata$0$rgb_rgb1_convert  000000018006e768     * CIL library *:* CIL module *
 0004:00000774       $pdata$1$rgb_rgb1_convert  000000018006e774     * CIL library *:* CIL module *
 0004:00000780       $pdata$grayscale_convert   000000018006e780     * CIL library *:* CIL module *
 0004:0000078c       $pdata$rgb_convert         000000018006e78c     * CIL library *:* CIL module *
 0004:00000798       $pdata$0$rgb_convert       000000018006e798     * CIL library *:* CIL module *
 0004:000007a4       $pdata$1$rgb_convert       000000018006e7a4     * CIL library *:* CIL module *
 0004:000007b0       $pdata$null_convert        000000018006e7b0     * CIL library *:* CIL module *
 0004:000007bc       $pdata$1$null_convert      000000018006e7bc     * CIL library *:* CIL module *
 0004:000007c8       $pdata$2$null_convert      000000018006e7c8     * CIL library *:* CIL module *
 0004:000007d4       $pdata$jinit_color_converter 000000018006e7d4     * CIL library *:* CIL module *
 0004:000007e0       $pdata$forward_DCT         000000018006e7e0     * CIL library *:* CIL module *
 0004:000007ec       $pdata$1$forward_DCT       000000018006e7ec     * CIL library *:* CIL module *
 0004:000007f8       $pdata$2$forward_DCT       000000018006e7f8     * CIL library *:* CIL module *
 0004:00000804       $pdata$forward_DCT_float   000000018006e804     * CIL library *:* CIL module *
 0004:00000810       $pdata$3$forward_DCT_float 000000018006e810     * CIL library *:* CIL module *
 0004:0000081c       $pdata$4$forward_DCT_float 000000018006e81c     * CIL library *:* CIL module *
 0004:00000828       $pdata$start_pass_fdctmgr  000000018006e828     * CIL library *:* CIL module *
 0004:00000834       $pdata$11$start_pass_fdctmgr 000000018006e834     * CIL library *:* CIL module *
 0004:00000840       $pdata$12$start_pass_fdctmgr 000000018006e840     * CIL library *:* CIL module *
 0004:0000084c       $pdata$jinit_forward_dct   000000018006e84c     * CIL library *:* CIL module *
 0004:00000858       $pdata$jpeg_make_c_derived_tbl 000000018006e858     * CIL library *:* CIL module *
 0004:00000864       $pdata$dump_buffer_e       000000018006e864     * CIL library *:* CIL module *
 0004:00000870       $pdata$emit_bits_s         000000018006e870     * CIL library *:* CIL module *
 0004:0000087c       $pdata$emit_bits_e         000000018006e87c     * CIL library *:* CIL module *
 0004:00000888       $pdata$0$emit_bits_e       000000018006e888     * CIL library *:* CIL module *
 0004:00000894       $pdata$2$emit_bits_e       000000018006e894     * CIL library *:* CIL module *
 0004:000008a0       $pdata$3$emit_bits_e       000000018006e8a0     * CIL library *:* CIL module *
 0004:000008ac       $pdata$4$emit_bits_e       000000018006e8ac     * CIL library *:* CIL module *
 0004:000008b8       $pdata$emit_buffered_bits  000000018006e8b8     * CIL library *:* CIL module *
 0004:000008c4       $pdata$4$emit_buffered_bits 000000018006e8c4     * CIL library *:* CIL module *
 0004:000008d0       $pdata$5$emit_buffered_bits 000000018006e8d0     * CIL library *:* CIL module *
 0004:000008dc       $pdata$emit_eobrun         000000018006e8dc     * CIL library *:* CIL module *
 0004:000008e8       $pdata$0$emit_eobrun       000000018006e8e8     * CIL library *:* CIL module *
 0004:000008f4       $pdata$1$emit_eobrun       000000018006e8f4     * CIL library *:* CIL module *
 0004:00000900       $pdata$emit_restart_s      000000018006e900     * CIL library *:* CIL module *
 0004:0000090c       $pdata$1$emit_restart_s    000000018006e90c     * CIL library *:* CIL module *
 0004:00000918       $pdata$3$emit_restart_s    000000018006e918     * CIL library *:* CIL module *
 0004:00000924       $pdata$4$emit_restart_s    000000018006e924     * CIL library *:* CIL module *
 0004:00000930       $pdata$emit_restart_e      000000018006e930     * CIL library *:* CIL module *
 0004:0000093c       $pdata$encode_mcu_DC_first 000000018006e93c     * CIL library *:* CIL module *
 0004:00000948       $pdata$2$encode_mcu_DC_first 000000018006e948     * CIL library *:* CIL module *
 0004:00000954       $pdata$6$encode_mcu_DC_first 000000018006e954     * CIL library *:* CIL module *
 0004:00000960       $pdata$7$encode_mcu_DC_first 000000018006e960     * CIL library *:* CIL module *
 0004:0000096c       $pdata$8$encode_mcu_DC_first 000000018006e96c     * CIL library *:* CIL module *
 0004:00000978       $pdata$encode_mcu_AC_first 000000018006e978     * CIL library *:* CIL module *
 0004:00000984       $pdata$4$encode_mcu_AC_first 000000018006e984     * CIL library *:* CIL module *
 0004:00000990       $pdata$6$encode_mcu_AC_first 000000018006e990     * CIL library *:* CIL module *
 0004:0000099c       $pdata$7$encode_mcu_AC_first 000000018006e99c     * CIL library *:* CIL module *
 0004:000009a8       $pdata$8$encode_mcu_AC_first 000000018006e9a8     * CIL library *:* CIL module *
 0004:000009b4       $pdata$encode_mcu_DC_refine 000000018006e9b4     * CIL library *:* CIL module *
 0004:000009c0       $pdata$encode_mcu_AC_refine 000000018006e9c0     * CIL library *:* CIL module *
 0004:000009cc       $pdata$encode_one_block    000000018006e9cc     * CIL library *:* CIL module *
 0004:000009d8       $pdata$encode_mcu_huff     000000018006e9d8     * CIL library *:* CIL module *
 0004:000009e4       $pdata$2$encode_mcu_huff   000000018006e9e4     * CIL library *:* CIL module *
 0004:000009f0       $pdata$3$encode_mcu_huff   000000018006e9f0     * CIL library *:* CIL module *
 0004:000009fc       $pdata$4$encode_mcu_huff   000000018006e9fc     * CIL library *:* CIL module *
 0004:00000a08       $pdata$finish_pass_huff    000000018006ea08     * CIL library *:* CIL module *
 0004:00000a14       $pdata$htest_one_block     000000018006ea14     * CIL library *:* CIL module *
 0004:00000a20       $pdata$encode_mcu_gather   000000018006ea20     * CIL library *:* CIL module *
 0004:00000a2c       $pdata$1$encode_mcu_gather 000000018006ea2c     * CIL library *:* CIL module *
 0004:00000a38       $pdata$2$encode_mcu_gather 000000018006ea38     * CIL library *:* CIL module *
 0004:00000a44       $pdata$jpeg_gen_optimal_table 000000018006ea44     * CIL library *:* CIL module *
 0004:00000a50       $pdata$finish_pass_gather  000000018006ea50     * CIL library *:* CIL module *
 0004:00000a5c       $pdata$2$finish_pass_gather 000000018006ea5c     * CIL library *:* CIL module *
 0004:00000a68       $pdata$3$finish_pass_gather 000000018006ea68     * CIL library *:* CIL module *
 0004:00000a74       $pdata$start_pass_huff     000000018006ea74     * CIL library *:* CIL module *
 0004:00000a80       $pdata$2$start_pass_huff   000000018006ea80     * CIL library *:* CIL module *
 0004:00000a8c       $pdata$3$start_pass_huff   000000018006ea8c     * CIL library *:* CIL module *
 0004:00000a98       $pdata$jinit_huff_encoder  000000018006ea98     * CIL library *:* CIL module *
 0004:00000aa4       $pdata$jinit_compress_master 000000018006eaa4     * CIL library *:* CIL module *
 0004:00000ab0       $pdata$process_data_simple_main 000000018006eab0     * CIL library *:* CIL module *
 0004:00000abc       $pdata$1$process_data_simple_main 000000018006eabc     * CIL library *:* CIL module *
 0004:00000ac8       $pdata$2$process_data_simple_main 000000018006eac8     * CIL library *:* CIL module *
 0004:00000ad4       $pdata$jinit_c_main_controller 000000018006ead4     * CIL library *:* CIL module *
 0004:00000ae0       $pdata$1$jinit_c_main_controller 000000018006eae0     * CIL library *:* CIL module *
 0004:00000aec       $pdata$2$jinit_c_main_controller 000000018006eaec     * CIL library *:* CIL module *
 0004:00000af8       $pdata$3$jinit_c_main_controller 000000018006eaf8     * CIL library *:* CIL module *
 0004:00000b04       $pdata$4$jinit_c_main_controller 000000018006eb04     * CIL library *:* CIL module *
 0004:00000b10       $pdata$emit_marker         000000018006eb10     * CIL library *:* CIL module *
 0004:00000b1c       $pdata$emit_2bytes         000000018006eb1c     * CIL library *:* CIL module *
 0004:00000b28       $pdata$emit_dqt            000000018006eb28     * CIL library *:* CIL module *
 0004:00000b34       $pdata$0$emit_dqt          000000018006eb34     * CIL library *:* CIL module *
 0004:00000b40       $pdata$1$emit_dqt          000000018006eb40     * CIL library *:* CIL module *
 0004:00000b4c       $pdata$emit_dht            000000018006eb4c     * CIL library *:* CIL module *
 0004:00000b58       $pdata$0$emit_dht          000000018006eb58     * CIL library *:* CIL module *
 0004:00000b64       $pdata$1$emit_dht          000000018006eb64     * CIL library *:* CIL module *
 0004:00000b70       $pdata$2$emit_dht          000000018006eb70     * CIL library *:* CIL module *
 0004:00000b7c       $pdata$3$emit_dht          000000018006eb7c     * CIL library *:* CIL module *
 0004:00000b88       $pdata$4$emit_dht          000000018006eb88     * CIL library *:* CIL module *
 0004:00000b94       $pdata$5$emit_dht          000000018006eb94     * CIL library *:* CIL module *
 0004:00000ba0       $pdata$emit_dac            000000018006eba0     * CIL library *:* CIL module *
 0004:00000bac       $pdata$0$emit_dac          000000018006ebac     * CIL library *:* CIL module *
 0004:00000bb8       $pdata$1$emit_dac          000000018006ebb8     * CIL library *:* CIL module *
 0004:00000bc4       $pdata$emit_dri            000000018006ebc4     * CIL library *:* CIL module *
 0004:00000bd0       $pdata$emit_lse_ict        000000018006ebd0     * CIL library *:* CIL module *
 0004:00000bdc       $pdata$emit_sof            000000018006ebdc     * CIL library *:* CIL module *
 0004:00000be8       $pdata$emit_sos            000000018006ebe8     * CIL library *:* CIL module *
 0004:00000bf4       $pdata$0$emit_sos          000000018006ebf4     * CIL library *:* CIL module *
 0004:00000c00       $pdata$2$emit_sos          000000018006ec00     * CIL library *:* CIL module *
 0004:00000c0c       $pdata$3$emit_sos          000000018006ec0c     * CIL library *:* CIL module *
 0004:00000c18       $pdata$4$emit_sos          000000018006ec18     * CIL library *:* CIL module *
 0004:00000c24       $pdata$emit_pseudo_sos     000000018006ec24     * CIL library *:* CIL module *
 0004:00000c30       $pdata$emit_jfif_app0      000000018006ec30     * CIL library *:* CIL module *
 0004:00000c3c       $pdata$emit_adobe_app14    000000018006ec3c     * CIL library *:* CIL module *
 0004:00000c48       $pdata$write_marker_header 000000018006ec48     * CIL library *:* CIL module *
 0004:00000c54       $pdata$write_marker_byte   000000018006ec54     * CIL library *:* CIL module *
 0004:00000c60       $pdata$write_file_header   000000018006ec60     * CIL library *:* CIL module *
 0004:00000c6c       $pdata$write_frame_header  000000018006ec6c     * CIL library *:* CIL module *
 0004:00000c78       $pdata$write_scan_header   000000018006ec78     * CIL library *:* CIL module *
 0004:00000c84       $pdata$0$write_scan_header 000000018006ec84     * CIL library *:* CIL module *
 0004:00000c90       $pdata$2$write_scan_header 000000018006ec90     * CIL library *:* CIL module *
 0004:00000c9c       $pdata$3$write_scan_header 000000018006ec9c     * CIL library *:* CIL module *
 0004:00000ca8       $pdata$4$write_scan_header 000000018006eca8     * CIL library *:* CIL module *
 0004:00000cb4       $pdata$write_file_trailer  000000018006ecb4     * CIL library *:* CIL module *
 0004:00000cc0       $pdata$write_tables_only   000000018006ecc0     * CIL library *:* CIL module *
 0004:00000ccc       $pdata$jinit_marker_writer 000000018006eccc     * CIL library *:* CIL module *
 0004:00000cd8       $pdata$jpeg_calc_jpeg_dimensions 000000018006ecd8     * CIL library *:* CIL module *
 0004:00000ce4       $pdata$initial_setup       000000018006ece4     * CIL library *:* CIL module *
 0004:00000cf0       $pdata$0$initial_setup     000000018006ecf0     * CIL library *:* CIL module *
 0004:00000cfc       $pdata$1$initial_setup     000000018006ecfc     * CIL library *:* CIL module *
 0004:00000d08       $pdata$validate_script     000000018006ed08     * CIL library *:* CIL module *
 0004:00000d14       $pdata$1$validate_script   000000018006ed14     * CIL library *:* CIL module *
 0004:00000d20       $pdata$4$validate_script   000000018006ed20     * CIL library *:* CIL module *
 0004:00000d2c       $pdata$5$validate_script   000000018006ed2c     * CIL library *:* CIL module *
 0004:00000d38       $pdata$6$validate_script   000000018006ed38     * CIL library *:* CIL module *
 0004:00000d44       $pdata$7$validate_script   000000018006ed44     * CIL library *:* CIL module *
 0004:00000d50       $pdata$8$validate_script   000000018006ed50     * CIL library *:* CIL module *
 0004:00000d5c       $pdata$reduce_script       000000018006ed5c     * CIL library *:* CIL module *
 0004:00000d68       $pdata$select_scan_parameters 000000018006ed68     * CIL library *:* CIL module *
 0004:00000d74       $pdata$per_scan_setup      000000018006ed74     * CIL library *:* CIL module *
 0004:00000d80       $pdata$0$per_scan_setup    000000018006ed80     * CIL library *:* CIL module *
 0004:00000d8c       $pdata$2$per_scan_setup    000000018006ed8c     * CIL library *:* CIL module *
 0004:00000d98       $pdata$3$per_scan_setup    000000018006ed98     * CIL library *:* CIL module *
 0004:00000da4       $pdata$4$per_scan_setup    000000018006eda4     * CIL library *:* CIL module *
 0004:00000db0       $pdata$prepare_for_pass    000000018006edb0     * CIL library *:* CIL module *
 0004:00000dbc       $pdata$pass_startup        000000018006edbc     * CIL library *:* CIL module *
 0004:00000dc8       $pdata$finish_pass_master  000000018006edc8     * CIL library *:* CIL module *
 0004:00000dd4       $pdata$jinit_c_master_control 000000018006edd4     * CIL library *:* CIL module *
 0004:00000de0       $pdata$jpeg_add_quant_table 000000018006ede0     * CIL library *:* CIL module *
 0004:00000dec       $pdata$std_huff_tables     000000018006edec     * CIL library *:* CIL module *
 0004:00000df8       $pdata$jpeg_set_defaults   000000018006edf8     * CIL library *:* CIL module *
 0004:00000e04       $pdata$jpeg_default_colorspace 000000018006ee04     * CIL library *:* CIL module *
 0004:00000e10       $pdata$jpeg_set_colorspace 000000018006ee10     * CIL library *:* CIL module *
 0004:00000e1c       $pdata$start_pass_prep     000000018006ee1c     * CIL library *:* CIL module *
 0004:00000e28       $pdata$pre_process_data    000000018006ee28     * CIL library *:* CIL module *
 0004:00000e34       $pdata$4$pre_process_data  000000018006ee34     * CIL library *:* CIL module *
 0004:00000e40       $pdata$5$pre_process_data  000000018006ee40     * CIL library *:* CIL module *
 0004:00000e4c       $pdata$pre_process_context 000000018006ee4c     * CIL library *:* CIL module *
 0004:00000e58       $pdata$1$pre_process_context 000000018006ee58     * CIL library *:* CIL module *
 0004:00000e64       $pdata$2$pre_process_context 000000018006ee64     * CIL library *:* CIL module *
 0004:00000e70       $pdata$create_context_buffer 000000018006ee70     * CIL library *:* CIL module *
 0004:00000e7c       $pdata$0$create_context_buffer 000000018006ee7c     * CIL library *:* CIL module *
 0004:00000e88       $pdata$1$create_context_buffer 000000018006ee88     * CIL library *:* CIL module *
 0004:00000e94       $pdata$jinit_c_prep_controller 000000018006ee94     * CIL library *:* CIL module *
 0004:00000ea0       $pdata$2$jinit_c_prep_controller 000000018006eea0     * CIL library *:* CIL module *
 0004:00000eac       $pdata$3$jinit_c_prep_controller 000000018006eeac     * CIL library *:* CIL module *
 0004:00000eb8       $pdata$sep_downsample      000000018006eeb8     * CIL library *:* CIL module *
 0004:00000ec4       $pdata$2$sep_downsample    000000018006eec4     * CIL library *:* CIL module *
 0004:00000ed0       $pdata$3$sep_downsample    000000018006eed0     * CIL library *:* CIL module *
 0004:00000edc       $pdata$int_downsample      000000018006eedc     * CIL library *:* CIL module *
 0004:00000ee8       $pdata$2$int_downsample    000000018006eee8     * CIL library *:* CIL module *
 0004:00000ef4       $pdata$3$int_downsample    000000018006eef4     * CIL library *:* CIL module *
 0004:00000f00       $pdata$fullsize_downsample 000000018006ef00     * CIL library *:* CIL module *
 0004:00000f0c       $pdata$h2v1_downsample     000000018006ef0c     * CIL library *:* CIL module *
 0004:00000f18       $pdata$h2v2_downsample     000000018006ef18     * CIL library *:* CIL module *
 0004:00000f24       $pdata$0$h2v2_downsample   000000018006ef24     * CIL library *:* CIL module *
 0004:00000f30       $pdata$1$h2v2_downsample   000000018006ef30     * CIL library *:* CIL module *
 0004:00000f3c       $pdata$h2v2_smooth_downsample 000000018006ef3c     * CIL library *:* CIL module *
 0004:00000f48       $pdata$3$h2v2_smooth_downsample 000000018006ef48     * CIL library *:* CIL module *
 0004:00000f54       $pdata$4$h2v2_smooth_downsample 000000018006ef54     * CIL library *:* CIL module *
 0004:00000f60       $pdata$fullsize_smooth_downsample 000000018006ef60     * CIL library *:* CIL module *
 0004:00000f6c       $pdata$0$fullsize_smooth_downsample 000000018006ef6c     * CIL library *:* CIL module *
 0004:00000f78       $pdata$1$fullsize_smooth_downsample 000000018006ef78     * CIL library *:* CIL module *
 0004:00000f84       $pdata$jinit_downsampler   000000018006ef84     * CIL library *:* CIL module *
 0004:00000f90       $pdata$1$jinit_downsampler 000000018006ef90     * CIL library *:* CIL module *
 0004:00000f9c       $pdata$5$jinit_downsampler 000000018006ef9c     * CIL library *:* CIL module *
 0004:00000fa8       $pdata$6$jinit_downsampler 000000018006efa8     * CIL library *:* CIL module *
 0004:00000fb4       $pdata$7$jinit_downsampler 000000018006efb4     * CIL library *:* CIL module *
 0004:00000fc0       $pdata$finish_pass         000000018006efc0     * CIL library *:* CIL module *
 0004:00000fcc       $pdata$arith_encode        000000018006efcc     * CIL library *:* CIL module *
 0004:00000fd8       $pdata$0$arith_encode      000000018006efd8     * CIL library *:* CIL module *
 0004:00000fe4       $pdata$1$arith_encode      000000018006efe4     * CIL library *:* CIL module *
 0004:00000ff0       $pdata$emit_restart        000000018006eff0     * CIL library *:* CIL module *
 0004:00000ffc       $pdata$0$emit_restart      000000018006effc     * CIL library *:* CIL module *
 0004:00001008       $pdata$1$emit_restart      000000018006f008     * CIL library *:* CIL module *
 0004:00001014       $pdata$encode_mcu_DC_first 000000018006f014     * CIL library *:* CIL module *
 0004:00001020       $pdata$3$encode_mcu_DC_first 000000018006f020     * CIL library *:* CIL module *
 0004:0000102c       $pdata$4$encode_mcu_DC_first 000000018006f02c     * CIL library *:* CIL module *
 0004:00001038       $pdata$encode_mcu_AC_first 000000018006f038     * CIL library *:* CIL module *
 0004:00001044       $pdata$3$encode_mcu_AC_first 000000018006f044     * CIL library *:* CIL module *
 0004:00001050       $pdata$4$encode_mcu_AC_first 000000018006f050     * CIL library *:* CIL module *
 0004:0000105c       $pdata$5$encode_mcu_AC_first 000000018006f05c     * CIL library *:* CIL module *
 0004:00001068       $pdata$6$encode_mcu_AC_first 000000018006f068     * CIL library *:* CIL module *
 0004:00001074       $pdata$encode_mcu_DC_refine 000000018006f074     * CIL library *:* CIL module *
 0004:00001080       $pdata$0$encode_mcu_DC_refine 000000018006f080     * CIL library *:* CIL module *
 0004:0000108c       $pdata$1$encode_mcu_DC_refine 000000018006f08c     * CIL library *:* CIL module *
 0004:00001098       $pdata$encode_mcu_AC_refine 000000018006f098     * CIL library *:* CIL module *
 0004:000010a4       $pdata$encode_mcu          000000018006f0a4     * CIL library *:* CIL module *
 0004:000010b0       $pdata$4$encode_mcu        000000018006f0b0     * CIL library *:* CIL module *
 0004:000010bc       $pdata$5$encode_mcu        000000018006f0bc     * CIL library *:* CIL module *
 0004:000010c8       $pdata$start_pass          000000018006f0c8     * CIL library *:* CIL module *
 0004:000010d4       $pdata$3$start_pass        000000018006f0d4     * CIL library *:* CIL module *
 0004:000010e0       $pdata$4$start_pass        000000018006f0e0     * CIL library *:* CIL module *
 0004:000010ec       $pdata$png_zalloc          000000018006f0ec     * CIL library *:* CIL module *
 0004:000010f8       $pdata$png_calculate_crc   000000018006f0f8     * CIL library *:* CIL module *
 0004:00001104       $pdata$1$png_calculate_crc 000000018006f104     * CIL library *:* CIL module *
 0004:00001110       $pdata$2$png_calculate_crc 000000018006f110     * CIL library *:* CIL module *
 0004:0000111c       $pdata$png_user_version_check 000000018006f11c     * CIL library *:* CIL module *
 0004:00001128       $pdata$0$png_user_version_check 000000018006f128     * CIL library *:* CIL module *
 0004:00001134       $pdata$1$png_user_version_check 000000018006f134     * CIL library *:* CIL module *
 0004:00001140       $pdata$png_create_png_struct 000000018006f140     * CIL library *:* CIL module *
 0004:0000114c       $pdata$png_create_info_struct 000000018006f14c     * CIL library *:* CIL module *
 0004:00001158       $pdata$png_destroy_info_struct 000000018006f158     * CIL library *:* CIL module *
 0004:00001164       $pdata$0$png_destroy_info_struct 000000018006f164     * CIL library *:* CIL module *
 0004:00001170       $pdata$2$png_destroy_info_struct 000000018006f170     * CIL library *:* CIL module *
 0004:0000117c       $pdata$3$png_destroy_info_struct 000000018006f17c     * CIL library *:* CIL module *
 0004:00001188       $pdata$png_info_init_3     000000018006f188     * CIL library *:* CIL module *
 0004:00001194       $pdata$png_data_freer      000000018006f194     * CIL library *:* CIL module *
 0004:000011a0       $pdata$png_free_data       000000018006f1a0     * CIL library *:* CIL module *
 0004:000011ac       $pdata$2$png_free_data     000000018006f1ac     * CIL library *:* CIL module *
 0004:000011b8       $pdata$3$png_free_data     000000018006f1b8     * CIL library *:* CIL module *
 0004:000011c4       $pdata$4$png_free_data     000000018006f1c4     * CIL library *:* CIL module *
 0004:000011d0       $pdata$png_convert_to_rfc1123_buffer 000000018006f1d0     * CIL library *:* CIL module *
 0004:000011dc       $pdata$3$png_convert_to_rfc1123_buffer 000000018006f1dc     * CIL library *:* CIL module *
 0004:000011e8       $pdata$4$png_convert_to_rfc1123_buffer 000000018006f1e8     * CIL library *:* CIL module *
 0004:000011f4       $pdata$5$png_convert_to_rfc1123_buffer 000000018006f1f4     * CIL library *:* CIL module *
 0004:00001200       $pdata$png_convert_to_rfc1123 000000018006f200     * CIL library *:* CIL module *
 0004:0000120c       $pdata$png_colorspace_check_gamma 000000018006f20c     * CIL library *:* CIL module *
 0004:00001218       $pdata$png_xy_from_XYZ     000000018006f218     * CIL library *:* CIL module *
 0004:00001224       $pdata$2$png_xy_from_XYZ   000000018006f224     * CIL library *:* CIL module *
 0004:00001230       $pdata$3$png_xy_from_XYZ   000000018006f230     * CIL library *:* CIL module *
 0004:0000123c       $pdata$png_XYZ_from_xy     000000018006f23c     * CIL library *:* CIL module *
 0004:00001248       $pdata$1$png_XYZ_from_xy   000000018006f248     * CIL library *:* CIL module *
 0004:00001254       $pdata$2$png_XYZ_from_xy   000000018006f254     * CIL library *:* CIL module *
 0004:00001260       $pdata$3$png_XYZ_from_xy   000000018006f260     * CIL library *:* CIL module *
 0004:0000126c       $pdata$4$png_XYZ_from_xy   000000018006f26c     * CIL library *:* CIL module *
 0004:00001278       $pdata$5$png_XYZ_from_xy   000000018006f278     * CIL library *:* CIL module *
 0004:00001284       $pdata$9$png_XYZ_from_xy   000000018006f284     * CIL library *:* CIL module *
 0004:00001290       $pdata$10$png_XYZ_from_xy  000000018006f290     * CIL library *:* CIL module *
 0004:0000129c       $pdata$11$png_XYZ_from_xy  000000018006f29c     * CIL library *:* CIL module *
 0004:000012a8       $pdata$12$png_XYZ_from_xy  000000018006f2a8     * CIL library *:* CIL module *
 0004:000012b4       $pdata$13$png_XYZ_from_xy  000000018006f2b4     * CIL library *:* CIL module *
 0004:000012c0       $pdata$14$png_XYZ_from_xy  000000018006f2c0     * CIL library *:* CIL module *
 0004:000012cc       $pdata$16$png_XYZ_from_xy  000000018006f2cc     * CIL library *:* CIL module *
 0004:000012d8       $pdata$17$png_XYZ_from_xy  000000018006f2d8     * CIL library *:* CIL module *
 0004:000012e4       $pdata$18$png_XYZ_from_xy  000000018006f2e4     * CIL library *:* CIL module *
 0004:000012f0       $pdata$19$png_XYZ_from_xy  000000018006f2f0     * CIL library *:* CIL module *
 0004:000012fc       $pdata$20$png_XYZ_from_xy  000000018006f2fc     * CIL library *:* CIL module *
 0004:00001308       $pdata$21$png_XYZ_from_xy  000000018006f308     * CIL library *:* CIL module *
 0004:00001314       $pdata$22$png_XYZ_from_xy  000000018006f314     * CIL library *:* CIL module *
 0004:00001320       $pdata$23$png_XYZ_from_xy  000000018006f320     * CIL library *:* CIL module *
 0004:0000132c       $pdata$png_XYZ_normalize   000000018006f32c     * CIL library *:* CIL module *
 0004:00001338       $pdata$png_colorspace_set_chromaticities 000000018006f338     * CIL library *:* CIL module *
 0004:00001344       $pdata$png_colorspace_set_endpoints 000000018006f344     * CIL library *:* CIL module *
 0004:00001350       $pdata$png_icc_profile_error 000000018006f350     * CIL library *:* CIL module *
 0004:0000135c       $pdata$png_colorspace_set_sRGB 000000018006f35c     * CIL library *:* CIL module *
 0004:00001368       $pdata$png_icc_check_header 000000018006f368     * CIL library *:* CIL module *
 0004:00001374       $pdata$png_icc_check_tag_table 000000018006f374     * CIL library *:* CIL module *
 0004:00001380       $pdata$png_compare_ICC_profile_with_sRGB 000000018006f380     * CIL library *:* CIL module *
 0004:0000138c       $pdata$1$png_compare_ICC_profile_with_sRGB 000000018006f38c     * CIL library *:* CIL module *
 0004:00001398       $pdata$3$png_compare_ICC_profile_with_sRGB 000000018006f398     * CIL library *:* CIL module *
 0004:000013a4       $pdata$png_colorspace_set_ICC 000000018006f3a4     * CIL library *:* CIL module *
 0004:000013b0       $pdata$0$png_colorspace_set_ICC 000000018006f3b0     * CIL library *:* CIL module *
 0004:000013bc       $pdata$1$png_colorspace_set_ICC 000000018006f3bc     * CIL library *:* CIL module *
 0004:000013c8       $pdata$png_check_IHDR      000000018006f3c8     * CIL library *:* CIL module *
 0004:000013d4       $pdata$png_check_fp_number 000000018006f3d4     * CIL library *:* CIL module *
 0004:000013e0       $pdata$0$png_check_fp_number 000000018006f3e0     * CIL library *:* CIL module *
 0004:000013ec       $pdata$1$png_check_fp_number 000000018006f3ec     * CIL library *:* CIL module *
 0004:000013f8       $pdata$2$png_check_fp_number 000000018006f3f8     * CIL library *:* CIL module *
 0004:00001404       $pdata$png_check_fp_string 000000018006f404     * CIL library *:* CIL module *
 0004:00001410       $pdata$png_ascii_from_fp   000000018006f410     * CIL library *:* CIL module *
 0004:0000141c       $pdata$0$png_ascii_from_fp 000000018006f41c     * CIL library *:* CIL module *
 0004:00001428       $pdata$8$png_ascii_from_fp 000000018006f428     * CIL library *:* CIL module *
 0004:00001434       $pdata$9$png_ascii_from_fp 000000018006f434     * CIL library *:* CIL module *
 0004:00001440       $pdata$10$png_ascii_from_fp 000000018006f440     * CIL library *:* CIL module *
 0004:0000144c       $pdata$11$png_ascii_from_fp 000000018006f44c     * CIL library *:* CIL module *
 0004:00001458       $pdata$12$png_ascii_from_fp 000000018006f458     * CIL library *:* CIL module *
 0004:00001464       $pdata$13$png_ascii_from_fp 000000018006f464     * CIL library *:* CIL module *
 0004:00001470       $pdata$14$png_ascii_from_fp 000000018006f470     * CIL library *:* CIL module *
 0004:0000147c       $pdata$png_ascii_from_fixed 000000018006f47c     * CIL library *:* CIL module *
 0004:00001488       $pdata$png_muldiv          000000018006f488     * CIL library *:* CIL module *
 0004:00001494       $pdata$png_reciprocal      000000018006f494     * CIL library *:* CIL module *
 0004:000014a0       $pdata$png_image_free_function 000000018006f4a0     * CIL library *:* CIL module *
 0004:000014ac       $pdata$png_image_free      000000018006f4ac     * CIL library *:* CIL module *
 0004:000014b8       $pdata$png_image_error     000000018006f4b8     * CIL library *:* CIL module *
 0004:000014c4       $pdata$png_set_cHRM_fixed  000000018006f4c4     * CIL library *:* CIL module *
 0004:000014d0       $pdata$png_set_cHRM_XYZ_fixed 000000018006f4d0     * CIL library *:* CIL module *
 0004:000014dc       $pdata$png_set_cHRM        000000018006f4dc     * CIL library *:* CIL module *
 0004:000014e8       $pdata$0$png_set_cHRM      000000018006f4e8     * CIL library *:* CIL module *
 0004:000014f4       $pdata$4$png_set_cHRM      000000018006f4f4     * CIL library *:* CIL module *
 0004:00001500       $pdata$5$png_set_cHRM      000000018006f500     * CIL library *:* CIL module *
 0004:0000150c       $pdata$7$png_set_cHRM      000000018006f50c     * CIL library *:* CIL module *
 0004:00001518       $pdata$8$png_set_cHRM      000000018006f518     * CIL library *:* CIL module *
 0004:00001524       $pdata$9$png_set_cHRM      000000018006f524     * CIL library *:* CIL module *
 0004:00001530       $pdata$10$png_set_cHRM     000000018006f530     * CIL library *:* CIL module *
 0004:0000153c       $pdata$11$png_set_cHRM     000000018006f53c     * CIL library *:* CIL module *
 0004:00001548       $pdata$12$png_set_cHRM     000000018006f548     * CIL library *:* CIL module *
 0004:00001554       $pdata$png_set_cHRM_XYZ    000000018006f554     * CIL library *:* CIL module *
 0004:00001560       $pdata$0$png_set_cHRM_XYZ  000000018006f560     * CIL library *:* CIL module *
 0004:0000156c       $pdata$1$png_set_cHRM_XYZ  000000018006f56c     * CIL library *:* CIL module *
 0004:00001578       $pdata$4$png_set_cHRM_XYZ  000000018006f578     * CIL library *:* CIL module *
 0004:00001584       $pdata$6$png_set_cHRM_XYZ  000000018006f584     * CIL library *:* CIL module *
 0004:00001590       $pdata$8$png_set_cHRM_XYZ  000000018006f590     * CIL library *:* CIL module *
 0004:0000159c       $pdata$9$png_set_cHRM_XYZ  000000018006f59c     * CIL library *:* CIL module *
 0004:000015a8       $pdata$10$png_set_cHRM_XYZ 000000018006f5a8     * CIL library *:* CIL module *
 0004:000015b4       $pdata$11$png_set_cHRM_XYZ 000000018006f5b4     * CIL library *:* CIL module *
 0004:000015c0       $pdata$12$png_set_cHRM_XYZ 000000018006f5c0     * CIL library *:* CIL module *
 0004:000015cc       $pdata$13$png_set_cHRM_XYZ 000000018006f5cc     * CIL library *:* CIL module *
 0004:000015d8       $pdata$png_set_gAMA_fixed  000000018006f5d8     * CIL library *:* CIL module *
 0004:000015e4       $pdata$1$png_set_gAMA_fixed 000000018006f5e4     * CIL library *:* CIL module *
 0004:000015f0       $pdata$2$png_set_gAMA_fixed 000000018006f5f0     * CIL library *:* CIL module *
 0004:000015fc       $pdata$png_set_gAMA        000000018006f5fc     * CIL library *:* CIL module *
 0004:00001608       $pdata$png_set_hIST        000000018006f608     * CIL library *:* CIL module *
 0004:00001614       $pdata$png_set_IHDR        000000018006f614     * CIL library *:* CIL module *
 0004:00001620       $pdata$png_set_pCAL        000000018006f620     * CIL library *:* CIL module *
 0004:0000162c       $pdata$1$png_set_pCAL      000000018006f62c     * CIL library *:* CIL module *
 0004:00001638       $pdata$4$png_set_pCAL      000000018006f638     * CIL library *:* CIL module *
 0004:00001644       $pdata$5$png_set_pCAL      000000018006f644     * CIL library *:* CIL module *
 0004:00001650       $pdata$6$png_set_pCAL      000000018006f650     * CIL library *:* CIL module *
 0004:0000165c       $pdata$7$png_set_pCAL      000000018006f65c     * CIL library *:* CIL module *
 0004:00001668       $pdata$8$png_set_pCAL      000000018006f668     * CIL library *:* CIL module *
 0004:00001674       $pdata$png_set_sCAL_s      000000018006f674     * CIL library *:* CIL module *
 0004:00001680       $pdata$2$png_set_sCAL_s    000000018006f680     * CIL library *:* CIL module *
 0004:0000168c       $pdata$3$png_set_sCAL_s    000000018006f68c     * CIL library *:* CIL module *
 0004:00001698       $pdata$4$png_set_sCAL_s    000000018006f698     * CIL library *:* CIL module *
 0004:000016a4       $pdata$5$png_set_sCAL_s    000000018006f6a4     * CIL library *:* CIL module *
 0004:000016b0       $pdata$png_set_sCAL        000000018006f6b0     * CIL library *:* CIL module *
 0004:000016bc       $pdata$png_set_sCAL_fixed  000000018006f6bc     * CIL library *:* CIL module *
 0004:000016c8       $pdata$png_set_PLTE        000000018006f6c8     * CIL library *:* CIL module *
 0004:000016d4       $pdata$0$png_set_PLTE      000000018006f6d4     * CIL library *:* CIL module *
 0004:000016e0       $pdata$1$png_set_PLTE      000000018006f6e0     * CIL library *:* CIL module *
 0004:000016ec       $pdata$png_set_sRGB        000000018006f6ec     * CIL library *:* CIL module *
 0004:000016f8       $pdata$png_set_sRGB_gAMA_and_cHRM 000000018006f6f8     * CIL library *:* CIL module *
 0004:00001704       $pdata$png_set_iCCP        000000018006f704     * CIL library *:* CIL module *
 0004:00001710       $pdata$0$png_set_iCCP      000000018006f710     * CIL library *:* CIL module *
 0004:0000171c       $pdata$2$png_set_iCCP      000000018006f71c     * CIL library *:* CIL module *
 0004:00001728       $pdata$3$png_set_iCCP      000000018006f728     * CIL library *:* CIL module *
 0004:00001734       $pdata$4$png_set_iCCP      000000018006f734     * CIL library *:* CIL module *
 0004:00001740       $pdata$5$png_set_iCCP      000000018006f740     * CIL library *:* CIL module *
 0004:0000174c       $pdata$6$png_set_iCCP      000000018006f74c     * CIL library *:* CIL module *
 0004:00001758       $pdata$png_set_text        000000018006f758     * CIL library *:* CIL module *
 0004:00001764       $pdata$png_set_text_2      000000018006f764     * CIL library *:* CIL module *
 0004:00001770       $pdata$1$png_set_text_2    000000018006f770     * CIL library *:* CIL module *
 0004:0000177c       $pdata$3$png_set_text_2    000000018006f77c     * CIL library *:* CIL module *
 0004:00001788       $pdata$4$png_set_text_2    000000018006f788     * CIL library *:* CIL module *
 0004:00001794       $pdata$5$png_set_text_2    000000018006f794     * CIL library *:* CIL module *
 0004:000017a0       $pdata$6$png_set_text_2    000000018006f7a0     * CIL library *:* CIL module *
 0004:000017ac       $pdata$8$png_set_text_2    000000018006f7ac     * CIL library *:* CIL module *
 0004:000017b8       $pdata$9$png_set_text_2    000000018006f7b8     * CIL library *:* CIL module *
 0004:000017c4       $pdata$png_set_tRNS        000000018006f7c4     * CIL library *:* CIL module *
 0004:000017d0       $pdata$0$png_set_tRNS      000000018006f7d0     * CIL library *:* CIL module *
 0004:000017dc       $pdata$1$png_set_tRNS      000000018006f7dc     * CIL library *:* CIL module *
 0004:000017e8       $pdata$png_set_sPLT        000000018006f7e8     * CIL library *:* CIL module *
 0004:000017f4       $pdata$0$png_set_sPLT      000000018006f7f4     * CIL library *:* CIL module *
 0004:00001800       $pdata$1$png_set_sPLT      000000018006f800     * CIL library *:* CIL module *
 0004:0000180c       $pdata$2$png_set_sPLT      000000018006f80c     * CIL library *:* CIL module *
 0004:00001818       $pdata$3$png_set_sPLT      000000018006f818     * CIL library *:* CIL module *
 0004:00001824       $pdata$4$png_set_sPLT      000000018006f824     * CIL library *:* CIL module *
 0004:00001830       $pdata$check_location      000000018006f830     * CIL library *:* CIL module *
 0004:0000183c       $pdata$png_set_unknown_chunks 000000018006f83c     * CIL library *:* CIL module *
 0004:00001848       $pdata$0$png_set_unknown_chunks 000000018006f848     * CIL library *:* CIL module *
 0004:00001854       $pdata$1$png_set_unknown_chunks 000000018006f854     * CIL library *:* CIL module *
 0004:00001860       $pdata$2$png_set_unknown_chunks 000000018006f860     * CIL library *:* CIL module *
 0004:0000186c       $pdata$3$png_set_unknown_chunks 000000018006f86c     * CIL library *:* CIL module *
 0004:00001878       $pdata$4$png_set_unknown_chunks 000000018006f878     * CIL library *:* CIL module *
 0004:00001884       $pdata$png_set_unknown_chunk_location 000000018006f884     * CIL library *:* CIL module *
 0004:00001890       $pdata$png_set_keep_unknown_chunks 000000018006f890     * CIL library *:* CIL module *
 0004:0000189c       $pdata$2$png_set_keep_unknown_chunks 000000018006f89c     * CIL library *:* CIL module *
 0004:000018a8       $pdata$3$png_set_keep_unknown_chunks 000000018006f8a8     * CIL library *:* CIL module *
 0004:000018b4       $pdata$4$png_set_keep_unknown_chunks 000000018006f8b4     * CIL library *:* CIL module *
 0004:000018c0       $pdata$5$png_set_keep_unknown_chunks 000000018006f8c0     * CIL library *:* CIL module *
 0004:000018cc       $pdata$png_set_rows        000000018006f8cc     * CIL library *:* CIL module *
 0004:000018d8       $pdata$png_set_compression_buffer_size 000000018006f8d8     * CIL library *:* CIL module *
 0004:000018e4       $pdata$0$png_set_compression_buffer_size 000000018006f8e4     * CIL library *:* CIL module *
 0004:000018f0       $pdata$1$png_set_compression_buffer_size 000000018006f8f0     * CIL library *:* CIL module *
 0004:000018fc       $pdata$2$png_set_compression_buffer_size 000000018006f8fc     * CIL library *:* CIL module *
 0004:00001908       $pdata$3$png_set_compression_buffer_size 000000018006f908     * CIL library *:* CIL module *
 0004:00001914       $pdata$png_get_pixels_per_inch 000000018006f914     * CIL library *:* CIL module *
 0004:00001920       $pdata$png_get_x_pixels_per_inch 000000018006f920     * CIL library *:* CIL module *
 0004:0000192c       $pdata$png_get_y_pixels_per_inch 000000018006f92c     * CIL library *:* CIL module *
 0004:00001938       $pdata$png_fixed_inches_from_microns 000000018006f938     * CIL library *:* CIL module *
 0004:00001944       $pdata$png_get_IHDR        000000018006f944     * CIL library *:* CIL module *
 0004:00001950       $pdata$png_get_pCAL        000000018006f950     * CIL library *:* CIL module *
 0004:0000195c       $pdata$png_get_sCAL_fixed  000000018006f95c     * CIL library *:* CIL module *
 0004:00001968       $pdata$0$png_get_sCAL_fixed 000000018006f968     * CIL library *:* CIL module *
 0004:00001974       $pdata$1$png_get_sCAL_fixed 000000018006f974     * CIL library *:* CIL module *
 0004:00001980       $pdata$2$png_get_sCAL_fixed 000000018006f980     * CIL library *:* CIL module *
 0004:0000198c       $pdata$png_get_sCAL        000000018006f98c     * CIL library *:* CIL module *
 0004:00001998       $pdata$png_set_filler      000000018006f998     * CIL library *:* CIL module *
 0004:000019a4       $pdata$png_set_add_alpha   000000018006f9a4     * CIL library *:* CIL module *
 0004:000019b0       $pdata$png_do_strip_channel 000000018006f9b0     * CIL library *:* CIL module *
 0004:000019bc       $pdata$0$png_do_strip_channel 000000018006f9bc     * CIL library *:* CIL module *
 0004:000019c8       $pdata$1$png_do_strip_channel 000000018006f9c8     * CIL library *:* CIL module *
 0004:000019d4       $pdata$png_destroy_png_struct 000000018006f9d4     * CIL library *:* CIL module *
 0004:000019e0       $pdata$png_calloc          000000018006f9e0     * CIL library *:* CIL module *
 0004:000019ec       $pdata$png_malloc_array    000000018006f9ec     * CIL library *:* CIL module *
 0004:000019f8       $pdata$png_realloc_array   000000018006f9f8     * CIL library *:* CIL module *
 0004:00001a04       $pdata$0$png_realloc_array 000000018006fa04     * CIL library *:* CIL module *
 0004:00001a10       $pdata$2$png_realloc_array 000000018006fa10     * CIL library *:* CIL module *
 0004:00001a1c       $pdata$3$png_realloc_array 000000018006fa1c     * CIL library *:* CIL module *
 0004:00001a28       $pdata$png_malloc          000000018006fa28     * CIL library *:* CIL module *
 0004:00001a34       $pdata$png_malloc_default  000000018006fa34     * CIL library *:* CIL module *
 0004:00001a40       $pdata$png_malloc_warn     000000018006fa40     * CIL library *:* CIL module *
 0004:00001a4c       $pdata$png_error           000000018006fa4c     * CIL library *:* CIL module *
 0004:00001a58       $pdata$png_formatted_warning 000000018006fa58     * CIL library *:* CIL module *
 0004:00001a64       $pdata$png_benign_error    000000018006fa64     * CIL library *:* CIL module *
 0004:00001a70       $pdata$png_app_warning     000000018006fa70     * CIL library *:* CIL module *
 0004:00001a7c       $pdata$png_app_error       000000018006fa7c     * CIL library *:* CIL module *
 0004:00001a88       $pdata$png_format_buffer   000000018006fa88     * CIL library *:* CIL module *
 0004:00001a94       $pdata$png_chunk_warning   000000018006fa94     * CIL library *:* CIL module *
 0004:00001aa0       $pdata$png_fixed_error     000000018006faa0     * CIL library *:* CIL module *
 0004:00001aac       $pdata$png_set_longjmp_fn  000000018006faac     * CIL library *:* CIL module *
 0004:00001ab8       $pdata$png_free_jmpbuf     000000018006fab8     * CIL library *:* CIL module *
 0004:00001ac4       $pdata$png_longjmp         000000018006fac4     * CIL library *:* CIL module *
 0004:00001ad0       $pdata$png_safe_error      000000018006fad0     * CIL library *:* CIL module *
 0004:00001adc       $pdata$0$png_safe_error    000000018006fadc     * CIL library *:* CIL module *
 0004:00001ae8       $pdata$1$png_safe_error    000000018006fae8     * CIL library *:* CIL module *
 0004:00001af4       $pdata$png_safe_execute    000000018006faf4     * CIL library *:* CIL module *
 0004:00001b00       $pdata$write_unknown_chunks 000000018006fb00     * CIL library *:* CIL module *
 0004:00001b0c       $pdata$0$write_unknown_chunks 000000018006fb0c     * CIL library *:* CIL module *
 0004:00001b18       $pdata$1$write_unknown_chunks 000000018006fb18     * CIL library *:* CIL module *
 0004:00001b24       $pdata$2$write_unknown_chunks 000000018006fb24     * CIL library *:* CIL module *
 0004:00001b30       $pdata$png_write_info_before_PLTE 000000018006fb30     * CIL library *:* CIL module *
 0004:00001b3c       $pdata$0$png_write_info_before_PLTE 000000018006fb3c     * CIL library *:* CIL module *
 0004:00001b48       $pdata$1$png_write_info_before_PLTE 000000018006fb48     * CIL library *:* CIL module *
 0004:00001b54       $pdata$png_write_info      000000018006fb54     * CIL library *:* CIL module *
 0004:00001b60       $pdata$1$png_write_info    000000018006fb60     * CIL library *:* CIL module *
 0004:00001b6c       $pdata$2$png_write_info    000000018006fb6c     * CIL library *:* CIL module *
 0004:00001b78       $pdata$3$png_write_info    000000018006fb78     * CIL library *:* CIL module *
 0004:00001b84       $pdata$4$png_write_info    000000018006fb84     * CIL library *:* CIL module *
 0004:00001b90       $pdata$png_write_end       000000018006fb90     * CIL library *:* CIL module *
 0004:00001b9c       $pdata$0$png_write_end     000000018006fb9c     * CIL library *:* CIL module *
 0004:00001ba8       $pdata$1$png_write_end     000000018006fba8     * CIL library *:* CIL module *
 0004:00001bb4       $pdata$2$png_write_end     000000018006fbb4     * CIL library *:* CIL module *
 0004:00001bc0       $pdata$3$png_write_end     000000018006fbc0     * CIL library *:* CIL module *
 0004:00001bcc       $pdata$png_convert_from_time_t 000000018006fbcc     * CIL library *:* CIL module *
 0004:00001bd8       $pdata$png_create_write_struct 000000018006fbd8     * CIL library *:* CIL module *
 0004:00001be4       $pdata$png_create_write_struct_2 000000018006fbe4     * CIL library *:* CIL module *
 0004:00001bf0       $pdata$png_write_rows      000000018006fbf0     * CIL library *:* CIL module *
 0004:00001bfc       $pdata$0$png_write_rows    000000018006fbfc     * CIL library *:* CIL module *
 0004:00001c08       $pdata$4$png_write_rows    000000018006fc08     * CIL library *:* CIL module *
 0004:00001c14       $pdata$5$png_write_rows    000000018006fc14     * CIL library *:* CIL module *
 0004:00001c20       $pdata$6$png_write_rows    000000018006fc20     * CIL library *:* CIL module *
 0004:00001c2c       $pdata$7$png_write_rows    000000018006fc2c     * CIL library *:* CIL module *
 0004:00001c38       $pdata$8$png_write_rows    000000018006fc38     * CIL library *:* CIL module *
 0004:00001c44       $pdata$png_write_image     000000018006fc44     * CIL library *:* CIL module *
 0004:00001c50       $pdata$2$png_write_image   000000018006fc50     * CIL library *:* CIL module *
 0004:00001c5c       $pdata$3$png_write_image   000000018006fc5c     * CIL library *:* CIL module *
 0004:00001c68       $pdata$png_write_row       000000018006fc68     * CIL library *:* CIL module *
 0004:00001c74       $pdata$0$png_write_row     000000018006fc74     * CIL library *:* CIL module *
 0004:00001c80       $pdata$1$png_write_row     000000018006fc80     * CIL library *:* CIL module *
 0004:00001c8c       $pdata$2$png_write_row     000000018006fc8c     * CIL library *:* CIL module *
 0004:00001c98       $pdata$3$png_write_row     000000018006fc98     * CIL library *:* CIL module *
 0004:00001ca4       $pdata$png_write_flush     000000018006fca4     * CIL library *:* CIL module *
 0004:00001cb0       $pdata$png_write_destroy   000000018006fcb0     * CIL library *:* CIL module *
 0004:00001cbc       $pdata$0$png_write_destroy 000000018006fcbc     * CIL library *:* CIL module *
 0004:00001cc8       $pdata$1$png_write_destroy 000000018006fcc8     * CIL library *:* CIL module *
 0004:00001cd4       $pdata$png_destroy_write_struct 000000018006fcd4     * CIL library *:* CIL module *
 0004:00001ce0       $pdata$0$png_destroy_write_struct 000000018006fce0     * CIL library *:* CIL module *
 0004:00001cec       $pdata$1$png_destroy_write_struct 000000018006fcec     * CIL library *:* CIL module *
 0004:00001cf8       $pdata$png_set_filter      000000018006fcf8     * CIL library *:* CIL module *
 0004:00001d04       $pdata$0$png_set_filter    000000018006fd04     * CIL library *:* CIL module *
 0004:00001d10       $pdata$1$png_set_filter    000000018006fd10     * CIL library *:* CIL module *
 0004:00001d1c       $pdata$2$png_set_filter    000000018006fd1c     * CIL library *:* CIL module *
 0004:00001d28       $pdata$3$png_set_filter    000000018006fd28     * CIL library *:* CIL module *
 0004:00001d34       $pdata$png_set_compression_window_bits 000000018006fd34     * CIL library *:* CIL module *
 0004:00001d40       $pdata$png_set_compression_method 000000018006fd40     * CIL library *:* CIL module *
 0004:00001d4c       $pdata$png_set_text_compression_window_bits 000000018006fd4c     * CIL library *:* CIL module *
 0004:00001d58       $pdata$png_set_text_compression_method 000000018006fd58     * CIL library *:* CIL module *
 0004:00001d64       $pdata$png_write_png       000000018006fd64     * CIL library *:* CIL module *
 0004:00001d70       $pdata$png_image_write_init 000000018006fd70     * CIL library *:* CIL module *
 0004:00001d7c       $pdata$png_write_image_16bit 000000018006fd7c     * CIL library *:* CIL module *
 0004:00001d88       $pdata$0$png_write_image_16bit 000000018006fd88     * CIL library *:* CIL module *
 0004:00001d94       $pdata$1$png_write_image_16bit 000000018006fd94     * CIL library *:* CIL module *
 0004:00001da0       $pdata$2$png_write_image_16bit 000000018006fda0     * CIL library *:* CIL module *
 0004:00001dac       $pdata$3$png_write_image_16bit 000000018006fdac     * CIL library *:* CIL module *
 0004:00001db8       $pdata$png_write_image_8bit 000000018006fdb8     * CIL library *:* CIL module *
 0004:00001dc4       $pdata$png_image_set_PLTE  000000018006fdc4     * CIL library *:* CIL module *
 0004:00001dd0       $pdata$png_image_write_main 000000018006fdd0     * CIL library *:* CIL module *
 0004:00001ddc       $pdata$png_image_write_to_stdio 000000018006fddc     * CIL library *:* CIL module *
 0004:00001de8       $pdata$png_image_write_to_file 000000018006fde8     * CIL library *:* CIL module *
 0004:00001df4       $pdata$0$png_image_write_to_file 000000018006fdf4     * CIL library *:* CIL module *
 0004:00001e00       $pdata$1$png_image_write_to_file 000000018006fe00     * CIL library *:* CIL module *
 0004:00001e0c       $pdata$2$png_image_write_to_file 000000018006fe0c     * CIL library *:* CIL module *
 0004:00001e18       $pdata$3$png_image_write_to_file 000000018006fe18     * CIL library *:* CIL module *
 0004:00001e24       $pdata$png_write_sig       000000018006fe24     * CIL library *:* CIL module *
 0004:00001e30       $pdata$png_write_chunk_header 000000018006fe30     * CIL library *:* CIL module *
 0004:00001e3c       $pdata$1$png_write_chunk_header 000000018006fe3c     * CIL library *:* CIL module *
 0004:00001e48       $pdata$2$png_write_chunk_header 000000018006fe48     * CIL library *:* CIL module *
 0004:00001e54       $pdata$3$png_write_chunk_header 000000018006fe54     * CIL library *:* CIL module *
 0004:00001e60       $pdata$4$png_write_chunk_header 000000018006fe60     * CIL library *:* CIL module *
 0004:00001e6c       $pdata$png_write_chunk_data 000000018006fe6c     * CIL library *:* CIL module *
 0004:00001e78       $pdata$png_write_chunk_end 000000018006fe78     * CIL library *:* CIL module *
 0004:00001e84       $pdata$png_write_complete_chunk 000000018006fe84     * CIL library *:* CIL module *
 0004:00001e90       $pdata$png_image_size      000000018006fe90     * CIL library *:* CIL module *
 0004:00001e9c       $pdata$3$png_image_size    000000018006fe9c     * CIL library *:* CIL module *
 0004:00001ea8       $pdata$4$png_image_size    000000018006fea8     * CIL library *:* CIL module *
 0004:00001eb4       $pdata$png_deflate_claim   000000018006feb4     * CIL library *:* CIL module *
 0004:00001ec0       $pdata$4$png_deflate_claim 000000018006fec0     * CIL library *:* CIL module *
 0004:00001ecc       $pdata$5$png_deflate_claim 000000018006fecc     * CIL library *:* CIL module *
 0004:00001ed8       $pdata$6$png_deflate_claim 000000018006fed8     * CIL library *:* CIL module *
 0004:00001ee4       $pdata$png_free_buffer_list 000000018006fee4     * CIL library *:* CIL module *
 0004:00001ef0       $pdata$0$png_free_buffer_list 000000018006fef0     * CIL library *:* CIL module *
 0004:00001efc       $pdata$1$png_free_buffer_list 000000018006fefc     * CIL library *:* CIL module *
 0004:00001f08       $pdata$png_text_compress   000000018006ff08     * CIL library *:* CIL module *
 0004:00001f14       $pdata$0$png_text_compress 000000018006ff14     * CIL library *:* CIL module *
 0004:00001f20       $pdata$4$png_text_compress 000000018006ff20     * CIL library *:* CIL module *
 0004:00001f2c       $pdata$5$png_text_compress 000000018006ff2c     * CIL library *:* CIL module *
 0004:00001f38       $pdata$6$png_text_compress 000000018006ff38     * CIL library *:* CIL module *
 0004:00001f44       $pdata$png_write_compressed_data_out 000000018006ff44     * CIL library *:* CIL module *
 0004:00001f50       $pdata$png_check_keyword   000000018006ff50     * CIL library *:* CIL module *
 0004:00001f5c       $pdata$png_write_IHDR      000000018006ff5c     * CIL library *:* CIL module *
 0004:00001f68       $pdata$1$png_write_IHDR    000000018006ff68     * CIL library *:* CIL module *
 0004:00001f74       $pdata$2$png_write_IHDR    000000018006ff74     * CIL library *:* CIL module *
 0004:00001f80       $pdata$png_write_PLTE      000000018006ff80     * CIL library *:* CIL module *
 0004:00001f8c       $pdata$0$png_write_PLTE    000000018006ff8c     * CIL library *:* CIL module *
 0004:00001f98       $pdata$1$png_write_PLTE    000000018006ff98     * CIL library *:* CIL module *
 0004:00001fa4       $pdata$2$png_write_PLTE    000000018006ffa4     * CIL library *:* CIL module *
 0004:00001fb0       $pdata$png_compress_IDAT   000000018006ffb0     * CIL library *:* CIL module *
 0004:00001fbc       $pdata$1$png_compress_IDAT 000000018006ffbc     * CIL library *:* CIL module *
 0004:00001fc8       $pdata$2$png_compress_IDAT 000000018006ffc8     * CIL library *:* CIL module *
 0004:00001fd4       $pdata$3$png_compress_IDAT 000000018006ffd4     * CIL library *:* CIL module *
 0004:00001fe0       $pdata$png_write_gAMA_fixed 000000018006ffe0     * CIL library *:* CIL module *
 0004:00001fec       $pdata$png_write_sRGB      000000018006ffec     * CIL library *:* CIL module *
 0004:00001ff8       $pdata$png_write_iCCP      000000018006fff8     * CIL library *:* CIL module *
 0004:00002004       $pdata$1$png_write_iCCP    0000000180070004     * CIL library *:* CIL module *
 0004:00002010       $pdata$3$png_write_iCCP    0000000180070010     * CIL library *:* CIL module *
 0004:0000201c       $pdata$png_write_sPLT      000000018007001c     * CIL library *:* CIL module *
 0004:00002028       $pdata$png_write_sBIT      0000000180070028     * CIL library *:* CIL module *
 0004:00002034       $pdata$png_write_cHRM_fixed 0000000180070034     * CIL library *:* CIL module *
 0004:00002040       $pdata$png_write_tRNS      0000000180070040     * CIL library *:* CIL module *
 0004:0000204c       $pdata$png_write_bKGD      000000018007004c     * CIL library *:* CIL module *
 0004:00002058       $pdata$png_write_hIST      0000000180070058     * CIL library *:* CIL module *
 0004:00002064       $pdata$4$png_write_hIST    0000000180070064     * CIL library *:* CIL module *
 0004:00002070       $pdata$5$png_write_hIST    0000000180070070     * CIL library *:* CIL module *
 0004:0000207c       $pdata$6$png_write_hIST    000000018007007c     * CIL library *:* CIL module *
 0004:00002088       $pdata$png_write_tEXt      0000000180070088     * CIL library *:* CIL module *
 0004:00002094       $pdata$png_write_zTXt      0000000180070094     * CIL library *:* CIL module *
 0004:000020a0       $pdata$0$png_write_zTXt    00000001800700a0     * CIL library *:* CIL module *
 0004:000020ac       $pdata$1$png_write_zTXt    00000001800700ac     * CIL library *:* CIL module *
 0004:000020b8       $pdata$2$png_write_zTXt    00000001800700b8     * CIL library *:* CIL module *
 0004:000020c4       $pdata$png_write_iTXt      00000001800700c4     * CIL library *:* CIL module *
 0004:000020d0       $pdata$2$png_write_iTXt    00000001800700d0     * CIL library *:* CIL module *
 0004:000020dc       $pdata$4$png_write_iTXt    00000001800700dc     * CIL library *:* CIL module *
 0004:000020e8       $pdata$5$png_write_iTXt    00000001800700e8     * CIL library *:* CIL module *
 0004:000020f4       $pdata$png_write_oFFs      00000001800700f4     * CIL library *:* CIL module *
 0004:00002100       $pdata$png_write_pCAL      0000000180070100     * CIL library *:* CIL module *
 0004:0000210c       $pdata$2$png_write_pCAL    000000018007010c     * CIL library *:* CIL module *
 0004:00002118       $pdata$png_write_sCAL_s    0000000180070118     * CIL library *:* CIL module *
 0004:00002124       $pdata$png_write_pHYs      0000000180070124     * CIL library *:* CIL module *
 0004:00002130       $pdata$png_write_tIME      0000000180070130     * CIL library *:* CIL module *
 0004:0000213c       $pdata$png_write_start_row 000000018007013c     * CIL library *:* CIL module *
 0004:00002148       $pdata$0$png_write_start_row 0000000180070148     * CIL library *:* CIL module *
 0004:00002154       $pdata$2$png_write_start_row 0000000180070154     * CIL library *:* CIL module *
 0004:00002160       $pdata$3$png_write_start_row 0000000180070160     * CIL library *:* CIL module *
 0004:0000216c       $pdata$4$png_write_start_row 000000018007016c     * CIL library *:* CIL module *
 0004:00002178       $pdata$png_write_finish_row 0000000180070178     * CIL library *:* CIL module *
 0004:00002184       $pdata$1$png_write_finish_row 0000000180070184     * CIL library *:* CIL module *
 0004:00002190       $pdata$3$png_write_finish_row 0000000180070190     * CIL library *:* CIL module *
 0004:0000219c       $pdata$5$png_write_finish_row 000000018007019c     * CIL library *:* CIL module *
 0004:000021a8       $pdata$6$png_write_finish_row 00000001800701a8     * CIL library *:* CIL module *
 0004:000021b4       $pdata$png_do_write_interlace 00000001800701b4     * CIL library *:* CIL module *
 0004:000021c0       $pdata$6$png_do_write_interlace 00000001800701c0     * CIL library *:* CIL module *
 0004:000021cc       $pdata$7$png_do_write_interlace 00000001800701cc     * CIL library *:* CIL module *
 0004:000021d8       $pdata$png_setup_sub_row   00000001800701d8     * CIL library *:* CIL module *
 0004:000021e4       $pdata$png_setup_up_row    00000001800701e4     * CIL library *:* CIL module *
 0004:000021f0       $pdata$png_setup_avg_row   00000001800701f0     * CIL library *:* CIL module *
 0004:000021fc       $pdata$png_setup_paeth_row 00000001800701fc     * CIL library *:* CIL module *
 0004:00002208       $pdata$3$png_setup_paeth_row 0000000180070208     * CIL library *:* CIL module *
 0004:00002214       $pdata$4$png_setup_paeth_row 0000000180070214     * CIL library *:* CIL module *
 0004:00002220       $pdata$png_write_find_filter 0000000180070220     * CIL library *:* CIL module *
 0004:0000222c       $pdata$png_write_filtered_row 000000018007022c     * CIL library *:* CIL module *
 0004:00002238       $pdata$png_write_data      0000000180070238     * CIL library *:* CIL module *
 0004:00002244       $pdata$png_default_write_data 0000000180070244     * CIL library *:* CIL module *
 0004:00002250       $pdata$png_do_pack         0000000180070250     * CIL library *:* CIL module *
 0004:0000225c       $pdata$png_do_shift        000000018007025c     * CIL library *:* CIL module *
 0004:00002268       $pdata$5$png_do_shift      0000000180070268     * CIL library *:* CIL module *
 0004:00002274       $pdata$6$png_do_shift      0000000180070274     * CIL library *:* CIL module *
 0004:00002280       $pdata$7$png_do_shift      0000000180070280     * CIL library *:* CIL module *
 0004:0000228c       $pdata$8$png_do_shift      000000018007028c     * CIL library *:* CIL module *
 0004:00002298       $pdata$png_do_write_transformations 0000000180070298     * CIL library *:* CIL module *
 0004:000022a4       $pdata$crc32_little        00000001800702a4     * CIL library *:* CIL module *
 0004:000022b0       $pdata$0$crc32_little      00000001800702b0     * CIL library *:* CIL module *
 0004:000022bc       $pdata$1$crc32_little      00000001800702bc     * CIL library *:* CIL module *
 0004:000022c8       $pdata$deflateInit2_       00000001800702c8     * CIL library *:* CIL module *
 0004:000022d4       $pdata$1$deflateInit2_     00000001800702d4     * CIL library *:* CIL module *
 0004:000022e0       $pdata$2$deflateInit2_     00000001800702e0     * CIL library *:* CIL module *
 0004:000022ec       $pdata$3$deflateInit2_     00000001800702ec     * CIL library *:* CIL module *
 0004:000022f8       $pdata$5$deflateInit2_     00000001800702f8     * CIL library *:* CIL module *
 0004:00002304       $pdata$6$deflateInit2_     0000000180070304     * CIL library *:* CIL module *
 0004:00002310       $pdata$deflateResetKeep    0000000180070310     * CIL library *:* CIL module *
 0004:0000231c       $pdata$flush_pending       000000018007031c     * CIL library *:* CIL module *
 0004:00002328       $pdata$0$flush_pending     0000000180070328     * CIL library *:* CIL module *
 0004:00002334       $pdata$1$flush_pending     0000000180070334     * CIL library *:* CIL module *
 0004:00002340       $pdata$deflate             0000000180070340     * CIL library *:* CIL module *
 0004:0000234c       $pdata$1$deflate           000000018007034c     * CIL library *:* CIL module *
 0004:00002358       $pdata$2$deflate           0000000180070358     * CIL library *:* CIL module *
 0004:00002364       $pdata$3$deflate           0000000180070364     * CIL library *:* CIL module *
 0004:00002370       $pdata$5$deflate           0000000180070370     * CIL library *:* CIL module *
 0004:0000237c       $pdata$6$deflate           000000018007037c     * CIL library *:* CIL module *
 0004:00002388       $pdata$deflateEnd          0000000180070388     * CIL library *:* CIL module *
 0004:00002394       $pdata$0$deflateEnd        0000000180070394     * CIL library *:* CIL module *
 0004:000023a0       $pdata$2$deflateEnd        00000001800703a0     * CIL library *:* CIL module *
 0004:000023ac       $pdata$3$deflateEnd        00000001800703ac     * CIL library *:* CIL module *
 0004:000023b8       $pdata$read_buf            00000001800703b8     * CIL library *:* CIL module *
 0004:000023c4       $pdata$lm_init             00000001800703c4     * CIL library *:* CIL module *
 0004:000023d0       $pdata$longest_match       00000001800703d0     * CIL library *:* CIL module *
 0004:000023dc       $pdata$fill_window         00000001800703dc     * CIL library *:* CIL module *
 0004:000023e8       $pdata$0$fill_window       00000001800703e8     * CIL library *:* CIL module *
 0004:000023f4       $pdata$1$fill_window       00000001800703f4     * CIL library *:* CIL module *
 0004:00002400       $pdata$deflate_stored      0000000180070400     * CIL library *:* CIL module *
 0004:0000240c       $pdata$deflate_fast        000000018007040c     * CIL library *:* CIL module *
 0004:00002418       $pdata$deflate_slow        0000000180070418     * CIL library *:* CIL module *
 0004:00002424       $pdata$deflate_rle         0000000180070424     * CIL library *:* CIL module *
 0004:00002430       $pdata$deflate_huff        0000000180070430     * CIL library *:* CIL module *
 0004:0000243c       $pdata$pqdownheap          000000018007043c     * CIL library *:* CIL module *
 0004:00002448       $pdata$0$pqdownheap        0000000180070448     * CIL library *:* CIL module *
 0004:00002454       $pdata$2$pqdownheap        0000000180070454     * CIL library *:* CIL module *
 0004:00002460       $pdata$3$pqdownheap        0000000180070460     * CIL library *:* CIL module *
 0004:0000246c       $pdata$gen_bitlen          000000018007046c     * CIL library *:* CIL module *
 0004:00002478       $pdata$2$gen_bitlen        0000000180070478     * CIL library *:* CIL module *
 0004:00002484       $pdata$3$gen_bitlen        0000000180070484     * CIL library *:* CIL module *
 0004:00002490       $pdata$gen_codes           0000000180070490     * CIL library *:* CIL module *
 0004:0000249c       $pdata$build_tree          000000018007049c     * CIL library *:* CIL module *
 0004:000024a8       $pdata$scan_tree           00000001800704a8     * CIL library *:* CIL module *
 0004:000024b4       $pdata$send_tree           00000001800704b4     * CIL library *:* CIL module *
 0004:000024c0       $pdata$3$send_tree         00000001800704c0     * CIL library *:* CIL module *
 0004:000024cc       $pdata$4$send_tree         00000001800704cc     * CIL library *:* CIL module *
 0004:000024d8       $pdata$build_bl_tree       00000001800704d8     * CIL library *:* CIL module *
 0004:000024e4       $pdata$send_all_trees      00000001800704e4     * CIL library *:* CIL module *
 0004:000024f0       $pdata$_tr_flush_block     00000001800704f0     * CIL library *:* CIL module *
 0004:000024fc       $pdata$compress_block      00000001800704fc     * CIL library *:* CIL module *
 0004:00002508       $pdata$1$compress_block    0000000180070508     * CIL library *:* CIL module *
 0004:00002514       $pdata$4$compress_block    0000000180070514     * CIL library *:* CIL module *
 0004:00002520       $pdata$5$compress_block    0000000180070520     * CIL library *:* CIL module *
 0004:0000252c       $pdata$6$compress_block    000000018007052c     * CIL library *:* CIL module *
 0004:00002538       $pdata$copy_block          0000000180070538     * CIL library *:* CIL module *
 0004:00002544       $pdata$EGifOpen            0000000180070544     * CIL library *:* CIL module *
 0004:00002550       $pdata$1$EGifOpen          0000000180070550     * CIL library *:* CIL module *
 0004:0000255c       $pdata$2$EGifOpen          000000018007055c     * CIL library *:* CIL module *
 0004:00002568       $pdata$EGifGetGifVersion   0000000180070568     * CIL library *:* CIL module *
 0004:00002574       $pdata$EGifPutScreenDesc   0000000180070574     * CIL library *:* CIL module *
 0004:00002580       $pdata$1$EGifPutScreenDesc 0000000180070580     * CIL library *:* CIL module *
 0004:0000258c       $pdata$2$EGifPutScreenDesc 000000018007058c     * CIL library *:* CIL module *
 0004:00002598       $pdata$3$EGifPutScreenDesc 0000000180070598     * CIL library *:* CIL module *
 0004:000025a4       $pdata$5$EGifPutScreenDesc 00000001800705a4     * CIL library *:* CIL module *
 0004:000025b0       $pdata$EGifPutImageDesc    00000001800705b0     * CIL library *:* CIL module *
 0004:000025bc       $pdata$EGifPutLine         00000001800705bc     * CIL library *:* CIL module *
 0004:000025c8       $pdata$6$EGifPutLine       00000001800705c8     * CIL library *:* CIL module *
 0004:000025d4       $pdata$8$EGifPutLine       00000001800705d4     * CIL library *:* CIL module *
 0004:000025e0       $pdata$EGifPutExtensionBlock 00000001800705e0     * CIL library *:* CIL module *
 0004:000025ec       $pdata$EGifCloseFile       00000001800705ec     * CIL library *:* CIL module *
 0004:000025f8       $pdata$1$EGifCloseFile     00000001800705f8     * CIL library *:* CIL module *
 0004:00002604       $pdata$2$EGifCloseFile     0000000180070604     * CIL library *:* CIL module *
 0004:00002610       $pdata$4$EGifCloseFile     0000000180070610     * CIL library *:* CIL module *
 0004:0000261c       $pdata$EGifPutWord         000000018007061c     * CIL library *:* CIL module *
 0004:00002628       $pdata$EGifSetupCompress   0000000180070628     * CIL library *:* CIL module *
 0004:00002634       $pdata$EGifCompressOutput  0000000180070634     * CIL library *:* CIL module *
 0004:00002640       $pdata$2$EGifCompressOutput 0000000180070640     * CIL library *:* CIL module *
 0004:0000264c       $pdata$3$EGifCompressOutput 000000018007064c     * CIL library *:* CIL module *
 0004:00002658       $pdata$EGifBufferedOutput  0000000180070658     * CIL library *:* CIL module *
 0004:00002664       $pdata$EGifWriteExtensions 0000000180070664     * CIL library *:* CIL module *
 0004:00002670       $pdata$EGifSpew            0000000180070670     * CIL library *:* CIL module *
 0004:0000267c       $pdata$6$EGifSpew          000000018007067c     * CIL library *:* CIL module *
 0004:00002688       $pdata$7$EGifSpew          0000000180070688     * CIL library *:* CIL module *
 0004:00002694       $pdata$GifMakeMapObject    0000000180070694     * CIL library *:* CIL module *
 0004:000026a0       $pdata$1$GifMakeMapObject  00000001800706a0     * CIL library *:* CIL module *
 0004:000026ac       $pdata$2$GifMakeMapObject  00000001800706ac     * CIL library *:* CIL module *
 0004:000026b8       $pdata$GifAddExtensionBlock 00000001800706b8     * CIL library *:* CIL module *
 0004:000026c4       $pdata$GifMakeSavedImage   00000001800706c4     * CIL library *:* CIL module *
 0004:000026d0       $pdata$GifQuantizeBuffer   00000001800706d0     * CIL library *:* CIL module *
 0004:000026dc       $pdata$0$GifQuantizeBuffer 00000001800706dc     * CIL library *:* CIL module *
 0004:000026e8       $pdata$1$GifQuantizeBuffer 00000001800706e8     * CIL library *:* CIL module *
 0004:000026f4       $pdata$SubdivColorMap      00000001800706f4     * CIL library *:* CIL module *
 0004:00002700       $pdata$SortCmpRtn          0000000180070700     * CIL library *:* CIL module *
 0004:0000270c       $pdata$load_exe_hook       000000018007070c     * CIL library *:* CIL module *
 0004:00002724       $pdata$??0bad_alloc@std@@QEAA@AEBV01@@Z 0000000180070724     libcpmt:xthrow.obj
 0004:00002730       $pdata$??_Gbad_alloc@std@@UEAAPEAXI@Z 0000000180070730     libcpmt:xthrow.obj
 0004:00002754       $pdata$malloc              0000000180070754     LIBCMT:malloc.obj
 0004:00002760       $pdata$__onexitinit        0000000180070760     LIBCMT:onexit.obj
 0004:0000276c       $pdata$_onexit             000000018007076c     LIBCMT:onexit.obj
 0004:00002778       $pdata$atexit              0000000180070778     LIBCMT:onexit.obj
 0004:00002784       $pdata$_purecall           0000000180070784     LIBCMT:purevirt.obj
 0004:00002790       $pdata$??2@YAPEAX_K@Z      0000000180070790     LIBCMT:new.obj
 0004:0000279c       $pdata$_vsnprintf_helper   000000018007079c     LIBCMT:vsnprnc.obj
 0004:000027a8       $pdata$_vsnprintf_s        00000001800707a8     LIBCMT:vsnprnc.obj
 0004:000027b4       $pdata$_vsnprintf_s_l      00000001800707b4     LIBCMT:vsnprnc.obj
 0004:000027c0       $pdata$free                00000001800707c0     LIBCMT:free.obj
 0004:000027cc       $pdata$__initstdio         00000001800707cc     LIBCMT:_file.obj
 0004:000027d8       $pdata$__endstdio          00000001800707d8     LIBCMT:_file.obj
 0004:000027e4       $pdata$_lock_file          00000001800707e4     LIBCMT:_file.obj
 0004:000027f0       $pdata$_lock_file2         00000001800707f0     LIBCMT:_file.obj
 0004:000027fc       $pdata$remove              00000001800707fc     LIBCMT:unlink.obj
 0004:00002808       $pdata$_wassert            0000000180070808     LIBCMT:wassert.obj
 0004:00002814       $pdata$swprintf            0000000180070814     LIBCMT:wassert.obj
 0004:0000282c       $pdata$_fsopen             000000018007082c     LIBCMT:fopen.obj
 0004:00002838       $pdata$fprintf             0000000180070838     LIBCMT:fprintf.obj
 0004:00002844       $pdata$rand                0000000180070844     LIBCMT:rand.obj
 0004:00002850       $pdata$srand               0000000180070850     LIBCMT:rand.obj
 0004:0000285c       $pdata$_vsnprintf          000000018007085c     LIBCMT:vsnprint.obj
 0004:00002868       $pdata$_vsnprintf_l        0000000180070868     LIBCMT:vsnprint.obj
 0004:00002880       $pdata$_getenv_helper_nolock 0000000180070880     LIBCMT:getenv.obj
 0004:0000288c       $pdata$getenv              000000018007088c     LIBCMT:getenv.obj
 0004:00002898       $pdata$??8type_info@@QEBA_NAEBV0@@Z 0000000180070898     LIBCMT:typinfo.obj
 0004:000028a4       $pdata$??_Gtype_info@@UEAAPEAXI@Z 00000001800708a4     LIBCMT:typinfo.obj
 0004:000028b0       $pdata$_vscprintf_helper   00000001800708b0     LIBCMT:vsprintf.obj
 0004:000028bc       $pdata$_fclose_nolock      00000001800708bc     LIBCMT:fclose.obj
 0004:000028c8       $pdata$fclose              00000001800708c8     LIBCMT:fclose.obj
 0004:000028d4       $pdata$realloc             00000001800708d4     LIBCMT:realloc.obj
 0004:000028e0       $pdata$_fflush_nolock      00000001800708e0     LIBCMT:fflush.obj
 0004:000028ec       $pdata$_flush              00000001800708ec     LIBCMT:fflush.obj
 0004:000028f8       $pdata$fflush              00000001800708f8     LIBCMT:fflush.obj
 0004:00002904       $pdata$flsall              0000000180070904     LIBCMT:fflush.obj
 0004:00002910       $pdata$ferror              0000000180070910     LIBCMT:feoferr.obj
 0004:0000291c       $pdata$_fwrite_nolock      000000018007091c     LIBCMT:fwrite.obj
 0004:00002928       $pdata$fwrite              0000000180070928     LIBCMT:fwrite.obj
 0004:00002934       $pdata$sprintf             0000000180070934     LIBCMT:sprintf.obj
 0004:00002940       $pdata$__copy_path_to_wide_string 0000000180070940     LIBCMT:crt0dat.obj
 0004:0000294c       $pdata$__crtCorExitProcess 000000018007094c     LIBCMT:crt0dat.obj
 0004:00002958       $pdata$__crtExitProcess    0000000180070958     LIBCMT:crt0dat.obj
 0004:00002964       $pdata$__freeCrtMemory     0000000180070964     LIBCMT:crt0dat.obj
 0004:00002970       $pdata$_amsg_exit          0000000180070970     LIBCMT:crt0dat.obj
 0004:0000297c       $pdata$_cinit              000000018007097c     LIBCMT:crt0dat.obj
 0004:00002988       $pdata$_init_pointers      0000000180070988     LIBCMT:crt0dat.obj
 0004:00002994       $pdata$_initterm           0000000180070994     LIBCMT:crt0dat.obj
 0004:000029a0       $pdata$_initterm_e         00000001800709a0     LIBCMT:crt0dat.obj
 0004:000029ac       $pdata$doexit              00000001800709ac     LIBCMT:crt0dat.obj
 0004:000029b8       $pdata$sscanf              00000001800709b8     LIBCMT:sscanf.obj
 0004:000029c4       $pdata$vscan_fn            00000001800709c4     LIBCMT:sscanf.obj
 0004:000029d0       $pdata$__raise_securityfailure 00000001800709d0     LIBCMT:gs_report.obj
 0004:000029dc       $pdata$__report_gsfailure  00000001800709dc     LIBCMT:gs_report.obj
 0004:000029e8       $pdata$__report_rangecheckfailure 00000001800709e8     LIBCMT:gs_report.obj
 0004:000029f4       $pdata$__report_securityfailure 00000001800709f4     LIBCMT:gs_report.obj
 0004:00002a00       $pdata$frexp               0000000180070a00     LIBCMT:frexp.obj
 0004:00002a0c       $pdata$??0_LocaleUpdate@@QEAA@PEAUlocaleinfo_struct@@@Z 0000000180070a0c     LIBCMT:atof.obj
 0004:00002a18       $pdata$_atof_l             0000000180070a18     LIBCMT:atof.obj
 0004:00002a24       $pdata$abort               0000000180070a24     LIBCMT:abort.obj
 0004:00002a30       $pdata$_gmtime64           0000000180070a30     LIBCMT:gmtime64.obj
 0004:00002a3c       $pdata$_gmtime64_s         0000000180070a3c     LIBCMT:gmtime64.obj
 0004:00002a48       $pdata$strerror            0000000180070a48     LIBCMT:strerror.obj
 0004:00002a54       $pdata$__doserrno          0000000180070a54     LIBCMT:dosmap.obj
 0004:00002a60       $pdata$_dosmaperr          0000000180070a60     LIBCMT:dosmap.obj
 0004:00002a6c       $pdata$_errno              0000000180070a6c     LIBCMT:dosmap.obj
 0004:00002a78       $pdata$_lseeki64           0000000180070a78     LIBCMT:lseeki64.obj
 0004:00002a84       $pdata$_lseeki64_nolock    0000000180070a84     LIBCMT:lseeki64.obj
 0004:00002a90       $pdata$__createFile        0000000180070a90     LIBCMT:wopen.obj
 0004:00002a9c       $pdata$_wsopen_nolock      0000000180070a9c     LIBCMT:wopen.obj
 0004:00002aa8       $pdata$_get_fmode          0000000180070aa8     LIBCMT:setmode.obj
 0004:00002ab4       $pdata$_setmode_nolock     0000000180070ab4     LIBCMT:setmode.obj
 0004:00002ac0       $pdata$calloc              0000000180070ac0     LIBCMT:calloc.obj
 0004:00002acc       $pdata$qsort               0000000180070acc     LIBCMT:qsort.obj
 0004:00002ad8       $pdata$4$qsort             0000000180070ad8     LIBCMT:qsort.obj
 0004:00002ae4       $pdata$5$qsort             0000000180070ae4     LIBCMT:qsort.obj
 0004:00002af0       $pdata$shortsort           0000000180070af0     LIBCMT:qsort.obj
 0004:00002afc       $pdata$2$shortsort         0000000180070afc     LIBCMT:qsort.obj
 0004:00002b08       $pdata$3$shortsort         0000000180070b08     LIBCMT:qsort.obj
 0004:00002b14       $pdata$_stricmp            0000000180070b14     LIBCMT:stricmp.obj
 0004:00002b20       $pdata$_stricmp_l          0000000180070b20     LIBCMT:stricmp.obj
 0004:00002b2c       $pdata$_CRT_INIT           0000000180070b2c     LIBCMT:dllcrt0.obj
 0004:00002b38       $pdata$_DllMainCRTStartup  0000000180070b38     LIBCMT:dllcrt0.obj
 0004:00002b44       $pdata$__DllMainCRTStartup 0000000180070b44     LIBCMT:dllcrt0.obj
 0004:00002b5c       $pdata$_CxxThrowException  0000000180070b5c     LIBCMT:throw.obj
 0004:00002b68       $pdata$?_GetEstablisherFrame@@YAPEA_KPEA_KPEAU_xDISPATCHER_CONTEXT@@PEBU_s_FuncInfo@@0@Z 0000000180070b68     LIBCMT:trnsctrl.obj
 0004:00002b74       $pdata$?_GetRangeOfTrysToCheck@@YAPEBU_s_TryBlockMapEntry@@PEA_KPEBU_s_FuncInfo@@HHPEAI2PEAU_xDISPATCHER_CONTEXT@@@Z 0000000180070b74     LIBCMT:trnsctrl.obj
 0004:00002b80       $pdata$?__FrameUnwindToEmptyState@@YAXPEA_KPEAU_xDISPATCHER_CONTEXT@@PEBU_s_FuncInfo@@@Z 0000000180070b80     LIBCMT:trnsctrl.obj
 0004:00002b8c       $pdata$?__SehTransFilter@@YAHPEAU_EXCEPTION_POINTERS@@PEAUEHExceptionRecord@@PEA_KPEAU_CONTEXT@@PEAU_xDISPATCHER_CONTEXT@@PEBU_s_FuncInfo@@PEAH@Z 0000000180070b8c     LIBCMT:trnsctrl.obj
 0004:00002b98       $pdata$_CallSETranslator   0000000180070b98     LIBCMT:trnsctrl.obj
 0004:00002ba4       $pdata$_CreateFrameInfo    0000000180070ba4     LIBCMT:trnsctrl.obj
 0004:00002bb0       $pdata$_FindAndUnlinkFrame 0000000180070bb0     LIBCMT:trnsctrl.obj
 0004:00002bbc       $pdata$_GetImageBase       0000000180070bbc     LIBCMT:trnsctrl.obj
 0004:00002bc8       $pdata$_GetThrowImageBase  0000000180070bc8     LIBCMT:trnsctrl.obj
 0004:00002bd4       $pdata$_IsExceptionObjectToBeDestroyed 0000000180070bd4     LIBCMT:trnsctrl.obj
 0004:00002be0       $pdata$_SetImageBase       0000000180070be0     LIBCMT:trnsctrl.obj
 0004:00002bec       $pdata$_SetThrowImageBase  0000000180070bec     LIBCMT:trnsctrl.obj
 0004:00002bf8       $pdata$_UnwindNestedFrames 0000000180070bf8     LIBCMT:trnsctrl.obj
 0004:00002c04       $pdata$__CxxFrameHandler3  0000000180070c04     LIBCMT:trnsctrl.obj
 0004:00002c10       $pdata$??0exception@std@@QEAA@AEBQEBD@Z 0000000180070c10     LIBCMT:stdexcpt.obj
 0004:00002c1c       $pdata$??0exception@std@@QEAA@AEBV01@@Z 0000000180070c1c     LIBCMT:stdexcpt.obj
 0004:00002c28       $pdata$??4exception@std@@QEAAAEAV01@AEBV01@@Z 0000000180070c28     LIBCMT:stdexcpt.obj
 0004:00002c34       $pdata$??_Gexception@std@@UEAAPEAXI@Z 0000000180070c34     LIBCMT:stdexcpt.obj
 0004:00002c40       $pdata$?_Copy_str@exception@std@@AEAAXPEBD@Z 0000000180070c40     LIBCMT:stdexcpt.obj
 0004:00002c4c       $pdata$?_Tidy@exception@std@@AEAAXXZ 0000000180070c4c     LIBCMT:stdexcpt.obj
 0004:00002c58       $pdata$__isa_available_init 0000000180070c58     LIBCMT:cpu_disp.obj
 0004:00002c64       $pdata$_callnewh           0000000180070c64     LIBCMT:handler.obj
 0004:00002c70       $pdata$_FF_MSGBANNER       0000000180070c70     LIBCMT:crt0msg.obj
 0004:00002c7c       $pdata$_NMSG_WRITE         0000000180070c7c     LIBCMT:crt0msg.obj
 0004:00002c88       $pdata$_heap_init          0000000180070c88     LIBCMT:heapinit.obj
 0004:00002c94       $pdata$?_inconsistency@@YAXXZ 0000000180070c94     LIBCMT:hooks.obj
 0004:00002ca0       $pdata$?terminate@@YAXXZ   0000000180070ca0     LIBCMT:hooks.obj
 0004:00002cac       $pdata$_initp_eh_hooks     0000000180070cac     LIBCMT:hooks.obj
 0004:00002cb8       $pdata$__C_specific_handler 0000000180070cb8     LIBCMT:chandler.obj
 0004:00002cc4       $pdata$_msize              0000000180070cc4     LIBCMT:msize.obj
 0004:00002cd0       $pdata$_calloc_crt         0000000180070cd0     LIBCMT:crtheap.obj
 0004:00002cdc       $pdata$_malloc_crt         0000000180070cdc     LIBCMT:crtheap.obj
 0004:00002ce8       $pdata$_realloc_crt        0000000180070ce8     LIBCMT:crtheap.obj
 0004:00002cf4       $pdata$_recalloc_crt       0000000180070cf4     LIBCMT:crtheap.obj
 0004:00002d00       $pdata$_clrfp              0000000180070d00     LIBCMT:fpctrl.obj
 0004:00002d0c       $pdata$_ctrlfp             0000000180070d0c     LIBCMT:fpctrl.obj
 0004:00002d18       $pdata$_set_statfp         0000000180070d18     LIBCMT:fpctrl.obj
 0004:00002d24       $pdata$_statfp             0000000180070d24     LIBCMT:fpctrl.obj
 0004:00002d30       $pdata$_call_matherr       0000000180070d30     LIBCMT:libm_error.obj
 0004:00002d3c       $pdata$_exception_enabled  0000000180070d3c     LIBCMT:libm_error.obj
 0004:00002d48       $pdata$_handle_error       0000000180070d48     LIBCMT:libm_error.obj
 0004:00002d54       $pdata$_call_reportfault   0000000180070d54     LIBCMT:invarg.obj
 0004:00002d60       $pdata$_invalid_parameter  0000000180070d60     LIBCMT:invarg.obj
 0004:00002d6c       $pdata$_invalid_parameter_noinfo 0000000180070d6c     LIBCMT:invarg.obj
 0004:00002d78       $pdata$_invoke_watson      0000000180070d78     LIBCMT:invarg.obj
 0004:00002d84       $pdata$_flsbuf             0000000180070d84     LIBCMT:_flsbuf.obj
 0004:00002d90       $pdata$_output_l           0000000180070d90     LIBCMT:output.obj
 0004:00002d9c       $pdata$_output_s_l         0000000180070d9c     LIBCMT:outputs.obj
 0004:00002da8       $pdata$write_char          0000000180070da8     LIBCMT:outputs.obj
 0004:00002da8       $pdata$write_char          0000000180070da8     LIBCMT:outputs.obj
 0004:00002db4       $pdata$write_multi_char    0000000180070db4     LIBCMT:outputs.obj
 0004:00002db4       $pdata$write_multi_char    0000000180070db4     LIBCMT:outputs.obj
 0004:00002dc0       $pdata$write_string        0000000180070dc0     LIBCMT:outputs.obj
 0004:00002dc0       $pdata$write_string        0000000180070dc0     LIBCMT:outputs.obj
 0004:00002dd8       $pdata$_fcloseall          0000000180070dd8     LIBCMT:closeall.obj
 0004:00002de4       $pdata$_lock               0000000180070de4     LIBCMT:mlock.obj
 0004:00002df0       $pdata$_mtdeletelocks      0000000180070df0     LIBCMT:mlock.obj
 0004:00002dfc       $pdata$_mtinitlocknum      0000000180070dfc     LIBCMT:mlock.obj
 0004:00002e08       $pdata$_mtinitlocks        0000000180070e08     LIBCMT:mlock.obj
 0004:00002e14       $pdata$_wremove            0000000180070e14     LIBCMT:wunlink.obj
 0004:00002e20       $pdata$memcpy_s            0000000180070e20     LIBCMT:memcpy_s.obj
 0004:00002e2c       $pdata$wcscat_s            0000000180070e2c     LIBCMT:wcscat_s.obj
 0004:00002e38       $pdata$wcscpy_s            0000000180070e38     LIBCMT:wcscpy_s.obj
 0004:00002e44       $pdata$wcsncat_s           0000000180070e44     LIBCMT:wcsncat_s.obj
 0004:00002e50       $pdata$_set_error_mode     0000000180070e50     LIBCMT:errmode.obj
 0004:00002e5c       $pdata$_itow_s             0000000180070e5c     LIBCMT:xtows.obj
 0004:00002e68       $pdata$xtow_s              0000000180070e68     LIBCMT:xtows.obj
 0004:00002e74       $pdata$setvbuf             0000000180070e74     LIBCMT:setvbuf.obj
 0004:00002e80       $pdata$fwprintf            0000000180070e80     LIBCMT:fwprintf.obj
 0004:00002e8c       $pdata$_vswprintf_c_l      0000000180070e8c     LIBCMT:vswprnc.obj
 0004:00002e98       $pdata$_vswprintf_helper   0000000180070e98     LIBCMT:vswprnc.obj
 0004:00002ea4       $pdata$raise               0000000180070ea4     LIBCMT:winsig.obj
 0004:00002eb0       $pdata$__crtMessageBoxW    0000000180070eb0     LIBCMT:crtmboxw.obj
 0004:00002ebc       $pdata$__GSHandlerCheck    0000000180070ebc     LIBCMT:gshandler.obj
 0004:00002ec8       $pdata$__GSHandlerCheckCommon 0000000180070ec8     LIBCMT:gshandler.obj
 0004:00002ed4       $pdata$_getstream          0000000180070ed4     LIBCMT:stream.obj
 0004:00002ee0       $pdata$_openfile           0000000180070ee0     LIBCMT:_open.obj
 0004:00002f1c       $pdata$_fileno             0000000180070f1c     LIBCMT:fileno.obj
 0004:00002f28       $pdata$_ftbuf              0000000180070f28     LIBCMT:_sftbuf.obj
 0004:00002f34       $pdata$_stbuf              0000000180070f34     LIBCMT:_sftbuf.obj
 0004:00002f40       $pdata$_ioinit             0000000180070f40     LIBCMT:ioinit.obj
 0004:00002f4c       $pdata$_ioterm             0000000180070f4c     LIBCMT:ioinit.obj
 0004:00002f58       $pdata$_freefls            0000000180070f58     LIBCMT:tidtable.obj
 0004:00002f64       $pdata$_freeptd            0000000180070f64     LIBCMT:tidtable.obj
 0004:00002f70       $pdata$_getptd             0000000180070f70     LIBCMT:tidtable.obj
 0004:00002f7c       $pdata$_getptd_noexit      0000000180070f7c     LIBCMT:tidtable.obj
 0004:00002f88       $pdata$_initptd            0000000180070f88     LIBCMT:tidtable.obj
 0004:00002f94       $pdata$_mtinit             0000000180070f94     LIBCMT:tidtable.obj
 0004:00002fa0       $pdata$_mtterm             0000000180070fa0     LIBCMT:tidtable.obj
 0004:00002fac       $pdata$strcpy_s            0000000180070fac     LIBCMT:strcpy_s.obj
 0004:00002fb8       $pdata$__wtomb_environ     0000000180070fb8     LIBCMT:wtombenv.obj
 0004:00002fc4       $pdata$_mbsnbicoll_l       0000000180070fc4     LIBCMT:mbsnbico.obj
 0004:00002fdc       $pdata$?_Type_info_dtor@type_info@@CAXPEAV1@@Z 0000000180070fdc     LIBCMT:typname.obj
 0004:00002fe8       $pdata$_close              0000000180070fe8     LIBCMT:close.obj
 0004:00002ff4       $pdata$_close_nolock       0000000180070ff4     LIBCMT:close.obj
 0004:00003000       $pdata$_freebuf            0000000180071000     LIBCMT:_freebuf.obj
 0004:0000300c       $pdata$_commit             000000018007100c     LIBCMT:commit.obj
 0004:00003018       $pdata$_write              0000000180071018     LIBCMT:write.obj
 0004:00003024       $pdata$_write_nolock       0000000180071024     LIBCMT:write.obj
 0004:00003030       $pdata$_RTC_Initialize     0000000180071030     LIBCMT:initsect.obj
 0004:0000303c       $pdata$_RTC_Terminate      000000018007103c     LIBCMT:initsect.obj
 0004:00003048       $pdata$__crtCaptureCurrentContext 0000000180071048     LIBCMT:winapisupp.obj
 0004:00003054       $pdata$__crtCapturePreviousContext 0000000180071054     LIBCMT:winapisupp.obj
 0004:00003060       $pdata$__crtInitializeCriticalSectionEx 0000000180071060     LIBCMT:winapisupp.obj
 0004:0000306c       $pdata$__crtIsPackagedApp  000000018007106c     LIBCMT:winapisupp.obj
 0004:00003078       $pdata$__crtLoadWinApiPointers 0000000180071078     LIBCMT:winapisupp.obj
 0004:00003084       $pdata$__crtTerminateProcess 0000000180071084     LIBCMT:winapisupp.obj
 0004:00003090       $pdata$__crtUnhandledException 0000000180071090     LIBCMT:winapisupp.obj
 0004:0000309c       $pdata$_IsNonwritableInCurrentImage 000000018007109c     LIBCMT:pesect.obj
 0004:000030a8       $pdata$_initp_misc_cfltcvt_tab 00000001800710a8     LIBCMT:cmiscdat.obj
 0004:000030b4       $pdata$__initmbctable      00000001800710b4     LIBCMT:mbctype.obj
 0004:000030c0       $pdata$?getSystemCP@@YAHH@Z 00000001800710c0     LIBCMT:mbctype.obj
 0004:000030cc       $pdata$?setSBCS@@YAXPEAUthreadmbcinfostruct@@@Z 00000001800710cc     LIBCMT:mbctype.obj
 0004:000030d8       $pdata$?setSBUpLow@@YAXPEAUthreadmbcinfostruct@@@Z 00000001800710d8     LIBCMT:mbctype.obj
 0004:000030e4       $pdata$__updatetmbcinfo    00000001800710e4     LIBCMT:mbctype.obj
 0004:000030f0       $pdata$_setmbcp            00000001800710f0     LIBCMT:mbctype.obj
 0004:000030fc       $pdata$_setmbcp_nolock     00000001800710fc     LIBCMT:mbctype.obj
 0004:00003108       $pdata$__check_float_string 0000000180071108     LIBCMT:input.obj
 0004:00003114       $pdata$_inc                0000000180071114     LIBCMT:input.obj
 0004:00003120       $pdata$_input_l            0000000180071120     LIBCMT:input.obj
 0004:0000312c       $pdata$_except1            000000018007112c     LIBCMT:fpexcept.obj
 0004:00003138       $pdata$_handle_exc         0000000180071138     LIBCMT:fpexcept.obj
 0004:00003144       $pdata$_handle_qnan1       0000000180071144     LIBCMT:fpexcept.obj
 0004:00003150       $pdata$_raise_exc          0000000180071150     LIBCMT:fpexcept.obj
 0004:0000315c       $pdata$_raise_exc_ex       000000018007115c     LIBCMT:fpexcept.obj
 0004:00003168       $pdata$_set_errno_from_matherr 0000000180071168     LIBCMT:fpexcept.obj
 0004:00003174       $pdata$_umatherr           0000000180071174     LIBCMT:fpexcept.obj
 0004:00003180       $pdata$_fltin2             0000000180071180     LIBCMT:cfin.obj
 0004:0000318c       $pdata$__strgtold12_l      000000018007118c     LIBCMT:strgtold.obj
 0004:00003198       $pdata$__freetlocinfo      0000000180071198     LIBCMT:localref.obj
 0004:000031a4       $pdata$__updatetlocinfo    00000001800711a4     LIBCMT:localref.obj
 0004:000031b0       $pdata$_updatetlocinfoEx_nolock 00000001800711b0     LIBCMT:localref.obj
 0004:000031bc       $pdata$_isctype_l          00000001800711bc     LIBCMT:isctype.obj
 0004:000031c8       $pdata$__getgmtimebuf      00000001800711c8     LIBCMT:gmtime.obj
 0004:000031d4       $pdata$__lock_fhandle      00000001800711d4     LIBCMT:osfinfo.obj
 0004:000031e0       $pdata$_alloc_osfhnd       00000001800711e0     LIBCMT:osfinfo.obj
 0004:000031ec       $pdata$_free_osfhnd        00000001800711ec     LIBCMT:osfinfo.obj
 0004:000031f8       $pdata$_get_osfhandle      00000001800711f8     LIBCMT:osfinfo.obj
 0004:00003204       $pdata$_set_osfhnd         0000000180071204     LIBCMT:osfinfo.obj
 0004:00003210       $pdata$_chsize_nolock      0000000180071210     LIBCMT:chsize.obj
 0004:0000321c       $pdata$_read               000000018007121c     LIBCMT:read.obj
 0004:00003228       $pdata$_read_nolock        0000000180071228     LIBCMT:read.obj
 0004:00003234       $pdata$_calloc_impl        0000000180071234     LIBCMT:calloc_impl.obj
 0004:00003240       $pdata$_tolower_l          0000000180071240     LIBCMT:tolower.obj
 0004:0000324c       $pdata$_locterm            000000018007124c     LIBCMT:wsetloca.obj
 0004:00003258       $pdata$_XcptFilter         0000000180071258     LIBCMT:winxfltr.obj
 0004:00003264       $pdata$_setargv            0000000180071264     LIBCMT:stdargv.obj
 0004:00003270       $pdata$parse_cmdline       0000000180071270     LIBCMT:stdargv.obj
 0004:0000327c       $pdata$_setenvp            000000018007127c     LIBCMT:stdenvp.obj
 0004:00003288       $pdata$__security_init_cookie 0000000180071288     LIBCMT:gs_support.obj
 0004:00003294       $pdata$__crtGetEnvironmentStringsA 0000000180071294     LIBCMT:a_env.obj
 0004:000032a0       $pdata$__DestructExceptionObject 00000001800712a0     LIBCMT:frame.obj
 0004:000032ac       $pdata$??0bad_exception@std@@QEAA@AEBV01@@Z 00000001800712ac     LIBCMT:frame.obj
 0004:000032b8       $pdata$??_Gbad_exception@std@@UEAAPEAXI@Z 00000001800712b8     LIBCMT:frame.obj
 0004:000032c4       $pdata$?CatchIt@@YAXPEAUEHExceptionRecord@@PEA_KPEAU_CONTEXT@@PEAU_xDISPATCHER_CONTEXT@@PEBU_s_FuncInfo@@PEBU_s_HandlerType@@PEBU_s_CatchableType@@PEBU_s_TryBlockMapEntry@@H1EE@Z 00000001800712c4     LIBCMT:frame.obj
 0004:000032d0       $pdata$?FindHandler@@YAXPEAUEHExceptionRecord@@PEA_KPEAU_CONTEXT@@PEAU_xDISPATCHER_CONTEXT@@PEBU_s_FuncInfo@@EH1@Z 00000001800712d0     LIBCMT:frame.obj
 0004:000032dc       $pdata$?FindHandlerForForeignException@@YAXPEAUEHExceptionRecord@@PEA_KPEAU_CONTEXT@@PEAU_xDISPATCHER_CONTEXT@@PEBU_s_FuncInfo@@HH1@Z 00000001800712dc     LIBCMT:frame.obj
 0004:000032e8       $pdata$?IsInExceptionSpec@@YAEPEAUEHExceptionRecord@@PEBU_s_ESTypeList@@@Z 00000001800712e8     LIBCMT:frame.obj
 0004:000032f4       $pdata$__BuildCatchObject  00000001800712f4     LIBCMT:frame.obj
 0004:00003300       $pdata$__BuildCatchObjectHelper 0000000180071300     LIBCMT:frame.obj
 0004:0000330c       $pdata$__CxxCallCatchBlock 000000018007130c     LIBCMT:frame.obj
 0004:00003318       $pdata$__FrameUnwindFilter 0000000180071318     LIBCMT:frame.obj
 0004:00003324       $pdata$__FrameUnwindToState 0000000180071324     LIBCMT:frame.obj
 0004:00003330       $pdata$__InternalCxxFrameHandler 0000000180071330     LIBCMT:frame.obj
 0004:0000333c       $pdata$__TypeMatch         000000018007133c     LIBCMT:frame.obj
 0004:00003348       $pdata$?__GetCurrentState@@YAHPEA_KPEAU_xDISPATCHER_CONTEXT@@PEBU_s_FuncInfo@@@Z 0000000180071348     LIBCMT:ehstate.obj
 0004:00003354       $pdata$?__GetUnwindTryBlock@@YAHPEA_KPEAU_xDISPATCHER_CONTEXT@@PEBU_s_FuncInfo@@@Z 0000000180071354     LIBCMT:ehstate.obj
 0004:00003360       $pdata$?__SetUnwindTryBlock@@YAXPEA_KPEAU_xDISPATCHER_CONTEXT@@PEBU_s_FuncInfo@@H@Z 0000000180071360     LIBCMT:ehstate.obj
 0004:0000336c       $pdata$?__StateFromIp@@YAHPEBU_s_FuncInfo@@PEAU_xDISPATCHER_CONTEXT@@_J@Z 000000018007136c     LIBCMT:ehstate.obj
 0004:00003378       $pdata$_cfltcvt            0000000180071378     LIBCMT:cvt.obj
 0004:00003384       $pdata$_cfltcvt_l          0000000180071384     LIBCMT:cvt.obj
 0004:00003390       $pdata$_cftoa_l            0000000180071390     LIBCMT:cvt.obj
 0004:0000339c       $pdata$_cftoe2_l           000000018007139c     LIBCMT:cvt.obj
 0004:000033a8       $pdata$_cftoe_l            00000001800713a8     LIBCMT:cvt.obj
 0004:000033b4       $pdata$_cftof2_l           00000001800713b4     LIBCMT:cvt.obj
 0004:000033c0       $pdata$_cftof_l            00000001800713c0     LIBCMT:cvt.obj
 0004:000033cc       $pdata$_cftog_l            00000001800713cc     LIBCMT:cvt.obj
 0004:000033d8       $pdata$_cropzeros_l        00000001800713d8     LIBCMT:cvt.obj
 0004:000033e4       $pdata$_fassign_l          00000001800713e4     LIBCMT:cvt.obj
 0004:000033f0       $pdata$_forcdecpt_l        00000001800713f0     LIBCMT:cvt.obj
 0004:000033fc       $pdata$wcsncpy_s           00000001800713fc     LIBCMT:wcsncpy_s.obj
 0004:00003408       $pdata$_recalloc           0000000180071408     LIBCMT:recalloc.obj
 0004:00003414       $pdata$GetTableIndexFromLocaleName 0000000180071414     LIBCMT:winapinls.obj
 0004:00003420       $pdata$__crtCompareStringEx 0000000180071420     LIBCMT:winapinls.obj
 0004:0000342c       $pdata$__crtDownlevelLocaleNameToLCID 000000018007142c     LIBCMT:winapinls.obj
 0004:00003438       $pdata$__crtLCMapStringEx  0000000180071438     LIBCMT:winapinls.obj
 0004:00003450       $pdata$_isatty             0000000180071450     LIBCMT:isatty.obj
 0004:0000345c       $pdata$_getbuf             000000018007145c     LIBCMT:_getbuf.obj
 0004:00003468       $pdata$_isleadbyte_l       0000000180071468     LIBCMT:_wctype.obj
 0004:00003474       $pdata$isleadbyte          0000000180071474     LIBCMT:_wctype.obj
 0004:00003480       $pdata$_wctomb_s_l         0000000180071480     LIBCMT:wctomb.obj
 0004:0000348c       $pdata$wctomb_s            000000018007148c     LIBCMT:wctomb.obj
 0004:00003498       $pdata$_woutput_l          0000000180071498     LIBCMT:woutput.obj
 0004:000034a4       $pdata$write_char          00000001800714a4     LIBCMT:woutput.obj
 0004:000034b0       $pdata$write_multi_char    00000001800714b0     LIBCMT:woutput.obj
 0004:000034bc       $pdata$write_string        00000001800714bc     LIBCMT:woutput.obj
 0004:000034c8       $pdata$_sopen_helper       00000001800714c8     LIBCMT:open.obj
 0004:000034d4       $pdata$_sopen_nolock       00000001800714d4     LIBCMT:open.obj
 0004:000034e0       $pdata$_sopen_s            00000001800714e0     LIBCMT:open.obj
 0004:000034ec       $pdata$_mbsnbcmp_l         00000001800714ec     LIBCMT:mbsnbcmp.obj
 0004:000034f8       $pdata$_mbsnbicmp_l        00000001800714f8     LIBCMT:mbsnbicm.obj
 0004:00003504       $pdata$__crtsetenv         0000000180071504     LIBCMT:setenv.obj
 0004:00003510       $pdata$_strnicoll_l        0000000180071510     LIBCMT:strnicol.obj
 0004:0000351c       $pdata$?__crtCompareStringA_stat@@YAHPEAUlocaleinfo_struct@@PEB_WKPEBDH2HH@Z 000000018007151c     LIBCMT:a_cmp.obj
 0004:00003528       $pdata$__crtCompareStringA 0000000180071528     LIBCMT:a_cmp.obj
 0004:00003534       $pdata$_mbtowc_l           0000000180071534     LIBCMT:mbtowc.obj
 0004:00003540       $pdata$_putwch_nolock      0000000180071540     LIBCMT:putwch.obj
 0004:00003558       $pdata$?__crtLCMapStringA_stat@@YAHPEAUlocaleinfo_struct@@PEB_WKPEBDHPEADHHH@Z 0000000180071558     LIBCMT:a_map.obj
 0004:00003564       $pdata$__crtLCMapStringA   0000000180071564     LIBCMT:a_map.obj
 0004:00003570       $pdata$?__crtGetStringTypeA_stat@@YAHPEAUlocaleinfo_struct@@KPEBDHPEAGHH@Z 0000000180071570     LIBCMT:a_str.obj
 0004:0000357c       $pdata$__crtGetStringTypeA 000000018007157c     LIBCMT:a_str.obj
 0004:00003588       $pdata$_filbuf             0000000180071588     LIBCMT:_filbuf.obj
 0004:00003594       $pdata$_ungetc_nolock      0000000180071594     LIBCMT:ungetc.obj
 0004:000035a0       $pdata$isdigit             00000001800715a0     LIBCMT:_ctype.obj
 0004:000035ac       $pdata$isspace             00000001800715ac     LIBCMT:_ctype.obj
 0004:000035b8       $pdata$isxdigit            00000001800715b8     LIBCMT:_ctype.obj
 0004:000035c4       $pdata$_ld12tod            00000001800715c4     LIBCMT:intrncvt.obj
 0004:000035d0       $pdata$_ld12tof            00000001800715d0     LIBCMT:intrncvt.obj
 0004:000035dc       $pdata$__mtold12           00000001800715dc     LIBCMT:mantold.obj
 0004:000035e8       $pdata$__free_lconv_mon    00000001800715e8     LIBCMT:initmon.obj
 0004:000035f4       $pdata$__free_lconv_num    00000001800715f4     LIBCMT:initnum.obj
 0004:00003600       $pdata$__free_lc_time      0000000180071600     LIBCMT:inittime.obj
 0004:00003618       $pdata$?x_ismbbtype_l@@YAHPEAUlocaleinfo_struct@@IHH@Z 0000000180071618     LIBCMT:ismbbyte.obj
 0004:00003630       $pdata$strrchr             0000000180071630     LIBCMT:strrchr.obj
 0004:0000363c       $pdata$_fptostr            000000018007163c     LIBCMT:_fptostr.obj
 0004:00003648       $pdata$__crt_atoflt_l      0000000180071648     LIBCMT:atodbl.obj
 0004:00003654       $pdata$_atodbl_l           0000000180071654     LIBCMT:atodbl.obj
 0004:00003660       $pdata$__dtold             0000000180071660     LIBCMT:cfout.obj
 0004:0000366c       $pdata$_fltout2            000000018007166c     LIBCMT:cfout.obj
 0004:00003678       $pdata$_fputwc_nolock      0000000180071678     LIBCMT:fputwc.obj
 0004:00003690       $pdata$_strnicmp           0000000180071690     LIBCMT:strnicmp.obj
 0004:0000369c       $pdata$_strnicmp_l         000000018007169c     LIBCMT:strnicmp.obj
 0004:000036a8       $pdata$_strdup             00000001800716a8     LIBCMT:strdup.obj
 0004:000036b4       $pdata$_mbschr_l           00000001800716b4     LIBCMT:mbschr.obj
 0004:000036c0       $pdata$__termconout        00000001800716c0     LIBCMT:initcon.obj
 0004:000036cc       $pdata$__initconout        00000001800716cc     LIBCMT:initcon.obj
 0004:000036d8       $pdata$$I10_OUTPUT         00000001800716d8     LIBCMT:x10fout.obj
 0004:000036e4       $pdata$_flswbuf            00000001800716e4     LIBCMT:_flswbuf.obj
 0004:000036f0       $pdata$strchr              00000001800716f0     LIBCMT:strchr.obj
 0004:000036fc       $pdata$__delayLoadHelper2  00000001800716fc     DelayImp:delayhlp.obj
 0004:00003708       $pdata$__GSHandlerCheck_EH 0000000180071708     LIBCMT:gshandlereh.obj
 0004:00003720       $pdata$floor               0000000180071720     LIBCMT:floor.obj
 0004:0000372c       $pdata$?dtor$0@?0??strbuffersize@cimg@cimg_library@@YAPEBDK@Z@4HA 000000018007172c     * CIL library *:* CIL module *
 0004:00003738       $pdata$?catch$0@?0???0?$CImg@D@cimg_library@@QEAA@IIII@Z@4HA 0000000180071738     * CIL library *:* CIL module *
 0004:00003744       $pdata$?catch$0@?0??assign@?$CImg@D@cimg_library@@QEAAAEAU12@IIII@Z@4HA 0000000180071744     * CIL library *:* CIL module *
 0004:00003750       $pdata$_onexit$fin$0       0000000180071750     LIBCMT:onexit.obj
 0004:0000375c       $pdata$fwprintf$fin$0      000000018007175c     LIBCMT:fopen.obj
 0004:0000375c       $pdata$_fsopen$fin$0       000000018007175c     LIBCMT:fopen.obj
 0004:00003768       $pdata$fprintf$fin$0       0000000180071768     LIBCMT:fprintf.obj
 0004:00003774       $pdata$getenv$fin$0        0000000180071774     LIBCMT:getenv.obj
 0004:00003780       $pdata$fflush$fin$0        0000000180071780     LIBCMT:fflush.obj
 0004:00003780       $pdata$fclose$fin$0        0000000180071780     LIBCMT:fflush.obj
 0004:0000378c       $pdata$flsall$fin$0        000000018007178c     LIBCMT:fflush.obj
 0004:00003798       $pdata$flsall$fin$1        0000000180071798     LIBCMT:fflush.obj
 0004:000037a4       $pdata$fwrite$fin$0        00000001800717a4     LIBCMT:fwrite.obj
 0004:000037b0       $pdata$doexit$fin$0        00000001800717b0     LIBCMT:crt0dat.obj
 0004:000037bc       $pdata$_CRT_INIT$fin$0     00000001800717bc     LIBCMT:dllcrt0.obj
 0004:000037c8       $pdata$__DllMainCRTStartup$filt$0 00000001800717c8     LIBCMT:dllcrt0.obj
 0004:000037d4       $pdata$_CallSETranslator$filt$0 00000001800717d4     LIBCMT:trnsctrl.obj
 0004:000037e0       $pdata$_ctrlfp$filt$0      00000001800717e0     LIBCMT:fpctrl.obj
 0004:000037ec       $pdata$_mtinitlocknum$fin$0 00000001800717ec     LIBCMT:mlock.obj
 0004:000037f8       $pdata$setvbuf$fin$0       00000001800717f8     LIBCMT:setvbuf.obj
 0004:00003804       $pdata$raise$fin$0         0000000180071804     LIBCMT:winsig.obj
 0004:00003810       $pdata$_fcloseall$fin$0    0000000180071810     LIBCMT:stream.obj
 0004:00003810       $pdata$_getstream$fin$0    0000000180071810     LIBCMT:stream.obj
 0004:0000381c       $pdata$_ioinit$fin$0       000000018007181c     LIBCMT:ioinit.obj
 0004:00003828       $pdata$_freefls$fin$1      0000000180071828     LIBCMT:tidtable.obj
 0004:00003828       $pdata$_initptd$fin$1      0000000180071828     LIBCMT:tidtable.obj
 0004:00003834       $pdata$_freefls$fin$0      0000000180071834     LIBCMT:tidtable.obj
 0004:00003834       $pdata$_initptd$fin$0      0000000180071834     LIBCMT:tidtable.obj
 0004:00003840       $pdata$?fin$0@?0??_Type_info_dtor@type_info@@CAXPEAV1@@Z@4HA 0000000180071840     LIBCMT:typname.obj
 0004:0000384c       $pdata$_commit$fin$0       000000018007184c     LIBCMT:close.obj
 0004:0000384c       $pdata$_close$fin$0        000000018007184c     LIBCMT:close.obj
 0004:00003858       $pdata$_IsNonwritableInCurrentImage$filt$0 0000000180071858     LIBCMT:pesect.obj
 0004:00003864       $pdata$__updatetmbcinfo$fin$0 0000000180071864     LIBCMT:mbctype.obj
 0004:00003864       $pdata$_setmbcp$fin$0      0000000180071864     LIBCMT:mbctype.obj
 0004:00003870       $pdata$__lock_fhandle$fin$0 0000000180071870     LIBCMT:osfinfo.obj
 0004:0000387c       $pdata$_alloc_osfhnd$fin$0 000000018007187c     LIBCMT:osfinfo.obj
 0004:00003888       $pdata$_alloc_osfhnd$fin$1 0000000180071888     LIBCMT:osfinfo.obj
 0004:00003894       $pdata$_lseeki64$fin$0     0000000180071894     LIBCMT:read.obj
 0004:00003894       $pdata$_read$fin$0         0000000180071894     LIBCMT:read.obj
 0004:00003894       $pdata$_write$fin$0        0000000180071894     LIBCMT:read.obj
 0004:000038a0       $pdata$__updatetlocinfo$fin$0 00000001800718a0     LIBCMT:wsetloca.obj
 0004:000038a0       $pdata$_locterm$fin$0      00000001800718a0     LIBCMT:wsetloca.obj
 0004:000038ac       $pdata$__CxxCallCatchBlock$filt$0 00000001800718ac     LIBCMT:frame.obj
 0004:000038b8       $pdata$__CxxCallCatchBlock$fin$1 00000001800718b8     LIBCMT:frame.obj
 0004:000038c4       $pdata$__DestructExceptionObject$filt$0 00000001800718c4     LIBCMT:frame.obj
 0004:000038d0       $pdata$__FrameUnwindToState$filt$0 00000001800718d0     LIBCMT:frame.obj
 0004:000038dc       $pdata$__FrameUnwindToState$fin$1 00000001800718dc     LIBCMT:frame.obj
 0004:000038e8       $pdata$_sopen_helper$fin$0 00000001800718e8     LIBCMT:open.obj
 0005:00000060       $R000000                   0000000180072060     * linker generated manifest res *

 Exports

  ordinal    name

        1    _register_lwip_encoder_
        2    png_access_version_number
        3    png_benign_error
        4    png_build_grayscale_palette
        5    png_calloc
        6    png_chunk_warning
        7    png_convert_from_struct_tm
        8    png_convert_from_time_t
        9    png_convert_to_rfc1123
       10    png_convert_to_rfc1123_buffer
       11    png_create_info_struct
       12    png_create_write_struct
       13    png_create_write_struct_2
       14    png_data_freer
       15    png_destroy_info_struct
       16    png_destroy_write_struct
       17    png_error
       18    png_free
       19    png_free_data
       20    png_free_default
       21    png_get_IHDR
       22    png_get_PLTE
       23    png_get_bKGD
       24    png_get_bit_depth
       25    png_get_cHRM
       26    png_get_cHRM_XYZ
       27    png_get_cHRM_XYZ_fixed
       28    png_get_cHRM_fixed
       29    png_get_channels
       30    png_get_chunk_cache_max
       31    png_get_chunk_malloc_max
       32    png_get_color_type
       33    png_get_compression_buffer_size
       34    png_get_compression_type
       35    png_get_copyright
       36    png_get_current_pass_number
       37    png_get_current_row_number
       38    png_get_error_ptr
       39    png_get_filter_type
       40    png_get_gAMA
       41    png_get_gAMA_fixed
       42    png_get_hIST
       43    png_get_header_ver
       44    png_get_header_version
       45    png_get_iCCP
       46    png_get_image_height
       47    png_get_image_width
       48    png_get_interlace_type
       49    png_get_io_chunk_type
       50    png_get_io_ptr
       51    png_get_io_state
       52    png_get_libpng_ver
       53    png_get_mem_ptr
       54    png_get_oFFs
       55    png_get_pCAL
       56    png_get_pHYs
       57    png_get_pHYs_dpi
       58    png_get_palette_max
       59    png_get_pixel_aspect_ratio
       60    png_get_pixel_aspect_ratio_fixed
       61    png_get_pixels_per_inch
       62    png_get_pixels_per_meter
       63    png_get_rowbytes
       64    png_get_rows
       65    png_get_sBIT
       66    png_get_sCAL
       67    png_get_sCAL_fixed
       68    png_get_sCAL_s
       69    png_get_sPLT
       70    png_get_sRGB
       71    png_get_tIME
       72    png_get_tRNS
       73    png_get_text
       74    png_get_unknown_chunks
       75    png_get_user_chunk_ptr
       76    png_get_user_height_max
       77    png_get_user_transform_ptr
       78    png_get_user_width_max
       79    png_get_valid
       80    png_get_x_offset_inches
       81    png_get_x_offset_inches_fixed
       82    png_get_x_offset_microns
       83    png_get_x_offset_pixels
       84    png_get_x_pixels_per_inch
       85    png_get_x_pixels_per_meter
       86    png_get_y_offset_inches
       87    png_get_y_offset_inches_fixed
       88    png_get_y_offset_microns
       89    png_get_y_offset_pixels
       90    png_get_y_pixels_per_inch
       91    png_get_y_pixels_per_meter
       92    png_handle_as_unknown
       93    png_image_write_to_file
       94    png_image_write_to_stdio
       95    png_info_init_3
       96    png_init_io
       97    png_longjmp
       98    png_malloc
       99    png_malloc_default
      100    png_malloc_warn
      101    png_permit_mng_features
      102    png_save_int_32
      103    png_save_uint_16
      104    png_save_uint_32
      105    png_set_IHDR
      106    png_set_PLTE
      107    png_set_add_alpha
      108    png_set_bKGD
      109    png_set_benign_errors
      110    png_set_bgr
      111    png_set_cHRM
      112    png_set_cHRM_XYZ
      113    png_set_cHRM_XYZ_fixed
      114    png_set_cHRM_fixed
      115    png_set_check_for_invalid_index
      116    png_set_chunk_cache_max
      117    png_set_chunk_malloc_max
      118    png_set_compression_buffer_size
      119    png_set_compression_level
      120    png_set_compression_mem_level
      121    png_set_compression_method
      122    png_set_compression_strategy
      123    png_set_compression_window_bits
      124    png_set_error_fn
      125    png_set_filler
      126    png_set_filter
      127    png_set_filter_heuristics
      128    png_set_filter_heuristics_fixed
      129    png_set_flush
      130    png_set_gAMA
      131    png_set_gAMA_fixed
      132    png_set_hIST
      133    png_set_iCCP
      134    png_set_interlace_handling
      135    png_set_invalid
      136    png_set_invert_alpha
      137    png_set_invert_mono
      138    png_set_keep_unknown_chunks
      139    png_set_longjmp_fn
      140    png_set_mem_fn
      141    png_set_oFFs
      142    png_set_option
      143    png_set_pCAL
      144    png_set_pHYs
      145    png_set_packing
      146    png_set_packswap
      147    png_set_rows
      148    png_set_sBIT
      149    png_set_sCAL
      150    png_set_sCAL_fixed
      151    png_set_sCAL_s
      152    png_set_sPLT
      153    png_set_sRGB
      154    png_set_sRGB_gAMA_and_cHRM
      155    png_set_shift
      156    png_set_swap
      157    png_set_swap_alpha
      158    png_set_tIME
      159    png_set_tRNS
      160    png_set_text
      161    png_set_text_compression_level
      162    png_set_text_compression_mem_level
      163    png_set_text_compression_method
      164    png_set_text_compression_strategy
      165    png_set_text_compression_window_bits
      166    png_set_unknown_chunk_location
      167    png_set_unknown_chunks
      168    png_set_user_limits
      169    png_set_user_transform_info
      170    png_set_write_fn
      171    png_set_write_status_fn
      172    png_set_write_user_transform_fn
      173    png_warning
      174    png_write_chunk
      175    png_write_chunk_data
      176    png_write_chunk_end
      177    png_write_chunk_start
      178    png_write_end
      179    png_write_flush
      180    png_write_image
      181    png_write_info
      182    png_write_info_before_PLTE
      183    png_write_png
      184    png_write_row
      185    png_write_rows
      186    png_write_sig
