 lwip_image

 Timestamp is 5753d455 (Sun Jun 05 10:27:17 2016)

 Preferred load address is 0000000180000000

 Start         Length     Name                   Class
 0001:00000000 000001b3H .text$di                CODE
 0001:000001c0 000297fcH .text$mn                CODE
 0001:000299c0 00001f2eH .text$x                 CODE
 0001:0002b8f0 000000c3H .text$yd                CODE
 0002:00000000 00000298H .idata$5                DATA
 0002:00000298 00000008H .CRT$XCA                DATA
 0002:000002a0 000000e0H .CRT$XCU                DATA
 0002:00000380 00000008H .CRT$XCZ                DATA
 0002:00000388 00000008H .CRT$XIA                DATA
 0002:00000390 00000028H .CRT$XIC                DATA
 0002:000003b8 00000008H .CRT$XIZ                DATA
 0002:000003c0 00000008H .CRT$XPA                DATA
 0002:000003c8 00000010H .CRT$XPX                DATA
 0002:000003d8 00000008H .CRT$XPXA               DATA
 0002:000003e0 00000008H .CRT$XPZ                DATA
 0002:000003e8 00000008H .CRT$XTA                DATA
 0002:000003f0 00000008H .CRT$XTZ                DATA
 0002:00000400 0001adc0H .rdata                  DATA
 0002:0001b1c0 00000078H .rdata$debug            DATA
 0002:0001b238 0000037cH .rdata$r                DATA
 0002:0001b5b8 00000008H .rtc$IAA                DATA
 0002:0001b5c0 00000008H .rtc$IZZ                DATA
 0002:0001b5c8 00000008H .rtc$TAA                DATA
 0002:0001b5d0 00000008H .rtc$TZZ                DATA
 0002:0001b5d8 00003600H .xdata                  DATA
 0002:0001ebd8 00000364H .xdata$x                DATA
 0002:0001ef3c 00000020H .didat$2                DATA
 0002:0001ef5c 00000020H .didat$3                DATA
 0002:0001ef80 000001b0H .didat$4                DATA
 0002:0001f130 00000d9cH .didat$6                DATA
 0002:0001fed0 000001b0H .didat$7                DATA
 0002:00020080 00000058H .edata                  DATA
 0002:000200d8 00000028H .idata$2                DATA
 0002:00020100 00000014H .idata$3                DATA
 0002:00020118 00000298H .idata$4                DATA
 0002:000203b0 000005f8H .idata$6                DATA
 0003:00000000 000019c0H .data                   DATA
 0003:000019c0 00000221H .data$r                 DATA
 0003:00001be8 000001b0H .didat$5                DATA
 0003:00001da0 00002700H .bss                    DATA
 0004:00000000 00001b9cH .pdata                  DATA
 0005:00000000 00000058H .rsrc$01                DATA
 0005:00000060 00000180H .rsrc$02                DATA

  Address         Publics by Value              Rva+Base               Lib:Object

 0000:00000000       ___safe_se_handler_count   0000000000000000     <absolute>
 0000:00000000       __guard_fids_count         0000000000000000     <absolute>
 0000:00000000       ___safe_se_handler_table   0000000000000000     <absolute>
 0000:00000000       __guard_fids_table         0000000000000000     <absolute>
 0000:00000000       __guard_flags              0000000000000000     <absolute>
 0000:00000000       __ImageBase                0000000180000000     <linker-defined>
 0001:000001c0       ?InitAll@@YAXV?$Local@VObject@v8@@@v8@@@Z 00000001800011c0 f   init.obj
 0001:000001e0       ??1?$basic_string@DU?$char_traits@D@std@@V?$allocator@D@2@@std@@QEAA@XZ 00000001800011e0 f i init.obj
 0001:00000220       ??1?$CImg@K@cimg_library@@QEAA@XZ 0000000180001220 f i resize_worker.obj
 0001:00000220       ??1?$CImg@M@cimg_library@@QEAA@XZ 0000000180001220 f i resize_worker.obj
 0001:00000220       ??1?$CImg@E@cimg_library@@QEAA@XZ 0000000180001220 f i image.obj
 0001:00000220       ??1?$CImg@I@cimg_library@@QEAA@XZ 0000000180001220 f i resize_worker.obj
 0001:00000220       ??1?$CImg@D@cimg_library@@QEAA@XZ 0000000180001220 f i init.obj
 0001:00000230       ?assign@?$basic_string@DU?$char_traits@D@std@@V?$allocator@D@2@@std@@QEAAAEAV12@AEBV12@_K1@Z 0000000180001230 f i init.obj
 0001:00000360       ?assign@?$basic_string@DU?$char_traits@D@std@@V?$allocator@D@2@@std@@QEAAAEAV12@PEBD_K@Z 0000000180001360 f i init.obj
 0001:000004a0       ?erase@?$basic_string@DU?$char_traits@D@std@@V?$allocator@D@2@@std@@QEAAAEAV12@_K0@Z 00000001800014a0 f i init.obj
 0001:00000570       ?_Copy@?$basic_string@DU?$char_traits@D@std@@V?$allocator@D@2@@std@@QEAAX_K0@Z 0000000180001570 f i init.obj
 0001:00000660       ??0exception@stdext@@QEAA@AEBV01@@Z 0000000180001660 f i image.obj
 0001:00000680       ??1exception@stdext@@UEAA@XZ 0000000180001680 f i image.obj
 0001:00000690       ?what@exception@stdext@@UEBAPEBDXZ 0000000180001690 f i image.obj
 0001:000006b0       ?_Doraise@exception@stdext@@MEBAXXZ 00000001800016b0 f i image.obj
 0001:000006b0       ??1?$Persistent@VObject@v8@@V?$NonCopyablePersistentTraits@VObject@v8@@@2@@Nan@@QEAA@XZ 00000001800016b0 f i image.obj
 0001:000006b0       ??1?$Persistent@VObject@v8@@V?$NonCopyablePersistentTraits@VObject@v8@@@2@@v8@@QEAA@XZ 00000001800016b0 f i image.obj
 0001:000006c0       ??_Gexception@stdext@@UEAAPEAXI@Z 00000001800016c0 f i image.obj
 0001:000006c0       ??_Eexception@stdext@@UEAAPEAXI@Z 00000001800016c0 f i * CIL library *:* CIL module *
 0001:000006f0       ??1ObjectWrap@node@@UEAA@XZ 00000001800016f0 f i image.obj
 0001:00000770       ?Wrap@ObjectWrap@node@@IEAAXV?$Local@VObject@v8@@@v8@@@Z 0000000180001770 f i image.obj
 0001:00000850       ?Ref@ObjectWrap@node@@MEAAXXZ 0000000180001850 f i image.obj
 0001:00000890       ?Unref@ObjectWrap@node@@MEAAXXZ 0000000180001890 f i image.obj
 0001:00000940       ?WeakCallback@ObjectWrap@node@@CAXAEBV?$WeakCallbackInfo@VObjectWrap@node@@@v8@@@Z 0000000180001940 f i image.obj
 0001:000009a0       ??_EObjectWrap@node@@UEAAPEAXI@Z 00000001800019a0 f i * CIL library *:* CIL module *
 0001:000009a0       ??_GObjectWrap@node@@UEAAPEAXI@Z 00000001800019a0 f i image.obj
 0001:00000a80       ?New@?$Factory@VFunctionTemplate@v8@@@imp@Nan@@SA?AV?$Local@VFunctionTemplate@v8@@@v8@@P6AXAEBV?$FunctionCallbackInfo@VValue@v8@@@3@@ZV?$Local@VValue@v8@@@5@V?$Local@VSignature@v8@@@5@@Z 0000000180001a80 f i image.obj
 0001:00000c10       ??1HandleScope@Nan@@QEAA@XZ 0000000180001c10 f i image.obj
 0001:00000c10       ??1EscapableHandleScope@Nan@@QEAA@XZ 0000000180001c10 f i image.obj
 0001:00000c20       ??0Callback@Nan@@QEAA@AEBV?$Local@VFunction@v8@@@v8@@@Z 0000000180001c20 f i image.obj
 0001:00000ce0       ?SetFunction@Callback@Nan@@QEAAXAEBV?$Local@VFunction@v8@@@v8@@@Z 0000000180001ce0 f i image.obj
 0001:00000d80       ?AsyncExecute@Nan@@YAXPEAUuv_work_s@@@Z 0000000180001d80 f i image.obj
 0001:00000d90       ?AsyncExecuteComplete@Nan@@YAXPEAUuv_work_s@@@Z 0000000180001d90 f i image.obj
 0001:00000dc0       ?SetPrototypeMethod@Nan@@YAXV?$Local@VFunctionTemplate@v8@@@v8@@PEBDP6AXAEBV?$FunctionCallbackInfo@VValue@v8@@@1@@Z@Z 0000000180001dc0 f i image.obj
 0001:00000ec0       ?_snprintf@cimg@cimg_library@@YAHQEAD_KQEBDZZ 0000000180001ec0 f i image.obj
 0001:00000ee0       ?_vsnprintf@cimg@cimg_library@@YAHQEAD_KQEBDPEAD@Z 0000000180001ee0 f i image.obj
 0001:00000f60       ??0CImgException@cimg_library@@QEAA@AEBU01@@Z 0000000180001f60 f i image.obj
 0001:00000fd0       ??1CImgIOException@cimg_library@@UEAA@XZ 0000000180001fd0 f i image.obj
 0001:00000fd0       ??1CImgInstanceException@cimg_library@@UEAA@XZ 0000000180001fd0 f i image.obj
 0001:00000fd0       ??1CImgArgumentException@cimg_library@@UEAA@XZ 0000000180001fd0 f i image.obj
 0001:00000fd0       ??1CImgException@cimg_library@@UEAA@XZ 0000000180001fd0 f i image.obj
 0001:00001000       ?what@CImgException@cimg_library@@UEBAPEBDXZ 0000000180002000 f i image.obj
 0001:00001010       ??_GCImgInstanceException@cimg_library@@UEAAPEAXI@Z 0000000180002010 f i image.obj
 0001:00001010       ??_GCImgArgumentException@cimg_library@@UEAAPEAXI@Z 0000000180002010 f i image.obj
 0001:00001010       ??_ECImgIOException@cimg_library@@UEAAPEAXI@Z 0000000180002010 f i * CIL library *:* CIL module *
 0001:00001010       ??_GCImgIOException@cimg_library@@UEAAPEAXI@Z 0000000180002010 f i image.obj
 0001:00001010       ??_ECImgException@cimg_library@@UEAAPEAXI@Z 0000000180002010 f i * CIL library *:* CIL module *
 0001:00001010       ??_ECImgArgumentException@cimg_library@@UEAAPEAXI@Z 0000000180002010 f i * CIL library *:* CIL module *
 0001:00001010       ??_GCImgException@cimg_library@@UEAAPEAXI@Z 0000000180002010 f i image.obj
 0001:00001010       ??_ECImgInstanceException@cimg_library@@UEAAPEAXI@Z 0000000180002010 f i * CIL library *:* CIL module *
 0001:00001060       ??0CImgArgumentException@cimg_library@@QEAA@QEBDZZ 0000000180002060 f i image.obj
 0001:000011a0       ??0CImgInstanceException@cimg_library@@QEAA@QEBDZZ 00000001800021a0 f i image.obj
 0001:000012e0       ??0CImgIOException@cimg_library@@QEAA@QEBDZZ 00000001800022e0 f i image.obj
 0001:00001420       ?Mutex_attr@cimg@cimg_library@@YAAEAUMutex_info@12@XZ 0000000180002420 f i image.obj
 0001:00001490       ?warn@cimg@cimg_library@@YAXQEBDZZ 0000000180002490 f i image.obj
 0001:00001580       ?filenamerand@cimg@cimg_library@@YAPEBDXZ 0000000180002580 f i image.obj
 0001:00001710       ?winformat_string@cimg@cimg_library@@YAXQEAD@Z 0000000180002710 f i image.obj
 0001:00001780       ??0CImgInstanceException@cimg_library@@QEAA@AEBU01@@Z 0000000180002780 f i image.obj
 0001:00001780       ??0CImgArgumentException@cimg_library@@QEAA@AEBU01@@Z 0000000180002780 f i image.obj
 0001:00001780       ??0CImgIOException@cimg_library@@QEAA@AEBU01@@Z 0000000180002780 f i image.obj
 0001:00001800       ?fclose@cimg@cimg_library@@YAHPEAU_iobuf@@@Z 0000000180002800 f i image.obj
 0001:00001860       ?info@cimg@cimg_library@@YAXXZ 0000000180002860 f i image.obj
 0001:00002170       ?temporary_path@cimg@cimg_library@@YAPEBDQEBD_N@Z 0000000180003170 f i image.obj
 0001:00002690       ?programfiles_path@cimg@cimg_library@@YAPEBDQEBD_N@Z 0000000180003690 f i image.obj
 0001:00002780       ?imagemagick_path@cimg@cimg_library@@YAPEBDQEBD_N@Z 0000000180003780 f i image.obj
 0001:000031f0       ?graphicsmagick_path@cimg@cimg_library@@YAPEBDQEBD_N@Z 00000001800041f0 f i image.obj
 0001:00003c50       ?medcon_path@cimg@cimg_library@@YAPEBDQEBD_N@Z 0000000180004c50 f i image.obj
 0001:00003e20       ?strbuffersize@cimg@cimg_library@@YAPEBDK@Z 0000000180004e20 f i image.obj
 0001:00003f40       ?Init@LwipImage@@SAXV?$Local@VObject@v8@@@v8@@@Z 0000000180004f40 f   image.obj
 0001:000041e0       ??0LwipImage@@QEAA@PEAE_K1@Z 00000001800051e0 f   image.obj
 0001:00004270       ??_GLwipImage@@UEAAPEAXI@Z 0000000180005270 f i image.obj
 0001:00004270       ??_ELwipImage@@UEAAPEAXI@Z 0000000180005270 f i * CIL library *:* CIL module *
 0001:000042f0       ?New@LwipImage@@SAXAEBV?$FunctionCallbackInfo@VValue@v8@@@Nan@@@Z 00000001800052f0 f   image.obj
 0001:00004460       ?width@LwipImage@@SAXAEBV?$FunctionCallbackInfo@VValue@v8@@@Nan@@@Z 0000000180005460 f   image.obj
 0001:000044f0       ?height@LwipImage@@SAXAEBV?$FunctionCallbackInfo@VValue@v8@@@Nan@@@Z 00000001800054f0 f   image.obj
 0001:00004590       ?getPixel@LwipImage@@SAXAEBV?$FunctionCallbackInfo@VValue@v8@@@Nan@@@Z 0000000180005590 f   image.obj
 0001:000048a0       ?buffer@LwipImage@@SAXAEBV?$FunctionCallbackInfo@VValue@v8@@@Nan@@@Z 00000001800058a0 f   image.obj
 0001:00004980       ?resize@LwipImage@@SAXAEBV?$FunctionCallbackInfo@VValue@v8@@@Nan@@@Z 0000000180005980 f   image.obj
 0001:00004b20       ?rotate@LwipImage@@SAXAEBV?$FunctionCallbackInfo@VValue@v8@@@Nan@@@Z 0000000180005b20 f   image.obj
 0001:00004d30       ?blur@LwipImage@@SAXAEBV?$FunctionCallbackInfo@VValue@v8@@@Nan@@@Z 0000000180005d30 f   image.obj
 0001:00004e70       ?crop@LwipImage@@SAXAEBV?$FunctionCallbackInfo@VValue@v8@@@Nan@@@Z 0000000180005e70 f   image.obj
 0001:000050d0       ?mirror@LwipImage@@SAXAEBV?$FunctionCallbackInfo@VValue@v8@@@Nan@@@Z 00000001800060d0 f   image.obj
 0001:00005240       ?pad@LwipImage@@SAXAEBV?$FunctionCallbackInfo@VValue@v8@@@Nan@@@Z 0000000180006240 f   image.obj
 0001:00005570       ?sharpen@LwipImage@@SAXAEBV?$FunctionCallbackInfo@VValue@v8@@@Nan@@@Z 0000000180006570 f   image.obj
 0001:000056b0       ?hslaAdj@LwipImage@@SAXAEBV?$FunctionCallbackInfo@VValue@v8@@@Nan@@@Z 00000001800066b0 f   image.obj
 0001:000058c0       ?opacify@LwipImage@@SAXAEBV?$FunctionCallbackInfo@VValue@v8@@@Nan@@@Z 00000001800068c0 f   image.obj
 0001:000059d0       ?paste@LwipImage@@SAXAEBV?$FunctionCallbackInfo@VValue@v8@@@Nan@@@Z 00000001800069d0 f   image.obj
 0001:00005c70       ?setPixel@LwipImage@@SAXAEBV?$FunctionCallbackInfo@VValue@v8@@@Nan@@@Z 0000000180006c70 f   image.obj
 0001:00005f00       ??0?$CImg@D@cimg_library@@QEAA@IIII@Z 0000000180006f00 f i image.obj
 0001:00005f70       ?assign@?$CImg@D@cimg_library@@QEAAAEAU12@IIII@Z 0000000180006f70 f i image.obj
 0001:00006090       ??0?$CImg@E@cimg_library@@QEAA@QEBEIIII_N@Z 0000000180007090 f i image.obj
 0001:00006130       ??0?$CImg@E@cimg_library@@QEAA@IIII@Z 0000000180007130 f i image.obj
 0001:000061b0       ??0?$CImg@E@cimg_library@@QEAA@AEBU01@@Z 00000001800071b0 f i image.obj
 0001:00006260       ??$Unwrap@VLwipImage@@@ObjectWrap@node@@SAPEAVLwipImage@@V?$Local@VObject@v8@@@v8@@@Z 0000000180007260 f i image.obj
 0001:000062e0       ?Call_@Callback@Nan@@AEBA?AV?$Local@VValue@v8@@@v8@@PEAVIsolate@4@V?$Local@VObject@v8@@@4@HQEAV34@@Z 00000001800072e0 f i resize_worker.obj
 0001:000063b0       ??0AsyncWorker@Nan@@QEAA@PEAVCallback@1@@Z 00000001800073b0 f i resize_worker.obj
 0001:00006480       ??1AsyncWorker@Nan@@UEAA@XZ 0000000180007480 f i resize_worker.obj
 0001:00006540       ?WorkComplete@AsyncWorker@Nan@@UEAAXXZ 0000000180007540 f i resize_worker.obj
 0001:000065e0       ?Destroy@AsyncWorker@Nan@@UEAAXXZ 00000001800075e0 f i resize_worker.obj
 0001:00006600       ?HandleOKCallback@AsyncWorker@Nan@@MEAAXXZ 0000000180007600 f i resize_worker.obj
 0001:00006660       ?HandleErrorCallback@AsyncWorker@Nan@@MEAAXXZ 0000000180007660 f i resize_worker.obj
 0001:00006740       ?SetErrorMessage@AsyncWorker@Nan@@IEAAXPEBD@Z 0000000180007740 f i resize_worker.obj
 0001:000067a0       ??_GAsyncWorker@Nan@@UEAAPEAXI@Z 00000001800077a0 f i resize_worker.obj
 0001:000067a0       ??_EAsyncWorker@Nan@@UEAAPEAXI@Z 00000001800077a0 f i * CIL library *:* CIL module *
 0001:000067d0       ??_EResizeWorker@@UEAAPEAXI@Z 00000001800077d0 f i * CIL library *:* CIL module *
 0001:000067d0       ??_GResizeWorker@@UEAAPEAXI@Z 00000001800077d0 f i resize_worker.obj
 0001:00006810       ?Execute@ResizeWorker@@UEAAXXZ 0000000180007810 f   resize_worker.obj
 0001:00006870       ?HandleOKCallback@RotateWorker@@UEAAXXZ 0000000180007870 f   rotate_worker.obj
 0001:00006870       ?HandleOKCallback@SharpenWorker@@UEAAXXZ 0000000180007870 f   sharpen_worker.obj
 0001:00006870       ?HandleOKCallback@ResizeWorker@@UEAAXXZ 0000000180007870 f   resize_worker.obj
 0001:00006870       ?HandleOKCallback@OpacifyWorker@@UEAAXXZ 0000000180007870 f   opacify_worker.obj
 0001:00006870       ?HandleOKCallback@PasteWorker@@UEAAXXZ 0000000180007870 f   paste_worker.obj
 0001:00006870       ?HandleOKCallback@CropWorker@@UEAAXXZ 0000000180007870 f   crop_worker.obj
 0001:00006870       ?HandleOKCallback@SetPixelWorker@@UEAAXXZ 0000000180007870 f   setpixel_worker.obj
 0001:00006870       ?HandleOKCallback@HSLAWorker@@UEAAXXZ 0000000180007870 f   hsla_worker.obj
 0001:00006870       ?HandleOKCallback@BlurWorker@@UEAAXXZ 0000000180007870 f   blur_worker.obj
 0001:00006870       ?HandleOKCallback@MirrorWorker@@UEAAXXZ 0000000180007870 f   mirror_worker.obj
 0001:00006870       ?HandleOKCallback@PadWorker@@UEAAXXZ 0000000180007870 f   pad_worker.obj
 0001:00006910       ??0?$CImg@K@cimg_library@@QEAA@IIII@Z 0000000180007910 f i resize_worker.obj
 0001:00006990       ?resize@?$CImg@E@cimg_library@@QEAAAEAU12@HHHHHIMMMM@Z 0000000180007990 f i resize_worker.obj
 0001:00006c00       ?assign@?$CImg@E@cimg_library@@QEAAAEAU12@XZ 0000000180007c00 f i resize_worker.obj
 0001:00006c40       ?move_to@?$CImg@E@cimg_library@@QEAAAEAU12@AEAU12@@Z 0000000180007c40 f i resize_worker.obj
 0001:00006d00       ?get_resize@?$CImg@E@cimg_library@@QEBA?AU12@HHHHHIMMMM@Z 0000000180007d00 f i resize_worker.obj
 0001:0000cdd0       ??0?$CImg@M@cimg_library@@QEAA@IIII@Z 000000018000ddd0 f i resize_worker.obj
 0001:0000ce60       ??0?$CImg@M@cimg_library@@QEAA@IIIIAEBM@Z 000000018000de60 f i resize_worker.obj
 0001:0000cf00       ??0?$CImg@E@cimg_library@@QEAA@IIIIAEBE@Z 000000018000df00 f i resize_worker.obj
 0001:0000cfc0       ?assign@?$CImg@E@cimg_library@@QEAAAEAU12@IIII@Z 000000018000dfc0 f i resize_worker.obj
 0001:0000d0f0       ??H?$CImg@E@cimg_library@@QEBA?AU01@XZ 000000018000e0f0 f i resize_worker.obj
 0001:0000d120       ?_cimg_lanczos@?$CImg@E@cimg_library@@SAMM@Z 000000018000e120 f i resize_worker.obj
 0001:0000d1c0       ?get_crop@?$CImg@E@cimg_library@@QEBA?AU12@HHHHHHHH_N@Z 000000018000e1c0 f i resize_worker.obj
 0001:0000d440       ?draw_image@?$CImg@E@cimg_library@@QEAAAEAU12@HHHHAEBU12@M@Z 000000018000e440 f i resize_worker.obj
 0001:0000db20       ??0?$CImg@I@cimg_library@@QEAA@IIII@Z 000000018000eb20 f i resize_worker.obj
 0001:0000dba0       ?fill@?$CImg@M@cimg_library@@QEAAAEAU12@AEBM@Z 000000018000eba0 f i resize_worker.obj
 0001:0000dcb0       ??0?$CImg@E@cimg_library@@QEAA@AEBU01@_N@Z 000000018000ecb0 f i resize_worker.obj
 0001:0000dd50       ?assign@?$CImg@E@cimg_library@@QEAAAEAU12@QEBEIIII@Z 000000018000ed50 f i resize_worker.obj
 0001:0000dec0       ?assign@?$CImg@E@cimg_library@@QEAAAEAU12@QEBEIIII_N@Z 000000018000eec0 f i resize_worker.obj
 0001:0000e010       ??$assign@M@?$CImg@E@cimg_library@@QEAAAEAU01@QEBMIIII@Z 000000018000f010 f i resize_worker.obj
 0001:0000e130       ??_ERotateWorker@@UEAAPEAXI@Z 000000018000f130 f i * CIL library *:* CIL module *
 0001:0000e130       ??_GRotateWorker@@UEAAPEAXI@Z 000000018000f130 f i rotate_worker.obj
 0001:0000e170       ?Execute@RotateWorker@@UEAAXXZ 000000018000f170 f   rotate_worker.obj
 0001:0000e510       ?fillC@?$CImg@E@cimg_library@@QEAAAEAU12@IIIHZZ 000000018000f510 f i rotate_worker.obj
 0001:0000e5b0       ?get_rotate@?$CImg@E@cimg_library@@QEBA?AU12@MII@Z 000000018000f5b0 f i rotate_worker.obj
 0001:0000e8f0       ?_linear_atXY@?$CImg@E@cimg_library@@QEBAMMMHH@Z 000000018000f8f0 f i rotate_worker.obj
 0001:0000ea20       ??_GBlurWorker@@UEAAPEAXI@Z 000000018000fa20 f i blur_worker.obj
 0001:0000ea20       ??_EBlurWorker@@UEAAPEAXI@Z 000000018000fa20 f i * CIL library *:* CIL module *
 0001:0000ea60       ?Execute@BlurWorker@@UEAAXXZ 000000018000fa60 f   blur_worker.obj
 0001:0000eab0       ?vanvliet@?$CImg@E@cimg_library@@QEAAAEAU12@MID_N@Z 000000018000fab0 f i blur_worker.obj
 0001:0000eea0       ?_cimg_recursive_apply@?$CImg@E@cimg_library@@SAXPEAEQEBNHKI_N@Z 000000018000fea0 f i blur_worker.obj
 0001:0000f290       ??_GCropWorker@@UEAAPEAXI@Z 0000000180010290 f i crop_worker.obj
 0001:0000f290       ??_ECropWorker@@UEAAPEAXI@Z 0000000180010290 f i * CIL library *:* CIL module *
 0001:0000f2d0       ?Execute@CropWorker@@UEAAXXZ 00000001800102d0 f   crop_worker.obj
 0001:0000f320       ?crop@?$CImg@E@cimg_library@@QEAAAEAU12@HHHHHHHH_N@Z 0000000180010320 f i crop_worker.obj
 0001:0000f3b0       ??_EMirrorWorker@@UEAAPEAXI@Z 00000001800103b0 f i * CIL library *:* CIL module *
 0001:0000f3b0       ??_GMirrorWorker@@UEAAPEAXI@Z 00000001800103b0 f i mirror_worker.obj
 0001:0000f3f0       ?Execute@MirrorWorker@@UEAAXXZ 00000001800103f0 f   mirror_worker.obj
 0001:0000f4f0       ?append@?$basic_string@DU?$char_traits@D@std@@V?$allocator@D@2@@std@@QEAAAEAV12@AEBV12@_K1@Z 00000001800104f0 f i mirror_worker.obj
 0001:0000f620       ?append@?$basic_string@DU?$char_traits@D@std@@V?$allocator@D@2@@std@@QEAAAEAV12@PEBD_K@Z 0000000180010620 f i mirror_worker.obj
 0001:0000f770       ?mirror@?$CImg@E@cimg_library@@QEAAAEAU12@D@Z 0000000180010770 f i mirror_worker.obj
 0001:0000fb20       ??_GPadWorker@@UEAAPEAXI@Z 0000000180010b20 f i pad_worker.obj
 0001:0000fb20       ??_EPadWorker@@UEAAPEAXI@Z 0000000180010b20 f i * CIL library *:* CIL module *
 0001:0000fb60       ?Execute@PadWorker@@UEAAXXZ 0000000180010b60 f   pad_worker.obj
 0001:0000ff10       ??_ESharpenWorker@@UEAAPEAXI@Z 0000000180010f10 f i * CIL library *:* CIL module *
 0001:0000ff10       ??_GSharpenWorker@@UEAAPEAXI@Z 0000000180010f10 f i sharpen_worker.obj
 0001:0000ff50       ?Execute@SharpenWorker@@UEAAXXZ 0000000180010f50 f   sharpen_worker.obj
 0001:0000ff80       ?sharpen@?$CImg@E@cimg_library@@QEAAAEAU12@M_NMMM@Z 0000000180010f80 f i sharpen_worker.obj
 0001:000107a0       ?max@?$CImg@M@cimg_library@@QEAAAEAMXZ 00000001800117a0 f i sharpen_worker.obj
 0001:00010900       ??$?YE@?$CImg@M@cimg_library@@QEAAAEAU01@AEBU?$CImg@E@1@@Z 0000000180011900 f i sharpen_worker.obj
 0001:00010ba0       ??_EHSLAWorker@@UEAAPEAXI@Z 0000000180011ba0 f i * CIL library *:* CIL module *
 0001:00010ba0       ??_GHSLAWorker@@UEAAPEAXI@Z 0000000180011ba0 f i hsla_worker.obj
 0001:00010be0       ?Execute@HSLAWorker@@UEAAXXZ 0000000180011be0 f   hsla_worker.obj
 0001:00010f10       ?rgb_to_hsl@@YAXEEEPEAM00@Z 0000000180011f10 f   hsla_worker.obj
 0001:000110a0       ?hsl_to_rgb@@YAXMMMPEAE00@Z 00000001800120a0 f   hsla_worker.obj
 0001:00011300       ??_GOpacifyWorker@@UEAAPEAXI@Z 0000000180012300 f i opacify_worker.obj
 0001:00011300       ??_EOpacifyWorker@@UEAAPEAXI@Z 0000000180012300 f i * CIL library *:* CIL module *
 0001:00011340       ?Execute@OpacifyWorker@@UEAAXXZ 0000000180012340 f   opacify_worker.obj
 0001:00011430       ?SaveToPersistent@AsyncWorker@Nan@@QEAAXPEBDAEBV?$Local@VValue@v8@@@v8@@@Z 0000000180012430 f i paste_worker.obj
 0001:000114f0       ??_GPasteWorker@@UEAAPEAXI@Z 00000001800124f0 f i paste_worker.obj
 0001:000114f0       ??_EPasteWorker@@UEAAPEAXI@Z 00000001800124f0 f i * CIL library *:* CIL module *
 0001:00011530       ?Execute@PasteWorker@@UEAAXXZ 0000000180012530 f   paste_worker.obj
 0001:00011860       ??_GSetPixelWorker@@UEAAPEAXI@Z 0000000180012860 f i setpixel_worker.obj
 0001:00011860       ??_ESetPixelWorker@@UEAAPEAXI@Z 0000000180012860 f i * CIL library *:* CIL module *
 0001:000118a0       ?Execute@SetPixelWorker@@UEAAXXZ 00000001800128a0 f   setpixel_worker.obj
 0001:0001194c       __imp_load_node_module_register 000000018001294c f   node:node.exe
 0001:00011958       __tailMerge_node_exe       0000000180012958 f i node:node.exe
 0001:000119d1       __imp_load_?Data@Buffer@node@@YAPEADV?$Local@VObject@v8@@@v8@@@Z 00000001800129d1 f   node:node.exe
 0001:000119dd       __imp_load_?Copy@Buffer@node@@YA?AV?$MaybeLocal@VObject@v8@@@v8@@PEAVIsolate@4@PEBD_K@Z 00000001800129dd f   node:node.exe
 0001:000119e9       __imp_load_uv_default_loop 00000001800129e9 f   node:node.exe
 0001:000119f5       __imp_load_?New@Signature@v8@@SA?AV?$Local@VSignature@v8@@@2@PEAVIsolate@2@V?$Local@VFunctionTemplate@v8@@@2@@Z 00000001800129f5 f   node:node.exe
 0001:00011a01       __imp_load_?ToLocalEmpty@V8@v8@@CAXXZ 0000000180012a01 f   node:node.exe
 0001:00011a0d       __imp_load_?ClearWeak@V8@v8@@CAPEAXPEAPEAVObject@internal@2@@Z 0000000180012a0d f   node:node.exe
 0001:00011a19       __imp_load_?MakeWeak@V8@v8@@CAXPEAPEAVObject@internal@2@PEAXP6AXAEBV?$WeakCallbackInfo@X@2@@ZW4WeakCallbackType@2@@Z 0000000180012a19 f   node:node.exe
 0001:00011a25       __imp_load_?DisposeGlobal@V8@v8@@CAXPEAPEAVObject@internal@2@@Z 0000000180012a25 f   node:node.exe
 0001:00011a31       __imp_load_?GlobalizeReference@V8@v8@@CAPEAPEAVObject@internal@2@PEAVIsolate@42@PEAPEAV342@@Z 0000000180012a31 f   node:node.exe
 0001:00011a3d       __imp_load_?Escape@EscapableHandleScope@v8@@AEAAPEAPEAVObject@internal@2@PEAPEAV342@@Z 0000000180012a3d f   node:node.exe
 0001:00011a49       __imp_load_??0EscapableHandleScope@v8@@QEAA@PEAVIsolate@1@@Z 0000000180012a49 f   node:node.exe
 0001:00011a55       __imp_load_?NumberValue@Value@v8@@QEBANXZ 0000000180012a55 f   node:node.exe
 0001:00011a61       __imp_load_?BooleanValue@Value@v8@@QEBA_NXZ 0000000180012a61 f   node:node.exe
 0001:00011a6d       __imp_load_?ToInt32@Value@v8@@QEBA?AV?$MaybeLocal@VInt32@v8@@@2@V?$Local@VContext@v8@@@2@@Z 0000000180012a6d f   node:node.exe
 0001:00011a79       __imp_load_?SetClassName@FunctionTemplate@v8@@QEAAXV?$Local@VString@v8@@@2@@Z 0000000180012a79 f   node:node.exe
 0001:00011a85       __imp_load_?PrototypeTemplate@FunctionTemplate@v8@@QEAA?AV?$Local@VObjectTemplate@v8@@@2@XZ 0000000180012a85 f   node:node.exe
 0001:00011a91       __imp_load_?InstanceTemplate@FunctionTemplate@v8@@QEAA?AV?$Local@VObjectTemplate@v8@@@2@XZ 0000000180012a91 f   node:node.exe
 0001:00011a9d       __imp_load_?GetFunction@FunctionTemplate@v8@@QEAA?AV?$Local@VFunction@v8@@@2@XZ 0000000180012a9d f   node:node.exe
 0001:00011aa9       __imp_load_?New@FunctionTemplate@v8@@SA?AV?$Local@VFunctionTemplate@v8@@@2@PEAVIsolate@2@P6AXAEBV?$FunctionCallbackInfo@VValue@v8@@@2@@ZV?$Local@VValue@v8@@@2@V?$Local@VSignature@v8@@@2@H@Z 0000000180012aa9 f   node:node.exe
 0001:00011ab5       __imp_load_?NewFromUtf8@String@v8@@SA?AV?$MaybeLocal@VString@v8@@@2@PEAVIsolate@2@PEBDW4NewStringType@2@H@Z 0000000180012ab5 f   node:node.exe
 0001:00011ac1       __imp_load_?New@Array@v8@@SA?AV?$Local@VArray@v8@@@2@PEAVIsolate@2@H@Z 0000000180012ac1 f   node:node.exe
 0001:00011acd       __imp_load_?CreateHandle@HandleScope@v8@@KAPEAPEAVObject@internal@2@PEAVIsolate@42@PEAV342@@Z 0000000180012acd f   node:node.exe
 0001:00011ad9       __imp_load_?CreateHandle@HandleScope@v8@@CAPEAPEAVObject@internal@2@PEAVHeapObject@42@PEAV342@@Z 0000000180012ad9 f   node:node.exe
 0001:00011ae5       __imp_load_??1HandleScope@v8@@QEAA@XZ 0000000180012ae5 f   node:node.exe
 0001:00011af1       __imp_load_??0HandleScope@v8@@QEAA@PEAVIsolate@1@@Z 0000000180012af1 f   node:node.exe
 0001:00011afd       __imp_load_?New@Number@v8@@SA?AV?$Local@VNumber@v8@@@2@PEAVIsolate@2@N@Z 0000000180012afd f   node:node.exe
 0001:00011b09       __imp_load_?Value@Number@v8@@QEBANXZ 0000000180012b09 f   node:node.exe
 0001:00011b15       __imp_load_?SlowGetAlignedPointerFromInternalField@Object@v8@@AEAAPEAXH@Z 0000000180012b15 f   node:node.exe
 0001:00011b21       __imp_load_?SlowGetInternalField@Object@v8@@AEAA?AV?$Local@VValue@v8@@@2@H@Z 0000000180012b21 f   node:node.exe
 0001:00011b2d       __imp_load_?New@Object@v8@@SA?AV?$Local@VObject@v8@@@2@PEAVIsolate@2@@Z 0000000180012b2d f   node:node.exe
 0001:00011b39       __imp_load_?SetAlignedPointerInInternalField@Object@v8@@QEAAXHPEAX@Z 0000000180012b39 f   node:node.exe
 0001:00011b45       __imp_load_?SetInternalField@Object@v8@@QEAAXHV?$Local@VValue@v8@@@2@@Z 0000000180012b45 f   node:node.exe
 0001:00011b51       __imp_load_?InternalFieldCount@Object@v8@@QEAAHXZ 0000000180012b51 f   node:node.exe
 0001:00011b5d       __imp_load_?Set@Object@v8@@QEAA_NV?$Local@VValue@v8@@@2@0@Z 0000000180012b5d f   node:node.exe
 0001:00011b69       __imp_load_?Set@Object@v8@@QEAA_NIV?$Local@VValue@v8@@@2@@Z 0000000180012b69 f   node:node.exe
 0001:00011b75       __imp_load_?Set@Object@v8@@QEAA?AV?$Maybe@_N@2@V?$Local@VContext@v8@@@2@IV?$Local@VValue@v8@@@2@@Z 0000000180012b75 f   node:node.exe
 0001:00011b81       __imp_load_?Set@Template@v8@@QEAAXV?$Local@VName@v8@@@2@V?$Local@VData@v8@@@2@W4PropertyAttribute@2@@Z 0000000180012b81 f   node:node.exe
 0001:00011b8d       __imp_load_?SetInternalFieldCount@ObjectTemplate@v8@@QEAAXH@Z 0000000180012b8d f   node:node.exe
 0001:00011b99       __imp_load_?NewInstance@ObjectTemplate@v8@@QEAA?AV?$MaybeLocal@VObject@v8@@@2@V?$Local@VContext@v8@@@2@@Z 0000000180012b99 f   node:node.exe
 0001:00011ba5       __imp_load_?New@ObjectTemplate@v8@@SA?AV?$Local@VObjectTemplate@v8@@@2@PEAVIsolate@2@V?$Local@VFunctionTemplate@v8@@@2@@Z 0000000180012ba5 f   node:node.exe
 0001:00011bb1       __imp_load_?Value@Integer@v8@@QEBA_JXZ 0000000180012bb1 f   node:node.exe
 0001:00011bbd       __imp_load_?New@Integer@v8@@SA?AV?$Local@VInteger@v8@@@2@PEAVIsolate@2@H@Z 0000000180012bbd f   node:node.exe
 0001:00011bc9       __imp_load_?GetCurrentContext@Isolate@v8@@QEAA?AV?$Local@VContext@v8@@@2@XZ 0000000180012bc9 f   node:node.exe
 0001:00011bd5       __imp_load_?GetCurrent@Isolate@v8@@SAPEAV12@XZ 0000000180012bd5 f   node:node.exe
 0001:00011be1       __imp_load_?Value@External@v8@@QEBAPEAXXZ 0000000180012be1 f   node:node.exe
 0001:00011bed       __imp_load_?New@External@v8@@SA?AV?$Local@VExternal@v8@@@2@PEAVIsolate@2@PEAX@Z 0000000180012bed f   node:node.exe
 0001:00011bf9       __imp_load_uv_queue_work   0000000180012bf9 f   node:node.exe
 0001:00011c05       __imp_load_??1EscapableHandleScope@v8@@QEAA@XZ 0000000180012c05 f   node:node.exe
 0001:00011c11       __imp_load_?MakeCallback@node@@YA?AV?$Local@VValue@v8@@@v8@@PEAVIsolate@3@V?$Local@VObject@v8@@@3@V?$Local@VFunction@v8@@@3@HPEAV23@@Z 0000000180012c11 f   node:node.exe
 0001:00011c1d       __imp_load_?Global@Context@v8@@QEAA?AV?$Local@VObject@v8@@@2@XZ 0000000180012c1d f   node:node.exe
 0001:00011c29       __imp_load_?Error@Exception@v8@@SA?AV?$Local@VValue@v8@@@2@V?$Local@VString@v8@@@2@@Z 0000000180012c29 f   node:node.exe
 0001:00011c35       __imp_load_?Get@Object@v8@@QEAA?AV?$Local@VValue@v8@@@2@I@Z 0000000180012c35 f   node:node.exe
 0001:00011c44       ??0bad_alloc@std@@QEAA@AEBV01@@Z 0000000180012c44 f i libcpmt:xthrow.obj
 0001:00011c68       ??0length_error@std@@QEAA@AEBV01@@Z 0000000180012c68 f i libcpmt:xthrow.obj
 0001:00011c8c       ??0logic_error@std@@QEAA@AEBV01@@Z 0000000180012c8c f i libcpmt:xthrow.obj
 0001:00011cb0       ??0out_of_range@std@@QEAA@AEBV01@@Z 0000000180012cb0 f i libcpmt:xthrow.obj
 0001:00011cd4       ??1bad_alloc@std@@UEAA@XZ  0000000180012cd4 f i libcpmt:xthrow.obj
 0001:00011ce4       ??1out_of_range@std@@UEAA@XZ 0000000180012ce4 f i libcpmt:xthrow.obj
 0001:00011ce4       ??1length_error@std@@UEAA@XZ 0000000180012ce4 f i libcpmt:xthrow.obj
 0001:00011cec       ??_Gbad_alloc@std@@UEAAPEAXI@Z 0000000180012cec f i libcpmt:xthrow.obj
 0001:00011cec       ??_Ebad_alloc@std@@UEAAPEAXI@Z 0000000180012cec f i libcpmt:xthrow.obj
 0001:00011d28       ??_Glogic_error@std@@UEAAPEAXI@Z 0000000180012d28 f i libcpmt:xthrow.obj
 0001:00011d28       ??_Glength_error@std@@UEAAPEAXI@Z 0000000180012d28 f i libcpmt:xthrow.obj
 0001:00011d28       ??_Gout_of_range@std@@UEAAPEAXI@Z 0000000180012d28 f i libcpmt:xthrow.obj
 0001:00011d28       ??_Elogic_error@std@@UEAAPEAXI@Z 0000000180012d28 f i libcpmt:xthrow.obj
 0001:00011d28       ??_Eout_of_range@std@@UEAAPEAXI@Z 0000000180012d28 f i libcpmt:xthrow.obj
 0001:00011d28       ??_Elength_error@std@@UEAAPEAXI@Z 0000000180012d28 f i libcpmt:xthrow.obj
 0001:00011d58       ?_Xbad_alloc@std@@YAXXZ    0000000180012d58 f   libcpmt:xthrow.obj
 0001:00011d9c       ?_Xlength_error@std@@YAXPEBD@Z 0000000180012d9c f   libcpmt:xthrow.obj
 0001:00011dd4       ?_Xout_of_range@std@@YAXPEBD@Z 0000000180012dd4 f   libcpmt:xthrow.obj
 0001:00011e0c       ??_U@YAPEAX_K@Z            0000000180012e0c f   libcpmt:newaop.obj
 0001:00011e30       __security_check_cookie    0000000180012e30 f   LIBCMT:amdsecgs.obj
 0001:00011e60       memcpy                     0000000180012e60 f   LIBCMT:memcpy.obj
 0001:00011e60       memmove                    0000000180012e60 f   LIBCMT:memcpy.obj
 0001:000123c8       __onexitinit               00000001800133c8 f   LIBCMT:onexit.obj
 0001:0001240c       _onexit                    000000018001340c f   LIBCMT:onexit.obj
 0001:00012518       atexit                     0000000180013518 f   LIBCMT:onexit.obj
 0001:00012530       ??_V@YAXPEAX@Z             0000000180013530 f   LIBCMT:delete2.obj
 0001:00012538       _purecall                  0000000180013538 f   LIBCMT:purevirt.obj
 0001:00012564       ??3@YAXPEAX@Z              0000000180013564 f   LIBCMT:delete.obj
 0001:0001256c       ??2@YAPEAX_K@Z             000000018001356c f   LIBCMT:new.obj
 0001:000125d8       _vsnprintf_helper          00000001800135d8 f   LIBCMT:vsnprnc.obj
 0001:000126c0       _vsnprintf_s               00000001800136c0 f   LIBCMT:vsnprnc.obj
 0001:000126e0       _vsnprintf_s_l             00000001800136e0 f   LIBCMT:vsnprnc.obj
 0001:00012828       __initstdio                0000000180013828 f   LIBCMT:_file.obj
 0001:000128c0       __endstdio                 00000001800138c0 f   LIBCMT:_file.obj
 0001:000128f0       __iob_func                 00000001800138f0 f   LIBCMT:_file.obj
 0001:000128f8       _lock_file                 00000001800138f8 f   LIBCMT:_file.obj
 0001:00012960       _lock_file2                0000000180013960 f   LIBCMT:_file.obj
 0001:00012994       _unlock_file               0000000180013994 f   LIBCMT:_file.obj
 0001:000129e4       _unlock_file2              00000001800139e4 f   LIBCMT:_file.obj
 0001:00012a04       _getpid                    0000000180013a04 f   LIBCMT:getpid.obj
 0001:00012a0c       remove                     0000000180013a0c f   LIBCMT:unlink.obj
 0001:00012a54       _wassert                   0000000180013a54 f   LIBCMT:wassert.obj
 0001:000133d0       strncpy                    00000001800143d0 f   LIBCMT:strncpy.obj
 0001:00013534       _fsopen                    0000000180014534 f   LIBCMT:fopen.obj
 0001:0001360c       fopen                      000000018001460c f   LIBCMT:fopen.obj
 0001:00013618       fprintf                    0000000180014618 f   LIBCMT:fprintf.obj
 0001:00013740       rand                       0000000180014740 f   LIBCMT:rand.obj
 0001:0001376c       srand                      000000018001476c f   LIBCMT:rand.obj
 0001:00013784       _vsnprintf                 0000000180014784 f   LIBCMT:vsnprint.obj
 0001:0001379c       _vsnprintf_l               000000018001479c f   LIBCMT:vsnprint.obj
 0001:00013868       _getenv_helper_nolock      0000000180014868 f   LIBCMT:getenv.obj
 0001:0001390c       getenv                     000000018001490c f   LIBCMT:getenv.obj
 0001:00013978       ??8type_info@@QEBA_NAEBV0@@Z 0000000180014978 f   LIBCMT:typinfo.obj
 0001:00013998       ??_Gtype_info@@UEAAPEAXI@Z 0000000180014998 f i LIBCMT:typinfo.obj
 0001:00013998       ??_Etype_info@@UEAAPEAXI@Z 0000000180014998 f i LIBCMT:typinfo.obj
 0001:000139d4       _vscprintf                 00000001800149d4 f   LIBCMT:vsprintf.obj
 0001:000139ec       _vscprintf_helper          00000001800149ec f   LIBCMT:vsprintf.obj
 0001:00013a7c       _fclose_nolock             0000000180014a7c f   LIBCMT:fclose.obj
 0001:00013af8       fclose                     0000000180014af8 f   LIBCMT:fclose.obj
 0001:00013b60       ??0_LocaleUpdate@@QEAA@PEAUlocaleinfo_struct@@@Z 0000000180014b60 f i LIBCMT:stricmp.obj
 0001:00013c08       __ascii_stricmp            0000000180014c08 f   LIBCMT:stricmp.obj
 0001:00013c44       _stricmp                   0000000180014c44 f   LIBCMT:stricmp.obj
 0001:00013c8c       _stricmp_l                 0000000180014c8c f   LIBCMT:stricmp.obj
 0001:00013d40       _CRT_INIT                  0000000180014d40 f   LIBCMT:dllcrt0.obj
 0001:00013ea0       _DllMainCRTStartup         0000000180014ea0 f   LIBCMT:dllcrt0.obj
 0001:00014010       strlen                     0000000180015010 f   LIBCMT:strlen.obj
 0001:000140b8       _CxxThrowException         00000001800150b8 f   LIBCMT:throw.obj
 0001:00014180       ?_GetEstablisherFrame@@YAPEA_KPEA_KPEAU_xDISPATCHER_CONTEXT@@PEBU_s_FuncInfo@@0@Z 0000000180015180 f   LIBCMT:trnsctrl.obj
 0001:0001424c       ?_GetRangeOfTrysToCheck@@YAPEBU_s_TryBlockMapEntry@@PEA_KPEBU_s_FuncInfo@@HHPEAI2PEAU_xDISPATCHER_CONTEXT@@@Z 000000018001524c f   LIBCMT:trnsctrl.obj
 0001:00014378       ?__FrameUnwindToEmptyState@@YAXPEA_KPEAU_xDISPATCHER_CONTEXT@@PEBU_s_FuncInfo@@@Z 0000000180015378 f   LIBCMT:trnsctrl.obj
 0001:0001440c       ?__SehTransFilter@@YAHPEAU_EXCEPTION_POINTERS@@PEAUEHExceptionRecord@@PEA_KPEAU_CONTEXT@@PEAU_xDISPATCHER_CONTEXT@@PEBU_s_FuncInfo@@PEAH@Z 000000018001540c f   LIBCMT:trnsctrl.obj
 0001:000144b0       _CallSETranslator          00000001800154b0 f   LIBCMT:trnsctrl.obj
 0001:00014504       _CreateFrameInfo           0000000180015504 f   LIBCMT:trnsctrl.obj
 0001:00014548       _FindAndUnlinkFrame        0000000180015548 f   LIBCMT:trnsctrl.obj
 0001:000145a8       _GetImageBase              00000001800155a8 f   LIBCMT:trnsctrl.obj
 0001:000145c0       _GetThrowImageBase         00000001800155c0 f   LIBCMT:trnsctrl.obj
 0001:000145d8       _IsExceptionObjectToBeDestroyed 00000001800155d8 f   LIBCMT:trnsctrl.obj
 0001:0001460c       _SetImageBase              000000018001560c f   LIBCMT:trnsctrl.obj
 0001:00014628       _SetThrowImageBase         0000000180015628 f   LIBCMT:trnsctrl.obj
 0001:00014644       _UnwindNestedFrames        0000000180015644 f   LIBCMT:trnsctrl.obj
 0001:00014768       __CxxFrameHandler3         0000000180015768 f   LIBCMT:trnsctrl.obj
 0001:000147f0       _fpmath                    00000001800157f0 f   LIBCMT:fpinit.obj
 0001:000147f8       _cfltcvt_init              00000001800157f8 f   LIBCMT:fpinit.obj
 0001:00014880       ??0exception@std@@QEAA@AEBQEBD@Z 0000000180015880 f   LIBCMT:stdexcpt.obj
 0001:000148b0       ??0exception@std@@QEAA@AEBQEBDH@Z 00000001800158b0 f   LIBCMT:stdexcpt.obj
 0001:000148cc       ??0exception@std@@QEAA@AEBV01@@Z 00000001800158cc f   LIBCMT:stdexcpt.obj
 0001:000148f8       ??1exception@std@@UEAA@XZ  00000001800158f8 f   LIBCMT:stdexcpt.obj
 0001:00014908       ??4exception@std@@QEAAAEAV01@AEBV01@@Z 0000000180015908 f   LIBCMT:stdexcpt.obj
 0001:0001494c       ??_Eexception@std@@UEAAPEAXI@Z 000000018001594c f i LIBCMT:stdexcpt.obj
 0001:0001494c       ??_Gexception@std@@UEAAPEAXI@Z 000000018001594c f i LIBCMT:stdexcpt.obj
 0001:00014988       ?_Copy_str@exception@std@@AEAAXPEBD@Z 0000000180015988 f   LIBCMT:stdexcpt.obj
 0001:000149e4       ?_Tidy@exception@std@@AEAAXXZ 00000001800159e4 f   LIBCMT:stdexcpt.obj
 0001:00014a0c       ?what@exception@std@@UEBAPEBDXZ 0000000180015a0c f   LIBCMT:stdexcpt.obj
 0001:00014a20       __raise_securityfailure    0000000180015a20 f   LIBCMT:gs_report.obj
 0001:00014a6c       __report_gsfailure         0000000180015a6c f   LIBCMT:gs_report.obj
 0001:00014b40       __isa_available_init       0000000180015b40 f   LIBCMT:cpu_disp.obj
 0001:00014ce4       ?_inconsistency@@YAXXZ     0000000180015ce4 f   LIBCMT:hooks.obj
 0001:00014d04       ?terminate@@YAXXZ          0000000180015d04 f   LIBCMT:hooks.obj
 0001:00014d24       _initp_eh_hooks            0000000180015d24 f   LIBCMT:hooks.obj
 0001:00014d44       __C_specific_handler       0000000180015d44 f   LIBCMT:chandler.obj
 0001:00014f28       __copy_path_to_wide_string 0000000180015f28 f   LIBCMT:crt0dat.obj
 0001:00015028       __crtCorExitProcess        0000000180016028 f   LIBCMT:crt0dat.obj
 0001:0001506c       __crtExitProcess           000000018001606c f   LIBCMT:crt0dat.obj
 0001:00015084       __freeCrtMemory            0000000180016084 f   LIBCMT:crt0dat.obj
 0001:000151cc       _amsg_exit                 00000001800161cc f   LIBCMT:crt0dat.obj
 0001:000151f4       _cexit                     00000001800161f4 f   LIBCMT:crt0dat.obj
 0001:00015204       _cinit                     0000000180016204 f   LIBCMT:crt0dat.obj
 0001:0001529c       _exit                      000000018001629c f   LIBCMT:crt0dat.obj
 0001:000152a8       _init_pointers             00000001800162a8 f   LIBCMT:crt0dat.obj
 0001:00015354       _initterm_e                0000000180016354 f   LIBCMT:crt0dat.obj
 0001:00015390       _lockexit                  0000000180016390 f   LIBCMT:crt0dat.obj
 0001:0001539c       _unlockexit                000000018001639c f   LIBCMT:crt0dat.obj
 0001:00015540       _msize                     0000000180016540 f   LIBCMT:msize.obj
 0001:0001557c       _calloc_crt                000000018001657c f   LIBCMT:crtheap.obj
 0001:000155fc       _malloc_crt                00000001800165fc f   LIBCMT:crtheap.obj
 0001:00015678       _realloc_crt               0000000180016678 f   LIBCMT:crtheap.obj
 0001:000156fc       _recalloc_crt              00000001800166fc f   LIBCMT:crtheap.obj
 0001:00015780       _set_abort_behavior        0000000180016780 f   LIBCMT:abort.obj
 0001:0001579c       abort                      000000018001679c f   LIBCMT:abort.obj
 0001:000157f4       _initp_misc_purevirt       00000001800167f4 f   LIBCMT:inithelp.obj
 0001:000157fc       free                       00000001800167fc f   LIBCMT:free.obj
 0001:0001583c       _clrfp                     000000018001683c f   LIBCMT:fpctrl.obj
 0001:0001585c       _ctrlfp                    000000018001685c f   LIBCMT:fpctrl.obj
 0001:000158d8       _set_statfp                00000001800168d8 f   LIBCMT:fpctrl.obj
 0001:000158f8       _statfp                    00000001800168f8 f   LIBCMT:fpctrl.obj
 0001:00015a30       _handle_error              0000000180016a30 f   LIBCMT:libm_error.obj
 0001:00015b58       _handle_errorf             0000000180016b58 f   LIBCMT:libm_error.obj
 0001:00015c8c       malloc                     0000000180016c8c f   LIBCMT:malloc.obj
 0001:00015d44       _callnewh                  0000000180016d44 f   LIBCMT:handler.obj
 0001:00015d78       _initp_heap_handler        0000000180016d78 f   LIBCMT:handler.obj
 0001:00015d80       _call_reportfault          0000000180016d80 f   LIBCMT:invarg.obj
 0001:00015e74       _initp_misc_invarg         0000000180016e74 f   LIBCMT:invarg.obj
 0001:00015e7c       _invalid_parameter         0000000180016e7c f   LIBCMT:invarg.obj
 0001:00015ee4       _invalid_parameter_noinfo  0000000180016ee4 f   LIBCMT:invarg.obj
 0001:00015f04       _invoke_watson             0000000180016f04 f   LIBCMT:invarg.obj
 0001:00015f40       _flsbuf                    0000000180016f40 f   LIBCMT:_flsbuf.obj
 0001:000160cc       _output_l                  00000001800170cc f   LIBCMT:output.obj
 0001:00016adc       _output_s_l                0000000180017adc f   LIBCMT:outputs.obj
 0001:00017634       __doserrno                 0000000180018634 f   LIBCMT:dosmap.obj
 0001:00017654       _dosmaperr                 0000000180018654 f   LIBCMT:dosmap.obj
 0001:000176a4       _errno                     00000001800186a4 f   LIBCMT:dosmap.obj
 0001:000176c4       _get_errno_from_oserr      00000001800186c4 f   LIBCMT:dosmap.obj
 0001:00017730       memset                     0000000180018730 f   LIBCMT:memset.obj
 0001:0001795c       _fcloseall                 000000018001895c f   LIBCMT:closeall.obj
 0001:00017a04       _fflush_nolock             0000000180018a04 f   LIBCMT:fflush.obj
 0001:00017a50       _flush                     0000000180018a50 f   LIBCMT:fflush.obj
 0001:00017acc       _flushall                  0000000180018acc f   LIBCMT:fflush.obj
 0001:00017ad8       fflush                     0000000180018ad8 f   LIBCMT:fflush.obj
 0001:00017c04       _lock                      0000000180018c04 f   LIBCMT:mlock.obj
 0001:00017c48       _mtdeletelocks             0000000180018c48 f   LIBCMT:mlock.obj
 0001:00017cd0       _mtinitlocknum             0000000180018cd0 f   LIBCMT:mlock.obj
 0001:00017d90       _mtinitlocks               0000000180018d90 f   LIBCMT:mlock.obj
 0001:00017df4       _unlock                    0000000180018df4 f   LIBCMT:mlock.obj
 0001:00017e0c       _wremove                   0000000180018e0c f   LIBCMT:wunlink.obj
 0001:00017e3c       memcpy_s                   0000000180018e3c f   LIBCMT:memcpy_s.obj
 0001:00017ec4       wcscat_s                   0000000180018ec4 f   LIBCMT:wcscat_s.obj
 0001:00017f4c       wcscpy_s                   0000000180018f4c f   LIBCMT:wcscpy_s.obj
 0001:00017fb8       wcslen                     0000000180018fb8 f   LIBCMT:wcslen.obj
 0001:00017fd4       wcsncat_s                  0000000180018fd4 f   LIBCMT:wcsncat_s.obj
 0001:000180bc       _set_error_mode            00000001800190bc f   LIBCMT:errmode.obj
 0001:000180fc       _itow_s                    00000001800190fc f   LIBCMT:xtows.obj
 0001:00018234       setvbuf                    0000000180019234 f   LIBCMT:setvbuf.obj
 0001:0001834c       fwprintf                   000000018001934c f   LIBCMT:fwprintf.obj
 0001:000183e0       _vswprintf_c_l             00000001800193e0 f   LIBCMT:vswprnc.obj
 0001:00018418       _vswprintf_helper          0000000180019418 f   LIBCMT:vswprnc.obj
 0001:00018534       __get_sigabrt              0000000180019534 f   LIBCMT:winsig.obj
 0001:00018544       _initp_misc_winsig         0000000180019544 f   LIBCMT:winsig.obj
 0001:00018564       raise                      0000000180019564 f   LIBCMT:winsig.obj
 0001:00018798       __crtMessageBoxW           0000000180019798 f   LIBCMT:crtmboxw.obj
 0001:00018a0c       __GSHandlerCheck           0000000180019a0c f   LIBCMT:gshandler.obj
 0001:00018a2c       __GSHandlerCheckCommon     0000000180019a2c f   LIBCMT:gshandler.obj
 0001:00018a90       _FF_MSGBANNER              0000000180019a90 f   LIBCMT:crt0msg.obj
 0001:00018ad4       _GET_RTERRMSG              0000000180019ad4 f   LIBCMT:crt0msg.obj
 0001:00018b04       _NMSG_WRITE                0000000180019b04 f   LIBCMT:crt0msg.obj
 0001:00018d74       _getstream                 0000000180019d74 f   LIBCMT:stream.obj
 0001:00018eac       _openfile                  0000000180019eac f   LIBCMT:_open.obj
 0001:00019180       _local_unwind              000000018001a180 f   LIBCMT:jmpuwind.obj
 0001:000191b0       _NLG_Notify                000000018001a1b0 f   LIBCMT:jmpuwind.obj
 0001:000191d0       __NLG_Dispatch2            000000018001a1d0 f   LIBCMT:jmpuwind.obj
 0001:000191e0       __NLG_Return2              000000018001a1e0 f   LIBCMT:jmpuwind.obj
 0001:000191e4       _fileno                    000000018001a1e4 f   LIBCMT:fileno.obj
 0001:0001920c       _ftbuf                     000000018001a20c f   LIBCMT:_sftbuf.obj
 0001:00019244       _stbuf                     000000018001a244 f   LIBCMT:_sftbuf.obj
 0001:00019314       _ioinit                    000000018001a314 f   LIBCMT:ioinit.obj
 0001:00019644       _ioterm                    000000018001a644 f   LIBCMT:ioinit.obj
 0001:000196b8       _freefls                   000000018001a6b8 f   LIBCMT:tidtable.obj
 0001:000197ec       _freeptd                   000000018001a7ec f   LIBCMT:tidtable.obj
 0001:00019828       _getptd                    000000018001a828 f   LIBCMT:tidtable.obj
 0001:0001984c       _getptd_noexit             000000018001a84c f   LIBCMT:tidtable.obj
 0001:000198d0       _initptd                   000000018001a8d0 f   LIBCMT:tidtable.obj
 0001:00019994       _mtinit                    000000018001a994 f   LIBCMT:tidtable.obj
 0001:00019a14       _mtterm                    000000018001aa14 f   LIBCMT:tidtable.obj
 0001:00019a38       strcpy_s                   000000018001aa38 f   LIBCMT:strcpy_s.obj
 0001:00019a9c       strnlen                    000000018001aa9c f   LIBCMT:strlen_s.obj
 0001:00019ab4       __wtomb_environ            000000018001aab4 f   LIBCMT:wtombenv.obj
 0001:00019ba8       _mbsnbicoll                000000018001aba8 f   LIBCMT:mbsnbico.obj
 0001:00019bb0       _mbsnbicoll_l              000000018001abb0 f   LIBCMT:mbsnbico.obj
 0001:00019cc0       strcmp                     000000018001acc0 f   LIBCMT:strcmp.obj
 0001:00019d28       ?_Type_info_dtor@type_info@@CAXPEAV1@@Z 000000018001ad28 f   LIBCMT:typname.obj
 0001:00019d94       _close                     000000018001ad94 f   LIBCMT:close.obj
 0001:00019e58       _close_nolock              000000018001ae58 f   LIBCMT:close.obj
 0001:00019f14       _freebuf                   000000018001af14 f   LIBCMT:_freebuf.obj
 0001:00019f4c       __addlocaleref             000000018001af4c f   LIBCMT:localref.obj
 0001:00019fd8       __freetlocinfo             000000018001afd8 f   LIBCMT:localref.obj
 0001:0001a170       __removelocaleref          000000018001b170 f   LIBCMT:localref.obj
 0001:0001a214       __updatetlocinfo           000000018001b214 f   LIBCMT:localref.obj
 0001:0001a28c       _updatetlocinfoEx_nolock   000000018001b28c f   LIBCMT:localref.obj
 0001:0001a2f0       __initmbctable             000000018001b2f0 f   LIBCMT:mbctype.obj
 0001:0001a60c       __updatetmbcinfo           000000018001b60c f   LIBCMT:mbctype.obj
 0001:0001a6c8       _setmbcp                   000000018001b6c8 f   LIBCMT:mbctype.obj
 0001:0001a90c       _setmbcp_nolock            000000018001b90c f   LIBCMT:mbctype.obj
 0001:0001abbc       _tolower_l                 000000018001bbbc f   LIBCMT:tolower.obj
 0001:0001ad10       tolower                    000000018001bd10 f   LIBCMT:tolower.obj
 0001:0001ad30       _locterm                   000000018001bd30 f   LIBCMT:wsetloca.obj
 0001:0001ad78       _XcptFilter                000000018001bd78 f   LIBCMT:winxfltr.obj
 0001:0001af44       __CppXcptFilter            000000018001bf44 f   LIBCMT:winxfltr.obj
 0001:0001af58       _heap_init                 000000018001bf58 f   LIBCMT:heapinit.obj
 0001:0001af78       _heap_term                 000000018001bf78 f   LIBCMT:heapinit.obj
 0001:0001af84       _setargv                   000000018001bf84 f   LIBCMT:stdargv.obj
 0001:0001b240       _setenvp                   000000018001c240 f   LIBCMT:stdenvp.obj
 0001:0001b374       __security_init_cookie     000000018001c374 f   LIBCMT:gs_support.obj
 0001:0001b420       DllMain                    000000018001c420 f   LIBCMT:dllmain.obj
 0001:0001b428       __crtGetEnvironmentStringsA 000000018001c428 f   LIBCMT:a_env.obj
 0001:0001b51c       __crtCaptureCurrentContext 000000018001c51c f   LIBCMT:winapisupp.obj
 0001:0001b58c       __crtCapturePreviousContext 000000018001c58c f   LIBCMT:winapisupp.obj
 0001:0001b600       __crtFlsAlloc              000000018001c600 f   LIBCMT:winapisupp.obj
 0001:0001b61c       __crtFlsFree               000000018001c61c f   LIBCMT:winapisupp.obj
 0001:0001b638       __crtFlsGetValue           000000018001c638 f   LIBCMT:winapisupp.obj
 0001:0001b654       __crtFlsSetValue           000000018001c654 f   LIBCMT:winapisupp.obj
 0001:0001b670       __crtInitializeCriticalSectionEx 000000018001c670 f   LIBCMT:winapisupp.obj
 0001:0001b69c       __crtIsPackagedApp         000000018001c69c f   LIBCMT:winapisupp.obj
 0001:0001b6e8       __crtLoadWinApiPointers    000000018001c6e8 f   LIBCMT:winapisupp.obj
 0001:0001bae4       __crtSleep                 000000018001cae4 f   LIBCMT:winapisupp.obj
 0001:0001baec       __crtTerminateProcess      000000018001caec f   LIBCMT:winapisupp.obj
 0001:0001bb0c       __crtUnhandledException    000000018001cb0c f   LIBCMT:winapisupp.obj
 0001:0001bb2c       _RTC_Initialize            000000018001cb2c f   LIBCMT:initsect.obj
 0001:0001bb64       _RTC_Terminate             000000018001cb64 f   LIBCMT:initsect.obj
 0001:0001bb9c       __DestructExceptionObject  000000018001cb9c f   LIBCMT:frame.obj
 0001:0001bc0c       ??0bad_exception@std@@QEAA@AEBV01@@Z 000000018001cc0c f i LIBCMT:frame.obj
 0001:0001bc30       ??1bad_exception@std@@UEAA@XZ 000000018001cc30 f i LIBCMT:frame.obj
 0001:0001bc40       ??_Ebad_exception@std@@UEAAPEAXI@Z 000000018001cc40 f i LIBCMT:frame.obj
 0001:0001bc40       ??_Gbad_exception@std@@UEAAPEAXI@Z 000000018001cc40 f i LIBCMT:frame.obj
 0001:0001c534       __AdjustPointer            000000018001d534 f   LIBCMT:frame.obj
 0001:0001c558       __BuildCatchObject         000000018001d558 f   LIBCMT:frame.obj
 0001:0001c610       __BuildCatchObjectHelper   000000018001d610 f   LIBCMT:frame.obj
 0001:0001c860       __CxxCallCatchBlock        000000018001d860 f   LIBCMT:frame.obj
 0001:0001ca64       __FrameUnwindFilter        000000018001da64 f   LIBCMT:frame.obj
 0001:0001cab8       __FrameUnwindToState       000000018001dab8 f   LIBCMT:frame.obj
 0001:0001cc4c       __InternalCxxFrameHandler  000000018001dc4c f   LIBCMT:frame.obj
 0001:0001ce70       __TypeMatch                000000018001de70 f   LIBCMT:frame.obj
 0001:0001cfa0       ?__GetCurrentState@@YAHPEA_KPEAU_xDISPATCHER_CONTEXT@@PEBU_s_FuncInfo@@@Z 000000018001dfa0 f   LIBCMT:ehstate.obj
 0001:0001cfc8       ?__GetUnwindTryBlock@@YAHPEA_KPEAU_xDISPATCHER_CONTEXT@@PEBU_s_FuncInfo@@@Z 000000018001dfc8 f   LIBCMT:ehstate.obj
 0001:0001cff4       ?__SetState@@YAXPEA_KPEAU_xDISPATCHER_CONTEXT@@PEBU_s_FuncInfo@@H@Z 000000018001dff4 f   LIBCMT:ehstate.obj
 0001:0001d000       ?__SetUnwindTryBlock@@YAXPEA_KPEAU_xDISPATCHER_CONTEXT@@PEBU_s_FuncInfo@@H@Z 000000018001e000 f   LIBCMT:ehstate.obj
 0001:0001d03c       ?__StateFromControlPc@@YAHPEBU_s_FuncInfo@@PEAU_xDISPATCHER_CONTEXT@@@Z 000000018001e03c f   LIBCMT:ehstate.obj
 0001:0001d044       ?__StateFromIp@@YAHPEBU_s_FuncInfo@@PEAU_xDISPATCHER_CONTEXT@@_J@Z 000000018001e044 f   LIBCMT:ehstate.obj
 0001:0001d0d0       _cfltcvt                   000000018001e0d0 f   LIBCMT:cvt.obj
 0001:0001d0f4       _cfltcvt_l                 000000018001e0f4 f   LIBCMT:cvt.obj
 0001:0001d174       _cftoa_l                   000000018001e174 f   LIBCMT:cvt.obj
 0001:0001d720       _cftoe_l                   000000018001e720 f   LIBCMT:cvt.obj
 0001:0001d97c       _cftof_l                   000000018001e97c f   LIBCMT:cvt.obj
 0001:0001da50       _cftog_l                   000000018001ea50 f   LIBCMT:cvt.obj
 0001:0001db84       _cropzeros                 000000018001eb84 f   LIBCMT:cvt.obj
 0001:0001db8c       _cropzeros_l               000000018001eb8c f   LIBCMT:cvt.obj
 0001:0001dc24       _fassign                   000000018001ec24 f   LIBCMT:cvt.obj
 0001:0001dc2c       _fassign_l                 000000018001ec2c f   LIBCMT:cvt.obj
 0001:0001dc6c       _forcdecpt                 000000018001ec6c f   LIBCMT:cvt.obj
 0001:0001dc74       _forcdecpt_l               000000018001ec74 f   LIBCMT:cvt.obj
 0001:0001dcf4       _positive                  000000018001ecf4 f   LIBCMT:cvt.obj
 0001:0001dd08       _initp_misc_cfltcvt_tab    000000018001ed08 f   LIBCMT:cmiscdat.obj
 0001:0001dd44       __crt_debugger_hook        000000018001ed44 f   LIBCMT:dbghook.obj
 0001:0001dd50       _FindPESection             000000018001ed50 f   LIBCMT:pesect.obj
 0001:0001dda0       _IsNonwritableInCurrentImage 000000018001eda0 f   LIBCMT:pesect.obj
 0001:0001ddf0       _ValidateImageBase         000000018001edf0 f   LIBCMT:pesect.obj
 0001:0001de20       _initp_misc_rand_s         000000018001ee20 f   LIBCMT:rand_s.obj
 0001:0001de28       realloc                    000000018001ee28 f   LIBCMT:realloc.obj
 0001:0001defc       _recalloc                  000000018001eefc f   LIBCMT:recalloc.obj
 0001:0001df84       _calloc_impl               000000018001ef84 f   LIBCMT:calloc_impl.obj
 0001:0001e020       GetTableIndexFromLocaleName 000000018001f020 f   LIBCMT:winapinls.obj
 0001:0001e0ac       __crtCompareStringEx       000000018001f0ac f   LIBCMT:winapinls.obj
 0001:0001e13c       __crtDownlevelLocaleNameToLCID 000000018001f13c f   LIBCMT:winapinls.obj
 0001:0001e170       __crtLCMapStringEx         000000018001f170 f   LIBCMT:winapinls.obj
 0001:0001e200       __wcsnicmp_ascii           000000018001f200 f   LIBCMT:winapinls.obj
 0001:0001e270       _get_fpsr                  000000018001f270 f   LIBCMT:fpsr.obj
 0001:0001e280       _set_fpsr                  000000018001f280 f   LIBCMT:fpsr.obj
 0001:0001e28a       _fclrf                     000000018001f28a f   LIBCMT:fpsr.obj
 0001:0001e29e       _frnd                      000000018001f29e f   LIBCMT:fpsr.obj
 0001:0001e2c0       _raise_exc                 000000018001f2c0 f   LIBCMT:fpexcept.obj
 0001:0001e2e8       _raise_exc_ex              000000018001f2e8 f   LIBCMT:fpexcept.obj
 0001:0001e5ec       _raise_excf                000000018001f5ec f   LIBCMT:fpexcept.obj
 0001:0001e618       _set_errno_from_matherr    000000018001f618 f   LIBCMT:fpexcept.obj
 0001:0001e648       _matherr                   000000018001f648 f   LIBCMT:matherr.obj
 0001:0001e64c       _isatty                    000000018001f64c f   LIBCMT:isatty.obj
 0001:0001e6ac       _write                     000000018001f6ac f   LIBCMT:write.obj
 0001:0001e790       _write_nolock              000000018001f790 f   LIBCMT:write.obj
 0001:0001ef84       _lseeki64                  000000018001ff84 f   LIBCMT:lseeki64.obj
 0001:0001f06c       _lseeki64_nolock           000000018002006c f   LIBCMT:lseeki64.obj
 0001:0001f100       _getbuf                    0000000180020100 f   LIBCMT:_getbuf.obj
 0001:0001f154       _isleadbyte_l              0000000180020154 f i LIBCMT:_wctype.obj
 0001:0001f198       isleadbyte                 0000000180020198 f i LIBCMT:_wctype.obj
 0001:0001f1e0       _get_printf_count_output   00000001800201e0 f   LIBCMT:printf.obj
 0001:0001f1f8       _wctomb_s_l                00000001800201f8 f   LIBCMT:wctomb.obj
 0001:0001f384       wctomb_s                   0000000180020384 f   LIBCMT:wctomb.obj
 0001:0001f398       _commit                    0000000180020398 f   LIBCMT:commit.obj
 0001:0001f470       _woutput_l                 0000000180020470 f   LIBCMT:woutput.obj
 0001:00020030       wcsncpy_s                  0000000180021030 f   LIBCMT:wcsncpy_s.obj
 0001:000200fc       _sopen_helper              00000001800210fc f   LIBCMT:open.obj
 0001:000201dc       _sopen_nolock              00000001800211dc f   LIBCMT:open.obj
 0001:00020264       _sopen_s                   0000000180021264 f   LIBCMT:open.obj
 0001:00020298       _mbsnbcmp                  0000000180021298 f   LIBCMT:mbsnbcmp.obj
 0001:000202a0       _mbsnbcmp_l                00000001800212a0 f   LIBCMT:mbsnbcmp.obj
 0001:000203cc       _mbsnbicmp                 00000001800213cc f   LIBCMT:mbsnbicm.obj
 0001:000203d4       _mbsnbicmp_l               00000001800213d4 f   LIBCMT:mbsnbicm.obj
 0001:00020584       __crtsetenv                0000000180021584 f   LIBCMT:setenv.obj
 0001:00020938       _strnicoll_l               0000000180021938 f   LIBCMT:strnicol.obj
 0001:00020da0       __crtCompareStringA        0000000180021da0 f   LIBCMT:a_cmp.obj
 0001:00020e2c       __lock_fhandle             0000000180021e2c f   LIBCMT:osfinfo.obj
 0001:00020ec4       _alloc_osfhnd              0000000180021ec4 f   LIBCMT:osfinfo.obj
 0001:000210bc       _free_osfhnd               00000001800220bc f   LIBCMT:osfinfo.obj
 0001:00021168       _get_osfhandle             0000000180022168 f   LIBCMT:osfinfo.obj
 0001:000211dc       _set_osfhnd                00000001800221dc f   LIBCMT:osfinfo.obj
 0001:0002128c       _unlock_fhandle            000000018002228c f   LIBCMT:osfinfo.obj
 0001:000212b8       __free_lconv_mon           00000001800222b8 f   LIBCMT:initmon.obj
 0001:000213c4       __free_lconv_num           00000001800223c4 f   LIBCMT:initnum.obj
 0001:00021430       __free_lc_time             0000000180022430 f   LIBCMT:inittime.obj
 0001:00021b18       __crtLCMapStringA          0000000180022b18 f   LIBCMT:a_map.obj
 0001:00021d28       __crtGetStringTypeA        0000000180022d28 f   LIBCMT:a_str.obj
 0001:00021da4       _isctype_l                 0000000180022da4 f   LIBCMT:isctype.obj
 0001:00021e90       memcmp                     0000000180022e90 f   LIBCMT:memcmp.obj
 0001:00021fd4       _ismbblead                 0000000180022fd4 f   LIBCMT:ismbbyte.obj
 0001:00021fe8       ?_ValidateWrite@@YAHPEAXI@Z 0000000180022fe8 f   LIBCMT:validate.obj
 0001:00021fe8       ?_ValidateExecute@@YAHP6A_JXZ@Z 0000000180022fe8 f   LIBCMT:validate.obj
 0001:00021fe8       ?_ValidateRead@@YAHPEBXI@Z 0000000180022fe8 f   LIBCMT:validate.obj
 0001:00022010       _CallSettingFrame          0000000180023010 f   LIBCMT:handlers.obj
 0001:00022050       _GetNextInstrOffset        0000000180023050 f   LIBCMT:handlers.obj
 0001:00022058       isdigit                    0000000180023058 f i LIBCMT:_ctype.obj
 0001:000220d4       strrchr                    00000001800230d4 f   LIBCMT:strrchr.obj
 0001:00022218       _fptostr                   0000000180023218 f   LIBCMT:_fptostr.obj
 0001:000222e4       __crt_atoflt_l             00000001800232e4 f   LIBCMT:atodbl.obj
 0001:000223b4       _atodbl_l                  00000001800233b4 f   LIBCMT:atodbl.obj
 0001:0002247c       _atoflt_l                  000000018002347c f   LIBCMT:atodbl.obj
 0001:00022484       __dtold                    0000000180023484 f   LIBCMT:cfout.obj
 0001:00022554       _fltout2                   0000000180023554 f   LIBCMT:cfout.obj
 0001:0002260c       _fptrap                    000000018002360c f   LIBCMT:crt0fp.obj
 0001:00022630       __chkstk                   0000000180023630 f   LIBCMT:chkstk.obj
 0001:00022630       _alloca_probe              0000000180023630 f   LIBCMT:chkstk.obj
 0001:00022680       _mbtowc_l                  0000000180023680 f   LIBCMT:mbtowc.obj
 0001:000227d4       mbtowc                     00000001800237d4 f   LIBCMT:mbtowc.obj
 0001:000227dc       _putwch_nolock             00000001800237dc f   LIBCMT:putwch.obj
 0001:00022838       _fputwc_nolock             0000000180023838 f   LIBCMT:fputwc.obj
 0001:00022b1c       _wsopen_nolock             0000000180023b1c f   LIBCMT:wopen.obj
 0001:000232f0       strncmp                    00000001800242f0 f   LIBCMT:strncmp.obj
 0001:00023370       __ascii_strnicmp           0000000180024370 f   LIBCMT:strnicmp.obj
 0001:000233b8       _strnicmp                  00000001800243b8 f   LIBCMT:strnicmp.obj
 0001:00023408       _strnicmp_l                0000000180024408 f   LIBCMT:strnicmp.obj
 0001:000234e4       _strdup                    00000001800244e4 f   LIBCMT:strdup.obj
 0001:00023554       _mbschr                    0000000180024554 f   LIBCMT:mbschr.obj
 0001:0002355c       _mbschr_l                  000000018002455c f   LIBCMT:mbschr.obj
 0001:0002361c       _ld12tod                   000000018002461c f   LIBCMT:intrncvt.obj
 0001:00023bd4       _ld12tof                   0000000180024bd4 f   LIBCMT:intrncvt.obj
 0001:0002418c       __strgtold12_l             000000018002518c f   LIBCMT:strgtold.obj
 0001:000249f0       $I10_OUTPUT                00000001800259f0 f   LIBCMT:x10fout.obj
 0001:000254c8       __termconout               00000001800264c8 f   LIBCMT:initcon.obj
 0001:000254e8       __initconout               00000001800264e8 f   LIBCMT:initcon.obj
 0001:00025524       _flswbuf                   0000000180026524 f   LIBCMT:_flswbuf.obj
 0001:000256b4       _chsize_nolock             00000001800266b4 f   LIBCMT:chsize.obj
 0001:0002584c       _read_nolock               000000018002684c f   LIBCMT:read.obj
 0001:000260bc       _get_fmode                 00000001800270bc f   LIBCMT:setmode.obj
 0001:000260ec       _setmode_nolock            00000001800270ec f   LIBCMT:setmode.obj
 0001:000261c8       strchr                     00000001800271c8 f   LIBCMT:strchr.obj
 0001:00026254       __mtold12                  0000000180027254 f   LIBCMT:mantold.obj
 0001:00026480       RtlUnwindEx                0000000180027480 f   kernel32:KERNEL32.dll
 0001:00026486       IsProcessorFeaturePresent  0000000180027486 f   kernel32:KERNEL32.dll
 0001:0002648c       __delayLoadHelper2         000000018002748c f   DelayImp:delayhlp.obj
 0001:00026724       __GSHandlerCheck_EH        0000000180027724 f   LIBCMT:gshandlereh.obj
 0001:000267c0       cos                        00000001800277c0 f   LIBCMT:cos.obj
 0001:00026d20       cosf                       0000000180027d20 f   LIBCMT:cosf.obj
 0001:00027220       expf                       0000000180028220 f   LIBCMT:expf.obj
 0001:00027488       floor                      0000000180028488 f   LIBCMT:floor.obj
 0001:00027590       powf                       0000000180028590 f   LIBCMT:powf.obj
 0001:00028120       sin                        0000000180029120 f   LIBCMT:sin.obj
 0001:00028640       sinf                       0000000180029640 f   LIBCMT:sinf.obj
 0001:00028d10       __fma3_lib_init            0000000180029d10 f   LIBCMT:fma3_available.obj
 0001:00028d50       __remainder_piby2_forAsm   0000000180029d50 f   LIBCMT:remainder_piby2_forAsm.obj
 0001:00028f60       __remainder_piby2_cw_forAsm 0000000180029f60 f   LIBCMT:remainder_piby2_forAsm.obj
 0001:000290a0       __remainder_piby2_fma3     000000018002a0a0 f   LIBCMT:remainder_piby2_forFMA3.obj
 0001:00029290       __remainder_piby2_fma3_bdl 000000018002a290 f   LIBCMT:remainder_piby2_forFMA3.obj
 0001:00029308       _cos_special               000000018002a308 f   LIBCMT:sincos_special.obj
 0001:0002931c       _cosf_special              000000018002a31c f   LIBCMT:sincos_special.obj
 0001:00029330       _sin_special               000000018002a330 f   LIBCMT:sincos_special.obj
 0001:00029344       _sincos_special            000000018002a344 f   LIBCMT:sincos_special.obj
 0001:00029418       _sincosf_special           000000018002a418 f   LIBCMT:sincos_special.obj
 0001:000294b4       _sinf_special              000000018002a4b4 f   LIBCMT:sincos_special.obj
 0001:000294d0       __remainder_piby2d2f_forAsm 000000018002a4d0 f   LIBCMT:remainder_piby2f_forAsm.obj
 0001:00029620       _expf_special              000000018002a620 f   LIBCMT:exp_special.obj
 0001:00029700       _powf_special              000000018002a700 f   LIBCMT:pow_special.obj
 0001:00029830       __remainder_piby2d2f_forC  000000018002a830 f   LIBCMT:remainder_piby2f_forC.obj
 0001:0002b8f0       ??__Fs_path@?1??temporary_path@cimg@cimg_library@@YAPEBDQEBD_N@Z@YAXXZ 000000018002c8f0 f i image.obj
 0001:0002b910       ??__Fs_path@?1??programfiles_path@cimg@cimg_library@@YAPEBDQEBD_N@Z@YAXXZ 000000018002c910 f i image.obj
 0001:0002b930       ??__Fs_path@?1??imagemagick_path@cimg@cimg_library@@YAPEBDQEBD_N@Z@YAXXZ 000000018002c930 f i image.obj
 0001:0002b950       ??__Fs_path@?1??graphicsmagick_path@cimg@cimg_library@@YAPEBDQEBD_N@Z@YAXXZ 000000018002c950 f i image.obj
 0001:0002b970       ??__Fs_path@?1??medcon_path@cimg@cimg_library@@YAPEBDQEBD_N@Z@YAXXZ 000000018002c970 f i image.obj
 0001:0002b990       ??__Fres@?1??strbuffersize@cimg@cimg_library@@YAPEBDK@Z@YAXXZ 000000018002c990 f i image.obj
 0002:00000000       __imp_WaitForSingleObject  000000018002d000     kernel32:KERNEL32.dll
 0002:00000008       __imp_GetShortPathNameA    000000018002d008     kernel32:KERNEL32.dll
 0002:00000010       __imp_GetLocalTime         000000018002d010     kernel32:KERNEL32.dll
 0002:00000018       __imp_CreateMutexA         000000018002d018     kernel32:KERNEL32.dll
 0002:00000020       __imp_ReleaseMutex         000000018002d020     kernel32:KERNEL32.dll
 0002:00000028       __imp_GetModuleHandleA     000000018002d028     kernel32:KERNEL32.dll
 0002:00000030       __imp_ReadConsoleW         000000018002d030     kernel32:KERNEL32.dll
 0002:00000038       __imp_ReadFile             000000018002d038     kernel32:KERNEL32.dll
 0002:00000040       __imp_EncodePointer        000000018002d040     kernel32:KERNEL32.dll
 0002:00000048       __imp_DecodePointer        000000018002d048     kernel32:KERNEL32.dll
 0002:00000050       __imp_EnterCriticalSection 000000018002d050     kernel32:KERNEL32.dll
 0002:00000058       __imp_LeaveCriticalSection 000000018002d058     kernel32:KERNEL32.dll
 0002:00000060       __imp_GetCurrentProcessId  000000018002d060     kernel32:KERNEL32.dll
 0002:00000068       __imp_GetStdHandle         000000018002d068     kernel32:KERNEL32.dll
 0002:00000070       __imp_GetFileType          000000018002d070     kernel32:KERNEL32.dll
 0002:00000078       __imp_GetModuleFileNameW   000000018002d078     kernel32:KERNEL32.dll
 0002:00000080       __imp_GetModuleHandleExW   000000018002d080     kernel32:KERNEL32.dll
 0002:00000088       __imp_WriteConsoleW        000000018002d088     kernel32:KERNEL32.dll
 0002:00000090       __imp_GetCommandLineA      000000018002d090     kernel32:KERNEL32.dll
 0002:00000098       __imp_GetCurrentThreadId   000000018002d098     kernel32:KERNEL32.dll
 0002:000000a0       __imp_RtlPcToFileHeader    000000018002d0a0     kernel32:KERNEL32.dll
 0002:000000a8       __imp_RaiseException       000000018002d0a8     kernel32:KERNEL32.dll
 0002:000000b0       __imp_RtlLookupFunctionEntry 000000018002d0b0     kernel32:KERNEL32.dll
 0002:000000b8       __imp_RtlUnwindEx          000000018002d0b8     kernel32:KERNEL32.dll
 0002:000000c0       __imp_IsDebuggerPresent    000000018002d0c0     kernel32:KERNEL32.dll
 0002:000000c8       __imp_IsProcessorFeaturePresent 000000018002d0c8     kernel32:KERNEL32.dll
 0002:000000d0       __imp_GetLastError         000000018002d0d0     kernel32:KERNEL32.dll
 0002:000000d8       __imp_ExitProcess          000000018002d0d8     kernel32:KERNEL32.dll
 0002:000000e0       __imp_GetProcAddress       000000018002d0e0     kernel32:KERNEL32.dll
 0002:000000e8       __imp_AreFileApisANSI      000000018002d0e8     kernel32:KERNEL32.dll
 0002:000000f0       __imp_MultiByteToWideChar  000000018002d0f0     kernel32:KERNEL32.dll
 0002:000000f8       __imp_WideCharToMultiByte  000000018002d0f8     kernel32:KERNEL32.dll
 0002:00000100       __imp_HeapSize             000000018002d100     kernel32:KERNEL32.dll
 0002:00000108       __imp_HeapFree             000000018002d108     kernel32:KERNEL32.dll
 0002:00000110       __imp_HeapAlloc            000000018002d110     kernel32:KERNEL32.dll
 0002:00000118       __imp_DeleteCriticalSection 000000018002d118     kernel32:KERNEL32.dll
 0002:00000120       __imp_DeleteFileW          000000018002d120     kernel32:KERNEL32.dll
 0002:00000128       __imp_OutputDebugStringW   000000018002d128     kernel32:KERNEL32.dll
 0002:00000130       __imp_LoadLibraryExW       000000018002d130     kernel32:KERNEL32.dll
 0002:00000138       __imp_WriteFile            000000018002d138     kernel32:KERNEL32.dll
 0002:00000140       __imp_GetStartupInfoW      000000018002d140     kernel32:KERNEL32.dll
 0002:00000148       __imp_SetLastError         000000018002d148     kernel32:KERNEL32.dll
 0002:00000150       __imp_CloseHandle          000000018002d150     kernel32:KERNEL32.dll
 0002:00000158       __imp_IsValidCodePage      000000018002d158     kernel32:KERNEL32.dll
 0002:00000160       __imp_GetACP               000000018002d160     kernel32:KERNEL32.dll
 0002:00000168       __imp_GetOEMCP             000000018002d168     kernel32:KERNEL32.dll
 0002:00000170       __imp_GetCPInfo            000000018002d170     kernel32:KERNEL32.dll
 0002:00000178       __imp_GetProcessHeap       000000018002d178     kernel32:KERNEL32.dll
 0002:00000180       __imp_GetModuleFileNameA   000000018002d180     kernel32:KERNEL32.dll
 0002:00000188       __imp_QueryPerformanceCounter 000000018002d188     kernel32:KERNEL32.dll
 0002:00000190       __imp_GetSystemTimeAsFileTime 000000018002d190     kernel32:KERNEL32.dll
 0002:00000198       __imp_GetEnvironmentStringsW 000000018002d198     kernel32:KERNEL32.dll
 0002:000001a0       __imp_FreeEnvironmentStringsW 000000018002d1a0     kernel32:KERNEL32.dll
 0002:000001a8       __imp_RtlCaptureContext    000000018002d1a8     kernel32:KERNEL32.dll
 0002:000001b0       __imp_RtlVirtualUnwind     000000018002d1b0     kernel32:KERNEL32.dll
 0002:000001b8       __imp_UnhandledExceptionFilter 000000018002d1b8     kernel32:KERNEL32.dll
 0002:000001c0       __imp_SetUnhandledExceptionFilter 000000018002d1c0     kernel32:KERNEL32.dll
 0002:000001c8       __imp_InitializeCriticalSectionAndSpinCount 000000018002d1c8     kernel32:KERNEL32.dll
 0002:000001d0       __imp_Sleep                000000018002d1d0     kernel32:KERNEL32.dll
 0002:000001d8       __imp_GetCurrentProcess    000000018002d1d8     kernel32:KERNEL32.dll
 0002:000001e0       __imp_TerminateProcess     000000018002d1e0     kernel32:KERNEL32.dll
 0002:000001e8       __imp_TlsAlloc             000000018002d1e8     kernel32:KERNEL32.dll
 0002:000001f0       __imp_TlsGetValue          000000018002d1f0     kernel32:KERNEL32.dll
 0002:000001f8       __imp_TlsSetValue          000000018002d1f8     kernel32:KERNEL32.dll
 0002:00000200       __imp_TlsFree              000000018002d200     kernel32:KERNEL32.dll
 0002:00000208       __imp_GetModuleHandleW     000000018002d208     kernel32:KERNEL32.dll
 0002:00000210       __imp_FreeLibrary          000000018002d210     kernel32:KERNEL32.dll
 0002:00000218       __imp_HeapReAlloc          000000018002d218     kernel32:KERNEL32.dll
 0002:00000220       __imp_CompareStringW       000000018002d220     kernel32:KERNEL32.dll
 0002:00000228       __imp_LCMapStringW         000000018002d228     kernel32:KERNEL32.dll
 0002:00000230       __imp_GetConsoleCP         000000018002d230     kernel32:KERNEL32.dll
 0002:00000238       __imp_GetConsoleMode       000000018002d238     kernel32:KERNEL32.dll
 0002:00000240       __imp_SetFilePointerEx     000000018002d240     kernel32:KERNEL32.dll
 0002:00000248       __imp_FlushFileBuffers     000000018002d248     kernel32:KERNEL32.dll
 0002:00000250       __imp_SetEnvironmentVariableA 000000018002d250     kernel32:KERNEL32.dll
 0002:00000258       __imp_SetStdHandle         000000018002d258     kernel32:KERNEL32.dll
 0002:00000260       __imp_GetStringTypeW       000000018002d260     kernel32:KERNEL32.dll
 0002:00000268       __imp_CreateFileW          000000018002d268     kernel32:KERNEL32.dll
 0002:00000270       __imp_SetEndOfFile         000000018002d270     kernel32:KERNEL32.dll
 0002:00000278       __imp_LoadLibraryExA       000000018002d278     kernel32:KERNEL32.dll
 0002:00000280       \177KERNEL32_NULL_THUNK_DATA 000000018002d280     kernel32:KERNEL32.dll
 0002:00000288       __imp_SHGetSpecialFolderPathA 000000018002d288     shell32:SHELL32.dll
 0002:00000290       \177SHELL32_NULL_THUNK_DATA 000000018002d290     shell32:SHELL32.dll
 0002:00000298       __xc_a                     000000018002d298     LIBCMT:crt0init.obj
 0002:00000378       _register_lwip_image_      000000018002d378     init.obj
 0002:00000380       __xc_z                     000000018002d380     LIBCMT:crt0init.obj
 0002:00000388       __xi_a                     000000018002d388     LIBCMT:crt0init.obj
 0002:000003b8       __xi_z                     000000018002d3b8     LIBCMT:crt0init.obj
 0002:000003c0       __xp_a                     000000018002d3c0     LIBCMT:crt0init.obj
 0002:000003e0       __xp_z                     000000018002d3e0     LIBCMT:crt0init.obj
 0002:000003e8       __xt_a                     000000018002d3e8     LIBCMT:crt0init.obj
 0002:000003f0       __xt_z                     000000018002d3f0     LIBCMT:crt0init.obj
 0002:00000440       __sz_node_exe              000000018002d440     node:node.exe
 0002:00000df0       ??_C@_0BC@CIJDGCDI@permission?5denied?$AA@ 000000018002ddf0     libcpmt:syserror.obj
 0002:00000e08       ??_C@_0M@MIDIAGJP@file?5exists?$AA@ 000000018002de08     libcpmt:syserror.obj
 0002:00000e18       ??_C@_0P@FDINDDOK@no?5such?5device?$AA@ 000000018002de18     libcpmt:syserror.obj
 0002:00000e28       ??_C@_0BC@EJHOMAAK@filename?5too?5long?$AA@ 000000018002de28     libcpmt:syserror.obj
 0002:00000e40       ??_C@_0BI@NGCEHDD@device?5or?5resource?5busy?$AA@ 000000018002de40     libcpmt:syserror.obj
 0002:00000e58       ??_C@_08GLNPIFBN@io?5error?$AA@ 000000018002de58     libcpmt:syserror.obj
 0002:00000e68       ??_C@_0BE@JIDOCPHM@directory?5not?5empty?$AA@ 000000018002de68     libcpmt:syserror.obj
 0002:00000e80       ??_C@_0BB@FCMFBGOM@invalid?5argument?$AA@ 000000018002de80     libcpmt:syserror.obj
 0002:00000e98       ??_C@_0BD@IJDJKDEA@no?5space?5on?5device?$AA@ 000000018002de98     libcpmt:syserror.obj
 0002:00000eb0       ??_C@_0BK@NDOCBPGE@no?5such?5file?5or?5directory?$AA@ 000000018002deb0     libcpmt:syserror.obj
 0002:00000ed0       ??_C@_0BH@KEFGLDAF@function?5not?5supported?$AA@ 000000018002ded0     libcpmt:syserror.obj
 0002:00000ee8       ??_C@_0BC@NJECKMKE@no?5lock?5available?$AA@ 000000018002dee8     libcpmt:syserror.obj
 0002:00000f00       ??_C@_0BC@ENOOLCNF@not?5enough?5memory?$AA@ 000000018002df00     libcpmt:syserror.obj
 0002:00000f18       ??_C@_0BP@LKNGHENJ@resource?5unavailable?5try?5again?$AA@ 000000018002df18     libcpmt:syserror.obj
 0002:00000f38       ??_C@_0BC@PPHBOELF@cross?5device?5link?$AA@ 000000018002df38     libcpmt:syserror.obj
 0002:00000f50       ??_C@_0BD@MOLBPMEA@operation?5canceled?$AA@ 000000018002df50     libcpmt:syserror.obj
 0002:00000f68       ??_C@_0BE@GHAFMPAH@too?5many?5files?5open?$AA@ 000000018002df68     libcpmt:syserror.obj
 0002:00000f80       ??_C@_0BC@FNODOBAE@permission_denied?$AA@ 000000018002df80     libcpmt:syserror.obj
 0002:00000f98       ??_C@_0P@LNDJPBFK@address_in_use?$AA@ 000000018002df98     libcpmt:syserror.obj
 0002:00000fa8       ??_C@_0BG@IPMGOJF@address_not_available?$AA@ 000000018002dfa8     libcpmt:syserror.obj
 0002:00000fc0       ??_C@_0BN@LCBDHODA@address_family_not_supported?$AA@ 000000018002dfc0     libcpmt:syserror.obj
 0002:00000fe0       ??_C@_0BP@FOJJHMCC@connection_already_in_progress?$AA@ 000000018002dfe0     libcpmt:syserror.obj
 0002:00001000       ??_C@_0BE@DLHHIBGN@bad_file_descriptor?$AA@ 000000018002e000     libcpmt:syserror.obj
 0002:00001018       ??_C@_0BD@OJMJDIGI@connection_aborted?$AA@ 000000018002e018     libcpmt:syserror.obj
 0002:00001030       ??_C@_0BD@NGKCIFEP@connection_refused?$AA@ 000000018002e030     libcpmt:syserror.obj
 0002:00001048       ??_C@_0BB@JOANDNCK@connection_reset?$AA@ 000000018002e048     libcpmt:syserror.obj
 0002:00001060       ??_C@_0BN@JLJNLKLK@destination_address_required?$AA@ 000000018002e060     libcpmt:syserror.obj
 0002:00001080       ??_C@_0M@IJGMGFGP@bad_address?$AA@ 000000018002e080     libcpmt:syserror.obj
 0002:00001090       ??_C@_0BB@KKNHPPIN@host_unreachable?$AA@ 000000018002e090     libcpmt:syserror.obj
 0002:000010a8       ??_C@_0BG@DJGBJIIK@operation_in_progress?$AA@ 000000018002e0a8     libcpmt:syserror.obj
 0002:000010c0       ??_C@_0M@EGEKIIMP@interrupted?$AA@ 000000018002e0c0     libcpmt:syserror.obj
 0002:000010d0       ??_C@_0BB@FFIHMIPJ@invalid_argument?$AA@ 000000018002e0d0     libcpmt:syserror.obj
 0002:000010e8       ??_C@_0BC@FIFLCHLO@already_connected?$AA@ 000000018002e0e8     libcpmt:syserror.obj
 0002:00001100       ??_C@_0BE@GJJJJDDA@too_many_files_open?$AA@ 000000018002e100     libcpmt:syserror.obj
 0002:00001118       ??_C@_0N@HPMLKHPL@message_size?$AA@ 000000018002e118     libcpmt:syserror.obj
 0002:00001128       ??_C@_0BC@LEEIKBAL@filename_too_long?$AA@ 000000018002e128     libcpmt:syserror.obj
 0002:00001140       ??_C@_0N@FCPALPJK@network_down?$AA@ 000000018002e140     libcpmt:syserror.obj
 0002:00001150       ??_C@_0O@EHNDLHIG@network_reset?$AA@ 000000018002e150     libcpmt:syserror.obj
 0002:00001160       ??_C@_0BE@JFNJIDNF@network_unreachable?$AA@ 000000018002e160     libcpmt:syserror.obj
 0002:00001178       ??_C@_0BA@FDIJKJCL@no_buffer_space?$AA@ 000000018002e178     libcpmt:syserror.obj
 0002:00001188       ??_C@_0BD@JHIHCGKP@no_protocol_option?$AA@ 000000018002e188     libcpmt:syserror.obj
 0002:000011a0       ??_C@_0O@GBCLHHD@not_connected?$AA@ 000000018002e1a0     libcpmt:syserror.obj
 0002:000011b0       ??_C@_0N@IMHKKLEM@not_a_socket?$AA@ 000000018002e1b0     libcpmt:syserror.obj
 0002:000011c0       ??_C@_0BI@ICEIDKLJ@operation_not_supported?$AA@ 000000018002e1c0     libcpmt:syserror.obj
 0002:000011d8       ??_C@_0BH@KAPBAIJF@protocol_not_supported?$AA@ 000000018002e1d8     libcpmt:syserror.obj
 0002:000011f0       ??_C@_0BE@GAOJJFPC@wrong_protocol_type?$AA@ 000000018002e1f0     libcpmt:syserror.obj
 0002:00001208       ??_C@_09NCHNLHPG@timed_out?$AA@ 000000018002e208     libcpmt:syserror.obj
 0002:00001218       ??_C@_0BG@GDGHKFDH@operation_would_block?$AA@ 000000018002e218     libcpmt:syserror.obj
 0002:00001230       ??_C@_0BN@LKKBCCDB@address?5family?5not?5supported?$AA@ 000000018002e230     libcpmt:syserror.obj
 0002:00001250       ??_C@_0P@LDMLAFHI@address?5in?5use?$AA@ 000000018002e250     libcpmt:syserror.obj
 0002:00001260       ??_C@_0BG@DHPCNBJB@address?5not?5available?$AA@ 000000018002e260     libcpmt:syserror.obj
 0002:00001278       ??_C@_0BC@DFIBIBIL@already?5connected?$AA@ 000000018002e278     libcpmt:syserror.obj
 0002:00001290       ??_C@_0BH@CAKOHOMI@argument?5list?5too?5long?$AA@ 000000018002e290     libcpmt:syserror.obj
 0002:000012a8       ??_C@_0BH@CGIMPKIM@argument?5out?5of?5domain?$AA@ 000000018002e2a8     libcpmt:syserror.obj
 0002:000012c0       ??_C@_0M@KGHGGJGL@bad?5address?$AA@ 000000018002e2c0     libcpmt:syserror.obj
 0002:000012d0       ??_C@_0BE@MPJPGCEO@bad?5file?5descriptor?$AA@ 000000018002e2d0     libcpmt:syserror.obj
 0002:000012e8       ??_C@_0M@PMMIEFCP@bad?5message?$AA@ 000000018002e2e8     libcpmt:syserror.obj
 0002:000012f8       ??_C@_0M@KPHOFDBE@broken?5pipe?$AA@ 000000018002e2f8     libcpmt:syserror.obj
 0002:00001308       ??_C@_0BD@MGNDDEGM@connection?5aborted?$AA@ 000000018002e308     libcpmt:syserror.obj
 0002:00001320       ??_C@_0BP@KAIHPOGN@connection?5already?5in?5progress?$AA@ 000000018002e320     libcpmt:syserror.obj
 0002:00001340       ??_C@_0BD@PJLIIJEL@connection?5refused?$AA@ 000000018002e340     libcpmt:syserror.obj
 0002:00001358       ??_C@_0BB@IECNJNOI@connection?5reset?$AA@ 000000018002e358     libcpmt:syserror.obj
 0002:00001370       ??_C@_0BN@KDMIFEIP@destination?5address?5required?$AA@ 000000018002e370     libcpmt:syserror.obj
 0002:00001390       ??_C@_0BI@BNCLIGPB@executable?5format?5error?$AA@ 000000018002e390     libcpmt:syserror.obj
 0002:000013a8       ??_C@_0P@DNAJLBJK@file?5too?5large?$AA@ 000000018002e3a8     libcpmt:syserror.obj
 0002:000013b8       ??_C@_0BB@DHFDFGDM@host?5unreachable?$AA@ 000000018002e3b8     libcpmt:syserror.obj
 0002:000013d0       ??_C@_0BD@JPHBMONG@identifier?5removed?$AA@ 000000018002e3d0     libcpmt:syserror.obj
 0002:000013e8       ??_C@_0BG@CDNPAGJK@illegal?5byte?5sequence?$AA@ 000000018002e3e8     libcpmt:syserror.obj
 0002:00001400       ??_C@_0CD@BNPLBMNA@inappropriate?5io?5control?5operati@ 000000018002e400     libcpmt:syserror.obj
 0002:00001428       ??_C@_0N@OHAFKDEK@invalid?5seek?$AA@ 000000018002e428     libcpmt:syserror.obj
 0002:00001438       ??_C@_0P@FLLDBIDK@is?5a?5directory?$AA@ 000000018002e438     libcpmt:syserror.obj
 0002:00001448       ??_C@_0N@IFLPBIOP@message?5size?$AA@ 000000018002e448     libcpmt:syserror.obj
 0002:00001458       ??_C@_0N@KIIEAAIO@network?5down?$AA@ 000000018002e458     libcpmt:syserror.obj
 0002:00001468       ??_C@_0O@FNPDBHEE@network?5reset?$AA@ 000000018002e468     libcpmt:syserror.obj
 0002:00001478       ??_C@_0BE@IFNCKGE@network?5unreachable?$AA@ 000000018002e478     libcpmt:syserror.obj
 0002:00001490       ??_C@_0BA@PFFCAOFK@no?5buffer?5space?$AA@ 000000018002e490     libcpmt:syserror.obj
 0002:000014a0       ??_C@_0BB@IEPBLJHK@no?5child?5process?$AA@ 000000018002e4a0     libcpmt:syserror.obj
 0002:000014b8       ??_C@_07PLECNNKG@no?5link?$AA@ 000000018002e4b8     libcpmt:syserror.obj
 0002:000014c0       ??_C@_0BF@PBGGPKKE@no?5message?5available?$AA@ 000000018002e4c0     libcpmt:syserror.obj
 0002:000014d8       ??_C@_0L@EDOLMPAK@no?5message?$AA@ 000000018002e4d8     libcpmt:syserror.obj
 0002:000014e8       ??_C@_0BD@EAMBFIDF@no?5protocol?5option?$AA@ 000000018002e4e8     libcpmt:syserror.obj
 0002:00001500       ??_C@_0BE@MKFDAFMP@no?5stream?5resources?$AA@ 000000018002e500     libcpmt:syserror.obj
 0002:00001518       ??_C@_0BK@IMCPHCBI@no?5such?5device?5or?5address?$AA@ 000000018002e518     libcpmt:syserror.obj
 0002:00001538       ??_C@_0BA@ENLPPKBN@no?5such?5process?$AA@ 000000018002e538     libcpmt:syserror.obj
 0002:00001548       ??_C@_0BA@DOCPFFJG@not?5a?5directory?$AA@ 000000018002e548     libcpmt:syserror.obj
 0002:00001558       ??_C@_0N@POEIPGGF@not?5a?5socket?$AA@ 000000018002e558     libcpmt:syserror.obj
 0002:00001568       ??_C@_0N@LGAPMMPI@not?5a?5stream?$AA@ 000000018002e568     libcpmt:syserror.obj
 0002:00001578       ??_C@_0O@GLMIBBEG@not?5connected?$AA@ 000000018002e578     libcpmt:syserror.obj
 0002:00001588       ??_C@_0O@NHEDABJP@not?5supported?$AA@ 000000018002e588     libcpmt:syserror.obj
 0002:00001598       ??_C@_0BG@KDKHOPCO@operation?5in?5progress?$AA@ 000000018002e598     libcpmt:syserror.obj
 0002:000015b0       ??_C@_0BI@OHIEJAAB@operation?5not?5permitted?$AA@ 000000018002e5b0     libcpmt:syserror.obj
 0002:000015c8       ??_C@_0BI@LNEGIFLN@operation?5not?5supported?$AA@ 000000018002e5c8     libcpmt:syserror.obj
 0002:000015e0       ??_C@_0BG@OEMDKMEE@operation?5would?5block?$AA@ 000000018002e5e0     libcpmt:syserror.obj
 0002:000015f8       ??_C@_0L@BLPOFLNJ@owner?5dead?$AA@ 000000018002e5f8     libcpmt:syserror.obj
 0002:00001608       ??_C@_0P@FNPOCJBE@protocol?5error?$AA@ 000000018002e608     libcpmt:syserror.obj
 0002:00001618       ??_C@_0BH@JPPPLHJB@protocol?5not?5supported?$AA@ 000000018002e618     libcpmt:syserror.obj
 0002:00001630       ??_C@_0BG@EICBIHDP@read?5only?5file?5system?$AA@ 000000018002e630     libcpmt:syserror.obj
 0002:00001648       ??_C@_0BO@BJBOMOEJ@resource?5deadlock?5would?5occur?$AA@ 000000018002e648     libcpmt:syserror.obj
 0002:00001668       ??_C@_0BE@GOIPJJHG@result?5out?5of?5range?$AA@ 000000018002e668     libcpmt:syserror.obj
 0002:00001680       ??_C@_0BG@MPLKFPAE@state?5not?5recoverable?$AA@ 000000018002e680     libcpmt:syserror.obj
 0002:00001698       ??_C@_0P@DIIFGFCG@stream?5timeout?$AA@ 000000018002e698     libcpmt:syserror.obj
 0002:000016a8       ??_C@_0P@IPFDMIFL@text?5file?5busy?$AA@ 000000018002e6a8     libcpmt:syserror.obj
 0002:000016b8       ??_C@_09KJPPMAOI@timed?5out?$AA@ 000000018002e6b8     libcpmt:syserror.obj
 0002:000016c8       ??_C@_0BO@HACHBEKI@too?5many?5files?5open?5in?5system?$AA@ 000000018002e6c8     libcpmt:syserror.obj
 0002:000016e8       ??_C@_0P@HCOMKFCC@too?5many?5links?$AA@ 000000018002e6e8     libcpmt:syserror.obj
 0002:000016f8       ??_C@_0BO@EFGOJEF@too?5many?5symbolic?5link?5levels?$AA@ 000000018002e6f8     libcpmt:syserror.obj
 0002:00001718       ??_C@_0BA@KGKGOOJA@value?5too?5large?$AA@ 000000018002e718     libcpmt:syserror.obj
 0002:00001728       ??_C@_0BE@MIEJDDNH@wrong?5protocol?5type?$AA@ 000000018002e728     libcpmt:syserror.obj
 0002:00001748       ??_7bad_alloc@std@@6B@     000000018002e748     libcpmt:xthrow.obj
 0002:00001758       ??_C@_0P@GHFPNOJB@bad?5allocation?$AA@ 000000018002e758     libcpmt:xthrow.obj
 0002:00001770       ??_7logic_error@std@@6B@   000000018002e770     libcpmt:xthrow.obj
 0002:00001788       ??_7length_error@std@@6B@  000000018002e788     libcpmt:xthrow.obj
 0002:000017a0       ??_7out_of_range@std@@6B@  000000018002e7a0     libcpmt:xthrow.obj
 0002:000017b0       ??_C@_06MEIMCGCF@_hypot?$AA@ 000000018002e7b0     LIBCMT:hypot.obj
 0002:000017b8       ??_C@_17LGKOMLJ@?$AA?4?$AA?4?$AA?4?$AA?$AA@ 000000018002e7b8     LIBCMT:wassert.obj
 0002:000017c0       ??_C@_13LBAGMAIH@?$AA?6?$AA?$AA@ 000000018002e7c0     LIBCMT:wassert.obj
 0002:000017c4       ??_C@_15IABLJNFO@?$AA?6?$AA?6?$AA?$AA@ 000000018002e7c4     LIBCMT:wassert.obj
 0002:000017d0       ??_C@_1CE@OJBNHDMO@?$AAA?$AAs?$AAs?$AAe?$AAr?$AAt?$AAi?$AAo?$AAn?$AA?5?$AAf?$AAa?$AAi?$AAl?$AAe?$AAd?$AA?$CB?$AA?$AA@ 000000018002e7d0     LIBCMT:wassert.obj
 0002:000017f8       ??_C@_1BE@PHKBBGE@?$AAP?$AAr?$AAo?$AAg?$AAr?$AAa?$AAm?$AA?3?$AA?5?$AA?$AA@ 000000018002e7f8     LIBCMT:wassert.obj
 0002:00001810       ??_C@_1CO@EAEJAADC@?$AA?$DM?$AAp?$AAr?$AAo?$AAg?$AAr?$AAa?$AAm?$AA?5?$AAn?$AAa?$AAm?$AAe?$AA?5?$AAu?$AAn?$AAk?$AAn?$AAo?$AAw?$AAn?$AA?$DO?$AA?$AA@ 000000018002e810     LIBCMT:wassert.obj
 0002:00001840       ??_C@_1O@HEMHKNDC@?$AAF?$AAi?$AAl?$AAe?$AA?3?$AA?5?$AA?$AA@ 000000018002e840     LIBCMT:wassert.obj
 0002:00001850       ??_C@_1O@KCAFKHJE@?$AAL?$AAi?$AAn?$AAe?$AA?3?$AA?5?$AA?$AA@ 000000018002e850     LIBCMT:wassert.obj
 0002:00001860       ??_C@_1BK@PEDCIPMA@?$AAE?$AAx?$AAp?$AAr?$AAe?$AAs?$AAs?$AAi?$AAo?$AAn?$AA?3?$AA?5?$AA?$AA@ 000000018002e860     LIBCMT:wassert.obj
 0002:00001880       ??_C@_1OA@EGMLFBHJ@?$AAF?$AAo?$AAr?$AA?5?$AAi?$AAn?$AAf?$AAo?$AAr?$AAm?$AAa?$AAt?$AAi?$AAo?$AAn?$AA?5?$AAo?$AAn?$AA?5?$AAh?$AAo?$AAw?$AA?5?$AAy?$AAo?$AAu?$AAr?$AA?5?$AAp?$AAr?$AAo?$AAg@ 000000018002e880     LIBCMT:wassert.obj
 0002:00001960       ??_C@_1HK@POCJMFGK@?$AA?$CI?$AAP?$AAr?$AAe?$AAs?$AAs?$AA?5?$AAR?$AAe?$AAt?$AAr?$AAy?$AA?5?$AAt?$AAo?$AA?5?$AAd?$AAe?$AAb?$AAu?$AAg?$AA?5?$AAt?$AAh?$AAe?$AA?5?$AAa?$AAp?$AAp?$AAl?$AAi?$AAc@ 000000018002e960     LIBCMT:wassert.obj
 0002:000019e0       ??_C@_1EK@MBDPDCGA@?$AAM?$AAi?$AAc?$AAr?$AAo?$AAs?$AAo?$AAf?$AAt?$AA?5?$AAV?$AAi?$AAs?$AAu?$AAa?$AAl?$AA?5?$AAC?$AA?$CL?$AA?$CL?$AA?5?$AAR?$AAu?$AAn?$AAt?$AAi?$AAm?$AAe?$AA?5?$AAL?$AAi?$AAb@ 000000018002e9e0     LIBCMT:wassert.obj
 0002:00001a38       ??_7type_info@@6B@         000000018002ea38     LIBCMT:typinfo.obj
 0002:00001a40       _pDefaultRawDllMain        000000018002ea40     LIBCMT:dllcrt0.obj
 0002:00001a40       _pRawDllMain               000000018002ea40     LIBCMT:dllcrt0.obj
 0002:00001b28       _FPinit                    000000018002eb28     LIBCMT:fpinit.obj
 0002:00001b38       ??_7exception@std@@6B@     000000018002eb38     LIBCMT:stdexcpt.obj
 0002:00001b48       ??_C@_0BC@EOODALEL@Unknown?5exception?$AA@ 000000018002eb48     LIBCMT:stdexcpt.obj
 0002:00001b70       ??_C@_1BI@BGOHAHKC@?$AAm?$AAs?$AAc?$AAo?$AAr?$AAe?$AAe?$AA?4?$AAd?$AAl?$AAl?$AA?$AA@ 000000018002eb70     LIBCMT:crt0dat.obj
 0002:00001b88       ??_C@_0P@MIGLKIOC@CorExitProcess?$AA@ 000000018002eb88     LIBCMT:crt0dat.obj
 0002:00001b98       ??_C@_06OJHGLDPL@?$CInull?$CJ?$AA@ 000000018002eb98     LIBCMT:output.obj
 0002:00001ba0       ??_C@_1O@CEDCILHN@?$AA?$CI?$AAn?$AAu?$AAl?$AAl?$AA?$CJ?$AA?$AA@ 000000018002eba0     LIBCMT:output.obj
 0002:00001bb0       __lookuptable              000000018002ebb0     LIBCMT:output.obj
 0002:00001c10       __lookuptable_s            000000018002ec10     LIBCMT:outputs.obj
 0002:00001c70       ??_C@_1BG@GOEBHBDC@?$AAU?$AAS?$AAE?$AAR?$AA3?$AA2?$AA?4?$AAD?$AAL?$AAL?$AA?$AA@ 000000018002ec70     LIBCMT:crtmboxw.obj
 0002:00001c88       ??_C@_0M@DLDCCGNP@MessageBoxW?$AA@ 000000018002ec88     LIBCMT:crtmboxw.obj
 0002:00001c98       ??_C@_0BA@HNOPNCHB@GetActiveWindow?$AA@ 000000018002ec98     LIBCMT:crtmboxw.obj
 0002:00001ca8       ??_C@_0BD@HHGDFDBJ@GetLastActivePopup?$AA@ 000000018002eca8     LIBCMT:crtmboxw.obj
 0002:00001cc0       ??_C@_0BK@DEKFELLI@GetUserObjectInformationW?$AA@ 000000018002ecc0     LIBCMT:crtmboxw.obj
 0002:00001ce0       ??_C@_0BI@DFKBFLJE@GetProcessWindowStation?$AA@ 000000018002ece0     LIBCMT:crtmboxw.obj
 0002:00001e70       ??_C@_1FK@PGACCAFB@?$AAR?$AA6?$AA0?$AA0?$AA2?$AA?$AN?$AA?6?$AA?9?$AA?5?$AAf?$AAl?$AAo?$AAa?$AAt?$AAi?$AAn?$AAg?$AA?5?$AAp?$AAo?$AAi?$AAn?$AAt?$AA?5?$AAs?$AAu?$AAp?$AAp?$AAo?$AAr?$AAt?$AA?5@ 000000018002ee70     LIBCMT:crt0msg.obj
 0002:00001ed0       ??_C@_1FE@LLNEDJMD@?$AAR?$AA6?$AA0?$AA0?$AA8?$AA?$AN?$AA?6?$AA?9?$AA?5?$AAn?$AAo?$AAt?$AA?5?$AAe?$AAn?$AAo?$AAu?$AAg?$AAh?$AA?5?$AAs?$AAp?$AAa?$AAc?$AAe?$AA?5?$AAf?$AAo?$AAr?$AA?5?$AAa?$AAr@ 000000018002eed0     LIBCMT:crt0msg.obj
 0002:00001f30       ??_C@_1FI@HONFMGBI@?$AAR?$AA6?$AA0?$AA0?$AA9?$AA?$AN?$AA?6?$AA?9?$AA?5?$AAn?$AAo?$AAt?$AA?5?$AAe?$AAn?$AAo?$AAu?$AAg?$AAh?$AA?5?$AAs?$AAp?$AAa?$AAc?$AAe?$AA?5?$AAf?$AAo?$AAr?$AA?5?$AAe?$AAn@ 000000018002ef30     LIBCMT:crt0msg.obj
 0002:00001f90       ??_C@_1EG@BEHAGFJD@?$AAR?$AA6?$AA0?$AA1?$AA0?$AA?$AN?$AA?6?$AA?9?$AA?5?$AAa?$AAb?$AAo?$AAr?$AAt?$AA?$CI?$AA?$CJ?$AA?5?$AAh?$AAa?$AAs?$AA?5?$AAb?$AAe?$AAe?$AAn?$AA?5?$AAc?$AAa?$AAl?$AAl?$AAe?$AAd@ 000000018002ef90     LIBCMT:crt0msg.obj
 0002:00001fe0       ??_C@_1FI@LOGNIKDM@?$AAR?$AA6?$AA0?$AA1?$AA6?$AA?$AN?$AA?6?$AA?9?$AA?5?$AAn?$AAo?$AAt?$AA?5?$AAe?$AAn?$AAo?$AAu?$AAg?$AAh?$AA?5?$AAs?$AAp?$AAa?$AAc?$AAe?$AA?5?$AAf?$AAo?$AAr?$AA?5?$AAt?$AAh@ 000000018002efe0     LIBCMT:crt0msg.obj
 0002:00002040       ??_C@_1FK@BEOGODMC@?$AAR?$AA6?$AA0?$AA1?$AA7?$AA?$AN?$AA?6?$AA?9?$AA?5?$AAu?$AAn?$AAe?$AAx?$AAp?$AAe?$AAc?$AAt?$AAe?$AAd?$AA?5?$AAm?$AAu?$AAl?$AAt?$AAi?$AAt?$AAh?$AAr?$AAe?$AAa?$AAd?$AA?5@ 000000018002f040     LIBCMT:crt0msg.obj
 0002:000020a0       ??_C@_1EC@JIBHAOPH@?$AAR?$AA6?$AA0?$AA1?$AA8?$AA?$AN?$AA?6?$AA?9?$AA?5?$AAu?$AAn?$AAe?$AAx?$AAp?$AAe?$AAc?$AAt?$AAe?$AAd?$AA?5?$AAh?$AAe?$AAa?$AAp?$AA?5?$AAe?$AAr?$AAr?$AAo?$AAr?$AA?$AN?$AA?6@ 000000018002f0a0     LIBCMT:crt0msg.obj
 0002:000020f0       ??_C@_1FC@ECHBIFBC@?$AAR?$AA6?$AA0?$AA1?$AA9?$AA?$AN?$AA?6?$AA?9?$AA?5?$AAu?$AAn?$AAa?$AAb?$AAl?$AAe?$AA?5?$AAt?$AAo?$AA?5?$AAo?$AAp?$AAe?$AAn?$AA?5?$AAc?$AAo?$AAn?$AAs?$AAo?$AAl?$AAe?$AA?5@ 000000018002f0f0     LIBCMT:crt0msg.obj
 0002:00002150       ??_C@_1GK@FHCKBEFA@?$AAR?$AA6?$AA0?$AA2?$AA4?$AA?$AN?$AA?6?$AA?9?$AA?5?$AAn?$AAo?$AAt?$AA?5?$AAe?$AAn?$AAo?$AAu?$AAg?$AAh?$AA?5?$AAs?$AAp?$AAa?$AAc?$AAe?$AA?5?$AAf?$AAo?$AAr?$AA?5?$AA_?$AAo@ 000000018002f150     LIBCMT:crt0msg.obj
 0002:000021c0       ??_C@_1EM@MAADIHMB@?$AAR?$AA6?$AA0?$AA2?$AA5?$AA?$AN?$AA?6?$AA?9?$AA?5?$AAp?$AAu?$AAr?$AAe?$AA?5?$AAv?$AAi?$AAr?$AAt?$AAu?$AAa?$AAl?$AA?5?$AAf?$AAu?$AAn?$AAc?$AAt?$AAi?$AAo?$AAn?$AA?5?$AAc@ 000000018002f1c0     LIBCMT:crt0msg.obj
 0002:00002210       ??_C@_1GK@MCAAGJMO@?$AAR?$AA6?$AA0?$AA2?$AA6?$AA?$AN?$AA?6?$AA?9?$AA?5?$AAn?$AAo?$AAt?$AA?5?$AAe?$AAn?$AAo?$AAu?$AAg?$AAh?$AA?5?$AAs?$AAp?$AAa?$AAc?$AAe?$AA?5?$AAf?$AAo?$AAr?$AA?5?$AAs?$AAt@ 000000018002f210     LIBCMT:crt0msg.obj
 0002:00002280       ??_C@_1GK@MFGOKLAG@?$AAR?$AA6?$AA0?$AA2?$AA7?$AA?$AN?$AA?6?$AA?9?$AA?5?$AAn?$AAo?$AAt?$AA?5?$AAe?$AAn?$AAo?$AAu?$AAg?$AAh?$AA?5?$AAs?$AAp?$AAa?$AAc?$AAe?$AA?5?$AAf?$AAo?$AAr?$AA?5?$AAl?$AAo@ 000000018002f280     LIBCMT:crt0msg.obj
 0002:000022f0       ??_C@_1EK@HHFLMAOL@?$AAR?$AA6?$AA0?$AA2?$AA8?$AA?$AN?$AA?6?$AA?9?$AA?5?$AAu?$AAn?$AAa?$AAb?$AAl?$AAe?$AA?5?$AAt?$AAo?$AA?5?$AAi?$AAn?$AAi?$AAt?$AAi?$AAa?$AAl?$AAi?$AAz?$AAe?$AA?5?$AAh?$AAe@ 000000018002f2f0     LIBCMT:crt0msg.obj
 0002:00002340       ??_C@_1DO@BMFCDCD@?$AAR?$AA6?$AA0?$AA3?$AA0?$AA?$AN?$AA?6?$AA?9?$AA?5?$AAC?$AAR?$AAT?$AA?5?$AAn?$AAo?$AAt?$AA?5?$AAi?$AAn?$AAi?$AAt?$AAi?$AAa?$AAl?$AAi?$AAz?$AAe?$AAd?$AA?$AN?$AA?6?$AA?$AA@ 000000018002f340     LIBCMT:crt0msg.obj
 0002:00002380       ??_C@_1MG@ENCOOIDF@?$AAR?$AA6?$AA0?$AA3?$AA1?$AA?$AN?$AA?6?$AA?9?$AA?5?$AAA?$AAt?$AAt?$AAe?$AAm?$AAp?$AAt?$AA?5?$AAt?$AAo?$AA?5?$AAi?$AAn?$AAi?$AAt?$AAi?$AAa?$AAl?$AAi?$AAz?$AAe?$AA?5?$AAt@ 000000018002f380     LIBCMT:crt0msg.obj
 0002:00002450       ??_C@_1GG@GOPILAJP@?$AAR?$AA6?$AA0?$AA3?$AA2?$AA?$AN?$AA?6?$AA?9?$AA?5?$AAn?$AAo?$AAt?$AA?5?$AAe?$AAn?$AAo?$AAu?$AAg?$AAh?$AA?5?$AAs?$AAp?$AAa?$AAc?$AAe?$AA?5?$AAf?$AAo?$AAr?$AA?5?$AAl?$AAo@ 000000018002f450     LIBCMT:crt0msg.obj
 0002:000024c0       ??_C@_1BOO@KGEDBGAJ@?$AAR?$AA6?$AA0?$AA3?$AA3?$AA?$AN?$AA?6?$AA?9?$AA?5?$AAA?$AAt?$AAt?$AAe?$AAm?$AAp?$AAt?$AA?5?$AAt?$AAo?$AA?5?$AAu?$AAs?$AAe?$AA?5?$AAM?$AAS?$AAI?$AAL?$AA?5?$AAc?$AAo?$AAd@ 000000018002f4c0     LIBCMT:crt0msg.obj
 0002:000026b0       ??_C@_1GG@MKFPEKFO@?$AAR?$AA6?$AA0?$AA3?$AA4?$AA?$AN?$AA?6?$AA?9?$AA?5?$AAi?$AAn?$AAc?$AAo?$AAn?$AAs?$AAi?$AAs?$AAt?$AAe?$AAn?$AAt?$AA?5?$AAo?$AAn?$AAe?$AAx?$AAi?$AAt?$AA?5?$AAb?$AAe?$AAg@ 000000018002f6b0     LIBCMT:crt0msg.obj
 0002:00002718       ??_C@_1BO@BFCDCGC@?$AAD?$AAO?$AAM?$AAA?$AAI?$AAN?$AA?5?$AAe?$AAr?$AAr?$AAo?$AAr?$AA?$AN?$AA?6?$AA?$AA@ 000000018002f718     LIBCMT:crt0msg.obj
 0002:00002738       ??_C@_1BK@KMOMNAAI@?$AAS?$AAI?$AAN?$AAG?$AA?5?$AAe?$AAr?$AAr?$AAo?$AAr?$AA?$AN?$AA?6?$AA?$AA@ 000000018002f738     LIBCMT:crt0msg.obj
 0002:00002758       ??_C@_1BM@JBBEPPHI@?$AAT?$AAL?$AAO?$AAS?$AAS?$AA?5?$AAe?$AAr?$AAr?$AAo?$AAr?$AA?$AN?$AA?6?$AA?$AA@ 000000018002f758     LIBCMT:crt0msg.obj
 0002:00002774       ??_C@_15JNBOKNOG@?$AA?$AN?$AA?6?$AA?$AA@ 000000018002f774     LIBCMT:crt0msg.obj
 0002:00002780       ??_C@_1BO@BKOMIGKJ@?$AAr?$AAu?$AAn?$AAt?$AAi?$AAm?$AAe?$AA?5?$AAe?$AAr?$AAr?$AAo?$AAr?$AA?5?$AA?$AA@ 000000018002f780     LIBCMT:crt0msg.obj
 0002:000027a0       ??_C@_1DE@JNGNBFGO@?$AAR?$AAu?$AAn?$AAt?$AAi?$AAm?$AAe?$AA?5?$AAE?$AAr?$AAr?$AAo?$AAr?$AA?$CB?$AA?6?$AA?6?$AAP?$AAr?$AAo?$AAg?$AAr?$AAa?$AAm?$AA?3?$AA?5?$AA?$AA@ 000000018002f7a0     LIBCMT:crt0msg.obj
 0002:00002820       ??_C@_1M@HPNHIDJI@?$AAj?$AAa?$AA?9?$AAJ?$AAP?$AA?$AA@ 000000018002f820     LIBCMT:mbctype.obj
 0002:00002830       ??_C@_1M@BIBDDEMK@?$AAz?$AAh?$AA?9?$AAC?$AAN?$AA?$AA@ 000000018002f830     LIBCMT:mbctype.obj
 0002:00002840       ??_C@_1M@JLOOOEGK@?$AAk?$AAo?$AA?9?$AAK?$AAR?$AA?$AA@ 000000018002f840     LIBCMT:mbctype.obj
 0002:00002850       ??_C@_1M@CLNBBOPM@?$AAz?$AAh?$AA?9?$AAT?$AAW?$AA?$AA@ 000000018002f850     LIBCMT:mbctype.obj
 0002:0000285c       ??_C@_03KOEHGMDN@Sun?$AA@  000000018002f85c     LIBCMT:nlsdata.obj
 0002:00002860       ??_C@_03PDAGKDH@Mon?$AA@   000000018002f860     LIBCMT:nlsdata.obj
 0002:00002864       ??_C@_03NAGEINEP@Tue?$AA@  000000018002f864     LIBCMT:nlsdata.obj
 0002:00002868       ??_C@_03MHOMLAJA@Wed?$AA@  000000018002f868     LIBCMT:nlsdata.obj
 0002:0000286c       ??_C@_03IOFIKPDN@Thu?$AA@  000000018002f86c     LIBCMT:nlsdata.obj
 0002:00002870       ??_C@_03IDIOELNC@Fri?$AA@  000000018002f870     LIBCMT:nlsdata.obj
 0002:00002874       ??_C@_03FEFJNEK@Sat?$AA@   000000018002f874     LIBCMT:nlsdata.obj
 0002:00002878       ??_C@_06OOPIFAJ@Sunday?$AA@ 000000018002f878     LIBCMT:nlsdata.obj
 0002:00002880       ??_C@_06JLEDEDGH@Monday?$AA@ 000000018002f880     LIBCMT:nlsdata.obj
 0002:00002888       ??_C@_07BAAGCFCM@Tuesday?$AA@ 000000018002f888     LIBCMT:nlsdata.obj
 0002:00002890       ??_C@_09DLIGFAKA@Wednesday?$AA@ 000000018002f890     LIBCMT:nlsdata.obj
 0002:000028a0       ??_C@_08HACCIKIA@Thursday?$AA@ 000000018002f8a0     LIBCMT:nlsdata.obj
 0002:000028ac       ??_C@_06JECMNKMI@Friday?$AA@ 000000018002f8ac     LIBCMT:nlsdata.obj
 0002:000028b8       ??_C@_08INBOOONO@Saturday?$AA@ 000000018002f8b8     LIBCMT:nlsdata.obj
 0002:000028c4       ??_C@_03JIHJHPIE@Jan?$AA@  000000018002f8c4     LIBCMT:nlsdata.obj
 0002:000028c8       ??_C@_03HJBDCHOM@Feb?$AA@  000000018002f8c8     LIBCMT:nlsdata.obj
 0002:000028cc       ??_C@_03ODNJBKGA@Mar?$AA@  000000018002f8cc     LIBCMT:nlsdata.obj
 0002:000028d0       ??_C@_03LEOLGMJP@Apr?$AA@  000000018002f8d0     LIBCMT:nlsdata.obj
 0002:000028d4       ??_C@_03CNMDKL@May?$AA@    000000018002f8d4     LIBCMT:nlsdata.obj
 0002:000028d8       ??_C@_03IDFGHECI@Jun?$AA@  000000018002f8d8     LIBCMT:nlsdata.obj
 0002:000028dc       ??_C@_03LBGABGKK@Jul?$AA@  000000018002f8dc     LIBCMT:nlsdata.obj
 0002:000028e0       ??_C@_03IFJFEIGA@Aug?$AA@  000000018002f8e0     LIBCMT:nlsdata.obj
 0002:000028e4       ??_C@_03GGCAPAJC@Sep?$AA@  000000018002f8e4     LIBCMT:nlsdata.obj
 0002:000028e8       ??_C@_03BMAOKBAD@Oct?$AA@  000000018002f8e8     LIBCMT:nlsdata.obj
 0002:000028ec       ??_C@_03JPJOFNIA@Nov?$AA@  000000018002f8ec     LIBCMT:nlsdata.obj
 0002:000028f0       ??_C@_03MKABNOCG@Dec?$AA@  000000018002f8f0     LIBCMT:nlsdata.obj
 0002:000028f8       ??_C@_07CGJPFGJA@January?$AA@ 000000018002f8f8     LIBCMT:nlsdata.obj
 0002:00002900       ??_C@_08GNJGEPFN@February?$AA@ 000000018002f900     LIBCMT:nlsdata.obj
 0002:0000290c       ??_C@_05HPCKOFNC@March?$AA@ 000000018002f90c     LIBCMT:nlsdata.obj
 0002:00002914       ??_C@_05DMJDNLEJ@April?$AA@ 000000018002f914     LIBCMT:nlsdata.obj
 0002:0000291c       ??_C@_04CNLMGBGM@June?$AA@ 000000018002f91c     LIBCMT:nlsdata.obj
 0002:00002924       ??_C@_04MIEPOIFP@July?$AA@ 000000018002f924     LIBCMT:nlsdata.obj
 0002:0000292c       ??_C@_06LBBHFDDG@August?$AA@ 000000018002f92c     LIBCMT:nlsdata.obj
 0002:00002938       ??_C@_09BHHEALKD@September?$AA@ 000000018002f938     LIBCMT:nlsdata.obj
 0002:00002948       ??_C@_07JJNFCEND@October?$AA@ 000000018002f948     LIBCMT:nlsdata.obj
 0002:00002950       ??_C@_08HCHEGEOA@November?$AA@ 000000018002f950     LIBCMT:nlsdata.obj
 0002:00002960       ??_C@_08EDHMEBNP@December?$AA@ 000000018002f960     LIBCMT:nlsdata.obj
 0002:0000296c       ??_C@_02DEDBPAFC@AM?$AA@   000000018002f96c     LIBCMT:nlsdata.obj
 0002:00002970       ??_C@_02CJNFDJBF@PM?$AA@   000000018002f970     LIBCMT:nlsdata.obj
 0002:00002978       ??_C@_08BPBNCDIB@MM?1dd?1yy?$AA@ 000000018002f978     LIBCMT:nlsdata.obj
 0002:00002988       ??_C@_0BE@CKGJFCPC@dddd?0?5MMMM?5dd?0?5yyyy?$AA@ 000000018002f988     LIBCMT:nlsdata.obj
 0002:000029a0       ??_C@_08JCCMCCIL@HH?3mm?3ss?$AA@ 000000018002f9a0     LIBCMT:nlsdata.obj
 0002:000029b0       ??_C@_17MBGCMIPB@?$AAS?$AAu?$AAn?$AA?$AA@ 000000018002f9b0     LIBCMT:nlsdata.obj
 0002:000029b8       ??_C@_17KBOMKBF@?$AAM?$AAo?$AAn?$AA?$AA@ 000000018002f9b8     LIBCMT:nlsdata.obj
 0002:000029c0       ??_C@_17BMKGEGOJ@?$AAT?$AAu?$AAe?$AA?$AA@ 000000018002f9c0     LIBCMT:nlsdata.obj
 0002:000029c8       ??_C@_17CJEDCEPE@?$AAW?$AAe?$AAd?$AA?$AA@ 000000018002f9c8     LIBCMT:nlsdata.obj
 0002:000029d0       ??_C@_17PDPHAADD@?$AAT?$AAh?$AAu?$AA?$AA@ 000000018002f9d0     LIBCMT:nlsdata.obj
 0002:000029d8       ??_C@_17HFOLPPLP@?$AAF?$AAr?$AAi?$AA?$AA@ 000000018002f9d8     LIBCMT:nlsdata.obj
 0002:000029e0       ??_C@_17GGIBDPIH@?$AAS?$AAa?$AAt?$AA?$AA@ 000000018002f9e0     LIBCMT:nlsdata.obj
 0002:000029e8       ??_C@_1O@IHNHDHPB@?$AAS?$AAu?$AAn?$AAd?$AAa?$AAy?$AA?$AA@ 000000018002f9e8     LIBCMT:nlsdata.obj
 0002:000029f8       ??_C@_1O@MMNBFLIA@?$AAM?$AAo?$AAn?$AAd?$AAa?$AAy?$AA?$AA@ 000000018002f9f8     LIBCMT:nlsdata.obj
 0002:00002a08       ??_C@_1BA@ENFBFFEK@?$AAT?$AAu?$AAe?$AAs?$AAd?$AAa?$AAy?$AA?$AA@ 000000018002fa08     LIBCMT:nlsdata.obj
 0002:00002a18       ??_C@_1BE@EBOGMDOH@?$AAW?$AAe?$AAd?$AAn?$AAe?$AAs?$AAd?$AAa?$AAy?$AA?$AA@ 000000018002fa18     LIBCMT:nlsdata.obj
 0002:00002a30       ??_C@_1BC@HHMNLIHE@?$AAT?$AAh?$AAu?$AAr?$AAs?$AAd?$AAa?$AAy?$AA?$AA@ 000000018002fa30     LIBCMT:nlsdata.obj
 0002:00002a48       ??_C@_1O@PDICJHAG@?$AAF?$AAr?$AAi?$AAd?$AAa?$AAy?$AA?$AA@ 000000018002fa48     LIBCMT:nlsdata.obj
 0002:00002a58       ??_C@_1BC@ENMNNPAJ@?$AAS?$AAa?$AAt?$AAu?$AAr?$AAd?$AAa?$AAy?$AA?$AA@ 000000018002fa58     LIBCMT:nlsdata.obj
 0002:00002a70       ??_C@_17DKNBKCHM@?$AAJ?$AAa?$AAn?$AA?$AA@ 000000018002fa70     LIBCMT:nlsdata.obj
 0002:00002a78       ??_C@_17LMDJEKJN@?$AAF?$AAe?$AAb?$AA?$AA@ 000000018002fa78     LIBCMT:nlsdata.obj
 0002:00002a80       ??_C@_17CKNLEDEC@?$AAM?$AAa?$AAr?$AA?$AA@ 000000018002fa80     LIBCMT:nlsdata.obj
 0002:00002a88       ??_C@_17LFPOIHDD@?$AAA?$AAp?$AAr?$AA?$AA@ 000000018002fa88     LIBCMT:nlsdata.obj
 0002:00002a90       ??_C@_17PNNKMEED@?$AAM?$AAa?$AAy?$AA?$AA@ 000000018002fa90     LIBCMT:nlsdata.obj
 0002:00002a98       ??_C@_17KCJGOCPB@?$AAJ?$AAu?$AAn?$AA?$AA@ 000000018002fa98     LIBCMT:nlsdata.obj
 0002:00002aa0       ??_C@_17IJPCKHK@?$AAJ?$AAu?$AAl?$AA?$AA@ 000000018002faa0     LIBCMT:nlsdata.obj
 0002:00002aa8       ??_C@_17ICPELBCN@?$AAA?$AAu?$AAg?$AA?$AA@ 000000018002faa8     LIBCMT:nlsdata.obj
 0002:00002ab0       ??_C@_17HCHCOKMG@?$AAS?$AAe?$AAp?$AA?$AA@ 000000018002fab0     LIBCMT:nlsdata.obj
 0002:00002ab8       ??_C@_17FNLKOI@?$AAO?$AAc?$AAt?$AA?$AA@ 000000018002fab8     LIBCMT:nlsdata.obj
 0002:00002ac0       ??_C@_17BBDMLCIG@?$AAN?$AAo?$AAv?$AA?$AA@ 000000018002fac0     LIBCMT:nlsdata.obj
 0002:00002ac8       ??_C@_17EGKACKIF@?$AAD?$AAe?$AAc?$AA?$AA@ 000000018002fac8     LIBCMT:nlsdata.obj
 0002:00002ad0       ??_C@_1BA@EFMEIEBA@?$AAJ?$AAa?$AAn?$AAu?$AAa?$AAr?$AAy?$AA?$AA@ 000000018002fad0     LIBCMT:nlsdata.obj
 0002:00002ae0       ??_C@_1BC@JGDDFFAM@?$AAF?$AAe?$AAb?$AAr?$AAu?$AAa?$AAr?$AAy?$AA?$AA@ 000000018002fae0     LIBCMT:nlsdata.obj
 0002:00002af8       ??_C@_1M@IKEENEDF@?$AAM?$AAa?$AAr?$AAc?$AAh?$AA?$AA@ 000000018002faf8     LIBCMT:nlsdata.obj
 0002:00002b08       ??_C@_1M@GJNLMHFD@?$AAA?$AAp?$AAr?$AAi?$AAl?$AA?$AA@ 000000018002fb08     LIBCMT:nlsdata.obj
 0002:00002b18       ??_C@_19EPFLPGAP@?$AAJ?$AAu?$AAn?$AAe?$AA?$AA@ 000000018002fb18     LIBCMT:nlsdata.obj
 0002:00002b28       ??_C@_19BIFMLPCD@?$AAJ?$AAu?$AAl?$AAy?$AA?$AA@ 000000018002fb28     LIBCMT:nlsdata.obj
 0002:00002b38       ??_C@_1O@PAHLKOAC@?$AAA?$AAu?$AAg?$AAu?$AAs?$AAt?$AA?$AA@ 000000018002fb38     LIBCMT:nlsdata.obj
 0002:00002b48       ??_C@_1BE@DKAAMBJL@?$AAS?$AAe?$AAp?$AAt?$AAe?$AAm?$AAb?$AAe?$AAr?$AA?$AA@ 000000018002fb48     LIBCMT:nlsdata.obj
 0002:00002b60       ??_C@_1BA@EPANDLNG@?$AAO?$AAc?$AAt?$AAo?$AAb?$AAe?$AAr?$AA?$AA@ 000000018002fb60     LIBCMT:nlsdata.obj
 0002:00002b70       ??_C@_1BC@BGLIFPF@?$AAN?$AAo?$AAv?$AAe?$AAm?$AAb?$AAe?$AAr?$AA?$AA@ 000000018002fb70     LIBCMT:nlsdata.obj
 0002:00002b88       ??_C@_1BC@FEMKIFH@?$AAD?$AAe?$AAc?$AAe?$AAm?$AAb?$AAe?$AAr?$AA?$AA@ 000000018002fb88     LIBCMT:nlsdata.obj
 0002:00002b9c       ??_C@_15ODEHAHHF@?$AAA?$AAM?$AA?$AA@ 000000018002fb9c     LIBCMT:nlsdata.obj
 0002:00002ba4       ??_C@_15CLMNNGEL@?$AAP?$AAM?$AA?$AA@ 000000018002fba4     LIBCMT:nlsdata.obj
 0002:00002bb0       ??_C@_1BC@IEBCMHCM@?$AAM?$AAM?$AA?1?$AAd?$AAd?$AA?1?$AAy?$AAy?$AA?$AA@ 000000018002fbb0     LIBCMT:nlsdata.obj
 0002:00002bc8       ??_C@_1CI@KNAKOEBC@?$AAd?$AAd?$AAd?$AAd?$AA?0?$AA?5?$AAM?$AAM?$AAM?$AAM?$AA?5?$AAd?$AAd?$AA?0?$AA?5?$AAy?$AAy?$AAy?$AAy?$AA?$AA@ 000000018002fbc8     LIBCMT:nlsdata.obj
 0002:00002bf0       ??_C@_1BC@GDGBMEMK@?$AAH?$AAH?$AA?3?$AAm?$AAm?$AA?3?$AAs?$AAs?$AA?$AA@ 000000018002fbf0     LIBCMT:nlsdata.obj
 0002:00002c08       ??_C@_1M@BMHNFIME@?$AAe?$AAn?$AA?9?$AAU?$AAS?$AA?$AA@ 000000018002fc08     LIBCMT:nlsdata.obj
 0002:00002ca0       _XcptActTab                000000018002fca0     LIBCMT:winxfltr.obj
 0002:00002d60       _XcptActTabCount           000000018002fd60     LIBCMT:winxfltr.obj
 0002:00002d64       _XcptActTabSize            000000018002fd64     LIBCMT:winxfltr.obj
 0002:00002d68       _First_FPE_Indx            000000018002fd68     LIBCMT:winxfltr.obj
 0002:00002d6c       _Num_FPE                   000000018002fd6c     LIBCMT:winxfltr.obj
 0002:00002d70       ??_C@_1BK@MGMFAEKH@?$AAk?$AAe?$AAr?$AAn?$AAe?$AAl?$AA3?$AA2?$AA?4?$AAd?$AAl?$AAl?$AA?$AA@ 000000018002fd70     LIBCMT:winapisupp.obj
 0002:00002d90       ??_C@_08KNHFBNJ@FlsAlloc?$AA@ 000000018002fd90     LIBCMT:winapisupp.obj
 0002:00002da0       ??_C@_07PEJMOBNF@FlsFree?$AA@ 000000018002fda0     LIBCMT:winapisupp.obj
 0002:00002da8       ??_C@_0M@GDNOONDI@FlsGetValue?$AA@ 000000018002fda8     LIBCMT:winapisupp.obj
 0002:00002db8       ??_C@_0M@JCPCPOEF@FlsSetValue?$AA@ 000000018002fdb8     LIBCMT:winapisupp.obj
 0002:00002dc8       ??_C@_0BM@HCFOFFN@InitializeCriticalSectionEx?$AA@ 000000018002fdc8     LIBCMT:winapisupp.obj
 0002:00002de8       ??_C@_0P@DLHPPCNH@CreateEventExW?$AA@ 000000018002fde8     LIBCMT:winapisupp.obj
 0002:00002df8       ??_C@_0BD@KIEEOEEH@CreateSemaphoreExW?$AA@ 000000018002fdf8     LIBCMT:winapisupp.obj
 0002:00002e10       ??_C@_0BI@BKLFFAPO@SetThreadStackGuarantee?$AA@ 000000018002fe10     LIBCMT:winapisupp.obj
 0002:00002e28       ??_C@_0BG@OGFAJCKC@CreateThreadpoolTimer?$AA@ 000000018002fe28     LIBCMT:winapisupp.obj
 0002:00002e40       ??_C@_0BD@LPLEMMDI@SetThreadpoolTimer?$AA@ 000000018002fe40     LIBCMT:winapisupp.obj
 0002:00002e58       ??_C@_0CA@FMNJENH@WaitForThreadpoolTimerCallbacks?$AA@ 000000018002fe58     LIBCMT:winapisupp.obj
 0002:00002e78       ??_C@_0BF@DCFCCNOC@CloseThreadpoolTimer?$AA@ 000000018002fe78     LIBCMT:winapisupp.obj
 0002:00002e90       ??_C@_0BF@FLABGKKM@CreateThreadpoolWait?$AA@ 000000018002fe90     LIBCMT:winapisupp.obj
 0002:00002ea8       ??_C@_0BC@MGCOHNA@SetThreadpoolWait?$AA@ 000000018002fea8     LIBCMT:winapisupp.obj
 0002:00002ec0       ??_C@_0BE@OCIOMIMP@CloseThreadpoolWait?$AA@ 000000018002fec0     LIBCMT:winapisupp.obj
 0002:00002ed8       ??_C@_0BJ@LKGHFHBO@FlushProcessWriteBuffers?$AA@ 000000018002fed8     LIBCMT:winapisupp.obj
 0002:00002ef8       ??_C@_0BP@KALKKPMO@FreeLibraryWhenCallbackReturns?$AA@ 000000018002fef8     LIBCMT:winapisupp.obj
 0002:00002f18       ??_C@_0BK@DFNBACLA@GetCurrentProcessorNumber?$AA@ 000000018002ff18     LIBCMT:winapisupp.obj
 0002:00002f38       ??_C@_0BP@KHGALBC@GetLogicalProcessorInformation?$AA@ 000000018002ff38     LIBCMT:winapisupp.obj
 0002:00002f58       ??_C@_0BE@FKKLLFLM@CreateSymbolicLinkW?$AA@ 000000018002ff58     LIBCMT:winapisupp.obj
 0002:00002f70       ??_C@_0BJ@OHNKDLIJ@SetDefaultDllDirectories?$AA@ 000000018002ff70     LIBCMT:winapisupp.obj
 0002:00002f90       ??_C@_0BE@LJANKFHF@EnumSystemLocalesEx?$AA@ 000000018002ff90     LIBCMT:winapisupp.obj
 0002:00002fa8       ??_C@_0BA@IHGNDAEB@CompareStringEx?$AA@ 000000018002ffa8     LIBCMT:winapisupp.obj
 0002:00002fb8       ??_C@_0BA@EPCJIIPD@GetDateFormatEx?$AA@ 000000018002ffb8     LIBCMT:winapisupp.obj
 0002:00002fc8       ??_C@_0BA@ONOKGCMP@GetLocaleInfoEx?$AA@ 000000018002ffc8     LIBCMT:winapisupp.obj
 0002:00002fd8       ??_C@_0BA@CIJJKCJJ@GetTimeFormatEx?$AA@ 000000018002ffd8     LIBCMT:winapisupp.obj
 0002:00002fe8       ??_C@_0BJ@PBCCBIPI@GetUserDefaultLocaleName?$AA@ 000000018002ffe8     LIBCMT:winapisupp.obj
 0002:00003008       ??_C@_0BC@CELBKLLA@IsValidLocaleName?$AA@ 0000000180030008     LIBCMT:winapisupp.obj
 0002:00003020       ??_C@_0O@KKBNKAPF@LCMapStringEx?$AA@ 0000000180030020     LIBCMT:winapisupp.obj
 0002:00003030       ??_C@_0BE@JOGNEJCI@GetCurrentPackageId?$AA@ 0000000180030030     LIBCMT:winapisupp.obj
 0002:00003048       ??_C@_0P@CDHHOHKP@GetTickCount64?$AA@ 0000000180030048     LIBCMT:winapisupp.obj
 0002:00003058       ??_C@_0BO@KPCLFDJJ@GetFileInformationByHandleExW?$AA@ 0000000180030058     LIBCMT:winapisupp.obj
 0002:00003078       ??_C@_0BM@MHIDLABK@SetFileInformationByHandleW?$AA@ 0000000180030078     LIBCMT:winapisupp.obj
 0002:00003098       _pDestructExceptionObject  0000000180030098     LIBCMT:frame.obj
 0002:000030a8       ??_7bad_exception@std@@6B@ 00000001800300a8     LIBCMT:frame.obj
 0002:000030b8       ??_C@_0O@DPKOEFFH@bad?5exception?$AA@ 00000001800300b8     LIBCMT:frame.obj
 0002:000030c8       ??_C@_05KLBDPFGC@e?$CL000?$AA@ 00000001800300c8     LIBCMT:cvt.obj
 0002:000030d0       __real@0000000000000000    00000001800300d0     LIBCMT:cvt.obj
 0002:000030e0       LcidToLocaleNameTable      00000001800300e0     LIBCMT:winapinls.obj
 0002:00003f20       LocaleNameToIndexTable     0000000180030f20     LIBCMT:winapinls.obj
 0002:00004d60       ??_C@_15EMKDOKLE@?$AAa?$AAr?$AA?$AA@ 0000000180031d60     LIBCMT:winapinls.obj
 0002:00004d68       ??_C@_15KNPADPLH@?$AAb?$AAg?$AA?$AA@ 0000000180031d68     LIBCMT:winapinls.obj
 0002:00004d70       ??_C@_15EDMHLDMO@?$AAc?$AAa?$AA?$AA@ 0000000180031d70     LIBCMT:winapinls.obj
 0002:00004d78       ??_C@_1O@BPEAJADD@?$AAz?$AAh?$AA?9?$AAC?$AAH?$AAS?$AA?$AA@ 0000000180031d78     LIBCMT:winapinls.obj
 0002:00004d88       ??_C@_15LJNHCMNK@?$AAc?$AAs?$AA?$AA@ 0000000180031d88     LIBCMT:winapinls.obj
 0002:00004d90       ??_C@_15FOMCIDHG@?$AAd?$AAa?$AA?$AA@ 0000000180031d90     LIBCMT:winapinls.obj
 0002:00004d98       ??_C@_15NBKABECB@?$AAd?$AAe?$AA?$AA@ 0000000180031d98     LIBCMT:winapinls.obj
 0002:00004da0       ??_C@_15GHPEIIAO@?$AAe?$AAl?$AA?$AA@ 0000000180031da0     LIBCMT:winapinls.obj
 0002:00004da8       ??_C@_15MNPNEAIF@?$AAe?$AAn?$AA?$AA@ 0000000180031da8     LIBCMT:winapinls.obj
 0002:00004db0       ??_C@_15GPIOMPMH@?$AAe?$AAs?$AA?$AA@ 0000000180031db0     LIBCMT:winapinls.obj
 0002:00004db8       ??_C@_15NGLOAKJC@?$AAf?$AAi?$AA?$AA@ 0000000180031db8     LIBCMT:winapinls.obj
 0002:00004dc0       ??_C@_15FBKGNKAM@?$AAf?$AAr?$AA?$AA@ 0000000180031dc0     LIBCMT:winapinls.obj
 0002:00004dc8       ??_C@_15KGGCNEFK@?$AAh?$AAe?$AA?$AA@ 0000000180031dc8     LIBCMT:winapinls.obj
 0002:00004dd0       ??_C@_15PGHLIDMF@?$AAh?$AAu?$AA?$AA@ 0000000180031dd0     LIBCMT:winapinls.obj
 0002:00004dd8       ??_C@_15BIEMAPLM@?$AAi?$AAs?$AA?$AA@ 0000000180031dd8     LIBCMT:winapinls.obj
 0002:00004de0       ??_C@_15IFJLDHAF@?$AAi?$AAt?$AA?$AA@ 0000000180031de0     LIBCMT:winapinls.obj
 0002:00004de8       ??_C@_15GEMIOCAG@?$AAj?$AAa?$AA?$AA@ 0000000180031de8     LIBCMT:winapinls.obj
 0002:00004df0       ??_C@_15EPELEGJA@?$AAk?$AAo?$AA?$AA@ 0000000180031df0     LIBCMT:winapinls.obj
 0002:00004df8       ??_C@_15NDDHIMN@?$AAn?$AAl?$AA?$AA@ 0000000180031df8     LIBCMT:winapinls.obj
 0002:00004e00       ??_C@_15BPIGNHCD@?$AAn?$AAo?$AA?$AA@ 0000000180031e00     LIBCMT:winapinls.obj
 0002:00004e08       ??_C@_15DEOPBLCG@?$AAp?$AAl?$AA?$AA@ 0000000180031e08     LIBCMT:winapinls.obj
 0002:00004e10       ??_C@_15KBECGEFG@?$AAp?$AAt?$AA?$AA@ 0000000180031e10     LIBCMT:winapinls.obj
 0002:00004e18       ??_C@_15GLJCBFMD@?$AAr?$AAo?$AA?$AA@ 0000000180031e18     LIBCMT:winapinls.obj
 0002:00004e20       ??_C@_15FEDGKCDI@?$AAr?$AAu?$AA?$AA@ 0000000180031e20     LIBCMT:winapinls.obj
 0002:00004e28       ??_C@_15GLKMLLHM@?$AAh?$AAr?$AA?$AA@ 0000000180031e28     LIBCMT:winapinls.obj
 0002:00004e30       ??_C@_15CPKMFBDB@?$AAs?$AAk?$AA?$AA@ 0000000180031e30     LIBCMT:winapinls.obj
 0002:00004e38       ??_C@_15BAAIOGMK@?$AAs?$AAq?$AA?$AA@ 0000000180031e38     LIBCMT:winapinls.obj
 0002:00004e40       ??_C@_15INNPNOHD@?$AAs?$AAv?$AA?$AA@ 0000000180031e40     LIBCMT:winapinls.obj
 0002:00004e48       ??_C@_15CABMMOGH@?$AAt?$AAh?$AA?$AA@ 0000000180031e48     LIBCMT:winapinls.obj
 0002:00004e50       ??_C@_15BPLIHJJM@?$AAt?$AAr?$AA?$AA@ 0000000180031e50     LIBCMT:winapinls.obj
 0002:00004e58       ??_C@_15NEOEKKDJ@?$AAu?$AAr?$AA?$AA@ 0000000180031e58     LIBCMT:winapinls.obj
 0002:00004e60       ??_C@_15NFICGAJK@?$AAi?$AAd?$AA?$AA@ 0000000180031e60     LIBCMT:winapinls.obj
 0002:00004e68       ??_C@_15PJPFLCCM@?$AAu?$AAk?$AA?$AA@ 0000000180031e68     LIBCMT:winapinls.obj
 0002:00004e70       ??_C@_15HPJPHDM@?$AAb?$AAe?$AA?$AA@ 0000000180031e70     LIBCMT:winapinls.obj
 0002:00004e78       ??_C@_15LCHLGJII@?$AAs?$AAl?$AA?$AA@ 0000000180031e78     LIBCMT:winapinls.obj
 0002:00004e80       ??_C@_15PCFJPHHO@?$AAe?$AAt?$AA?$AA@ 0000000180031e80     LIBCMT:winapinls.obj
 0002:00004e88       ??_C@_15HPFPGODN@?$AAl?$AAv?$AA?$AA@ 0000000180031e88     LIBCMT:winapinls.obj
 0002:00004e90       ??_C@_15NFFGKGLG@?$AAl?$AAt?$AA?$AA@ 0000000180031e90     LIBCMT:winapinls.obj
 0002:00004e98       ??_C@_15BDAKCCHN@?$AAf?$AAa?$AA?$AA@ 0000000180031e98     LIBCMT:winapinls.obj
 0002:00004ea0       ??_C@_15NFGIAIAJ@?$AAv?$AAi?$AA?$AA@ 0000000180031ea0     LIBCMT:winapinls.obj
 0002:00004ea8       ??_C@_15LMKNDMHN@?$AAh?$AAy?$AA?$AA@ 0000000180031ea8     LIBCMT:winapinls.obj
 0002:00004eb0       ??_C@_15IJBHMCFL@?$AAa?$AAz?$AA?$AA@ 0000000180031eb0     LIBCMT:winapinls.obj
 0002:00004eb8       ??_C@_15EKOFJABL@?$AAe?$AAu?$AA?$AA@ 0000000180031eb8     LIBCMT:winapinls.obj
 0002:00004ec0       ??_C@_15BGHADCNK@?$AAm?$AAk?$AA?$AA@ 0000000180031ec0     LIBCMT:winapinls.obj
 0002:00004ec8       ??_C@_15JDNICKHM@?$AAa?$AAf?$AA?$AA@ 0000000180031ec8     LIBCMT:winapinls.obj
 0002:00004ed0       ??_C@_15KPJEDBKD@?$AAk?$AAa?$AA?$AA@ 0000000180031ed0     LIBCMT:winapinls.obj
 0002:00004ed8       ??_C@_15PDNFFFEO@?$AAf?$AAo?$AA?$AA@ 0000000180031ed8     LIBCMT:winapinls.obj
 0002:00004ee0       ??_C@_15OMLEGLOC@?$AAh?$AAi?$AA?$AA@ 0000000180031ee0     LIBCMT:winapinls.obj
 0002:00004ee8       ??_C@_15IDNNENKK@?$AAm?$AAs?$AA?$AA@ 0000000180031ee8     LIBCMT:winapinls.obj
 0002:00004ef0       ??_C@_15MACJNBMH@?$AAk?$AAk?$AA?$AA@ 0000000180031ef0     LIBCMT:winapinls.obj
 0002:00004ef8       ??_C@_15DKDJEOND@?$AAk?$AAy?$AA?$AA@ 0000000180031ef8     LIBCMT:winapinls.obj
 0002:00004f00       ??_C@_15DFGDLJBG@?$AAs?$AAw?$AA?$AA@ 0000000180031f00     LIBCMT:winapinls.obj
 0002:00004f08       ??_C@_15BBFAICNG@?$AAu?$AAz?$AA?$AA@ 0000000180031f08     LIBCMT:winapinls.obj
 0002:00004f10       ??_C@_15DKNDCGEA@?$AAt?$AAt?$AA?$AA@ 0000000180031f10     LIBCMT:winapinls.obj
 0002:00004f18       ??_C@_15MGIFMDPL@?$AAp?$AAa?$AA?$AA@ 0000000180031f18     LIBCMT:winapinls.obj
 0002:00004f20       ??_C@_15HCNDBBA@?$AAg?$AAu?$AA?$AA@ 0000000180031f20     LIBCMT:winapinls.obj
 0002:00004f28       ??_C@_15FNBEIBON@?$AAt?$AAa?$AA?$AA@ 0000000180031f28     LIBCMT:winapinls.obj
 0002:00004f30       ??_C@_15NCHGBGLK@?$AAt?$AAe?$AA?$AA@ 0000000180031f30     LIBCMT:winapinls.obj
 0002:00004f38       ??_C@_15PHPHCBPF@?$AAk?$AAn?$AA?$AA@ 0000000180031f38     LIBCMT:winapinls.obj
 0002:00004f40       ??_C@_15DLGBCKMP@?$AAm?$AAr?$AA?$AA@ 0000000180031f40     LIBCMT:winapinls.obj
 0002:00004f48       ??_C@_15EABBLBFF@?$AAs?$AAa?$AA?$AA@ 0000000180031f48     LIBCMT:winapinls.obj
 0002:00004f50       ??_C@_15CBKOMCOI@?$AAm?$AAn?$AA?$AA@ 0000000180031f50     LIBCMT:winapinls.obj
 0002:00004f58       ??_C@_15CKDMCJAF@?$AAg?$AAl?$AA?$AA@ 0000000180031f58     LIBCMT:winapinls.obj
 0002:00004f60       ??_C@_17CNJFBPG@?$AAk?$AAo?$AAk?$AA?$AA@ 0000000180031f60     LIBCMT:winapinls.obj
 0002:00004f68       ??_C@_17FFBJICPL@?$AAs?$AAy?$AAr?$AA?$AA@ 0000000180031f68     LIBCMT:winapinls.obj
 0002:00004f70       ??_C@_17KPNDCPAF@?$AAd?$AAi?$AAv?$AA?$AA@ 0000000180031f70     LIBCMT:winapinls.obj
 0002:00004f78       ??_C@_11LOCGONAA@?$AA?$AA@ 0000000180031f78     LIBCMT:winapinls.obj
 0002:00004f80       ??_C@_1M@OKAHONE@?$AAa?$AAr?$AA?9?$AAS?$AAA?$AA?$AA@ 0000000180031f80     LIBCMT:winapinls.obj
 0002:00004f90       ??_C@_1M@FFFIGIGK@?$AAb?$AAg?$AA?9?$AAB?$AAG?$AA?$AA@ 0000000180031f90     LIBCMT:winapinls.obj
 0002:00004fa0       ??_C@_1M@BJNKEDC@?$AAc?$AAa?$AA?9?$AAE?$AAS?$AA?$AA@ 0000000180031fa0     LIBCMT:winapinls.obj
 0002:00004fb0       ??_C@_1M@IJJHFJHA@?$AAc?$AAs?$AA?9?$AAC?$AAZ?$AA?$AA@ 0000000180031fb0     LIBCMT:winapinls.obj
 0002:00004fc0       ??_C@_1M@CLPEOBGI@?$AAd?$AAa?$AA?9?$AAD?$AAK?$AA?$AA@ 0000000180031fc0     LIBCMT:winapinls.obj
 0002:00004fd0       ??_C@_1M@MCMADGCB@?$AAd?$AAe?$AA?9?$AAD?$AAE?$AA?$AA@ 0000000180031fd0     LIBCMT:winapinls.obj
 0002:00004fe0       ??_C@_1M@OOCKEMAM@?$AAe?$AAl?$AA?9?$AAG?$AAR?$AA?$AA@ 0000000180031fe0     LIBCMT:winapinls.obj
 0002:00004ff0       ??_C@_1M@DDNJFGID@?$AAf?$AAi?$AA?9?$AAF?$AAI?$AA?$AA@ 0000000180031ff0     LIBCMT:winapinls.obj
 0002:00005000       ??_C@_1M@GLIPPMAC@?$AAf?$AAr?$AA?9?$AAF?$AAR?$AA?$AA@ 0000000180032000     LIBCMT:winapinls.obj
 0002:00005010       ??_C@_1M@GFMCHPE@?$AAh?$AAe?$AA?9?$AAI?$AAL?$AA?$AA@ 0000000180032010     LIBCMT:winapinls.obj
 0002:00005020       ??_C@_1M@MHLPGNKM@?$AAh?$AAu?$AA?9?$AAH?$AAU?$AA?$AA@ 0000000180032020     LIBCMT:winapinls.obj
 0002:00005030       ??_C@_1M@LPDDNNPN@?$AAi?$AAs?$AA?9?$AAI?$AAS?$AA?$AA@ 0000000180032030     LIBCMT:winapinls.obj
 0002:00005040       ??_C@_1M@MADIPODN@?$AAi?$AAt?$AA?9?$AAI?$AAT?$AA?$AA@ 0000000180032040     LIBCMT:winapinls.obj
 0002:00005050       ??_C@_1M@IHBJJGG@?$AAn?$AAl?$AA?9?$AAN?$AAL?$AA?$AA@ 0000000180032050     LIBCMT:winapinls.obj
 0002:00005060       ??_C@_1M@EANAGDL@?$AAn?$AAb?$AA?9?$AAN?$AAO?$AA?$AA@ 0000000180032060     LIBCMT:winapinls.obj
 0002:00005070       ??_C@_1M@NEIEMEGP@?$AAp?$AAl?$AA?9?$AAP?$AAL?$AA?$AA@ 0000000180032070     LIBCMT:winapinls.obj
 0002:00005080       ??_C@_1M@BOCFIGEP@?$AAp?$AAt?$AA?9?$AAB?$AAR?$AA?$AA@ 0000000180032080     LIBCMT:winapinls.obj
 0002:00005090       ??_C@_1M@IMPFOPBG@?$AAr?$AAo?$AA?9?$AAR?$AAO?$AA?$AA@ 0000000180032090     LIBCMT:winapinls.obj
 0002:000050a0       ??_C@_1M@IDNNEJMM@?$AAr?$AAu?$AA?9?$AAR?$AAU?$AA?$AA@ 00000001800320a0     LIBCMT:winapinls.obj
 0002:000050b0       ??_C@_1M@LILEEOGM@?$AAh?$AAr?$AA?9?$AAH?$AAR?$AA?$AA@ 00000001800320b0     LIBCMT:winapinls.obj
 0002:000050c0       ??_C@_1M@FKIFEHPB@?$AAs?$AAk?$AA?9?$AAS?$AAK?$AA?$AA@ 00000001800320c0     LIBCMT:winapinls.obj
 0002:000050d0       ??_C@_1M@LJMAMNPJ@?$AAs?$AAq?$AA?9?$AAA?$AAL?$AA?$AA@ 00000001800320d0     LIBCMT:winapinls.obj
 0002:000050e0       ??_C@_1M@GIAKDKJK@?$AAs?$AAv?$AA?9?$AAS?$AAE?$AA?$AA@ 00000001800320e0     LIBCMT:winapinls.obj
 0002:000050f0       ??_C@_1M@MKJKIKCL@?$AAt?$AAh?$AA?9?$AAT?$AAH?$AA?$AA@ 00000001800320f0     LIBCMT:winapinls.obj
 0002:00005100       ??_C@_1M@MFLCCMPB@?$AAt?$AAr?$AA?9?$AAT?$AAR?$AA?$AA@ 0000000180032100     LIBCMT:winapinls.obj
 0002:00005110       ??_C@_1M@OIJHDKJN@?$AAu?$AAr?$AA?9?$AAP?$AAK?$AA?$AA@ 0000000180032110     LIBCMT:winapinls.obj
 0002:00005120       ??_C@_1M@LHIPCIEK@?$AAi?$AAd?$AA?9?$AAI?$AAD?$AA?$AA@ 0000000180032120     LIBCMT:winapinls.obj
 0002:00005130       ??_C@_1M@MFMOBGI@?$AAu?$AAk?$AA?9?$AAU?$AAA?$AA?$AA@ 0000000180032130     LIBCMT:winapinls.obj
 0002:00005140       ??_C@_1M@OBGLJIPL@?$AAb?$AAe?$AA?9?$AAB?$AAY?$AA?$AA@ 0000000180032140     LIBCMT:winapinls.obj
 0002:00005150       ??_C@_1M@BCFAJEAD@?$AAs?$AAl?$AA?9?$AAS?$AAI?$AA?$AA@ 0000000180032150     LIBCMT:winapinls.obj
 0002:00005160       ??_C@_1M@FKFFEDDN@?$AAe?$AAt?$AA?9?$AAE?$AAE?$AA?$AA@ 0000000180032160     LIBCMT:winapinls.obj
 0002:00005170       ??_C@_1M@KGKKAACI@?$AAl?$AAv?$AA?9?$AAL?$AAV?$AA?$AA@ 0000000180032170     LIBCMT:winapinls.obj
 0002:00005180       ??_C@_1M@IFGBIJO@?$AAl?$AAt?$AA?9?$AAL?$AAT?$AA?$AA@ 0000000180032180     LIBCMT:winapinls.obj
 0002:00005190       ??_C@_1M@FGEAHEDM@?$AAf?$AAa?$AA?9?$AAI?$AAR?$AA?$AA@ 0000000180032190     LIBCMT:winapinls.obj
 0002:000051a0       ??_C@_1M@KBMAIBFN@?$AAv?$AAi?$AA?9?$AAV?$AAN?$AA?$AA@ 00000001800321a0     LIBCMT:winapinls.obj
 0002:000051b0       ??_C@_1M@GPCBKDJK@?$AAh?$AAy?$AA?9?$AAA?$AAM?$AA?$AA@ 00000001800321b0     LIBCMT:winapinls.obj
 0002:000051c0       ??_C@_1BG@BECMDDJB@?$AAa?$AAz?$AA?9?$AAA?$AAZ?$AA?9?$AAL?$AAa?$AAt?$AAn?$AA?$AA@ 00000001800321c0     LIBCMT:winapinls.obj
 0002:000051d8       ??_C@_1M@MAOFCAEA@?$AAe?$AAu?$AA?9?$AAE?$AAS?$AA?$AA@ 00000001800321d8     LIBCMT:winapinls.obj
 0002:000051e8       ??_C@_1M@IGHABKPI@?$AAm?$AAk?$AA?9?$AAM?$AAK?$AA?$AA@ 00000001800321e8     LIBCMT:winapinls.obj
 0002:000051f8       ??_C@_1M@IAIGNEJG@?$AAt?$AAn?$AA?9?$AAZ?$AAA?$AA?$AA@ 00000001800321f8     LIBCMT:winapinls.obj
 0002:00005208       ??_C@_1M@IIJCOJFA@?$AAx?$AAh?$AA?9?$AAZ?$AAA?$AA?$AA@ 0000000180032208     LIBCMT:winapinls.obj
 0002:00005218       ??_C@_1M@LGPJHNJH@?$AAz?$AAu?$AA?9?$AAZ?$AAA?$AA?$AA@ 0000000180032218     LIBCMT:winapinls.obj
 0002:00005228       ??_C@_1M@HOKAOIO@?$AAa?$AAf?$AA?9?$AAZ?$AAA?$AA?$AA@ 0000000180032228     LIBCMT:winapinls.obj
 0002:00005238       ??_C@_1M@DPCLHLIE@?$AAk?$AAa?$AA?9?$AAG?$AAE?$AA?$AA@ 0000000180032238     LIBCMT:winapinls.obj
 0002:00005248       ??_C@_1M@BLKMHJBI@?$AAf?$AAo?$AA?9?$AAF?$AAO?$AA?$AA@ 0000000180032248     LIBCMT:winapinls.obj
 0002:00005258       ??_C@_1M@LGGJAPPB@?$AAh?$AAi?$AA?9?$AAI?$AAN?$AA?$AA@ 0000000180032258     LIBCMT:winapinls.obj
 0002:00005268       ??_C@_1M@FIKPIHFE@?$AAm?$AAt?$AA?9?$AAM?$AAT?$AA?$AA@ 0000000180032268     LIBCMT:winapinls.obj
 0002:00005278       ??_C@_1M@HEGGPBFA@?$AAs?$AAe?$AA?9?$AAN?$AAO?$AA?$AA@ 0000000180032278     LIBCMT:winapinls.obj
 0002:00005288       ??_C@_1M@EIBJEEPA@?$AAm?$AAs?$AA?9?$AAM?$AAY?$AA?$AA@ 0000000180032288     LIBCMT:winapinls.obj
 0002:00005298       ??_C@_1M@FHLBGMPP@?$AAk?$AAk?$AA?9?$AAK?$AAZ?$AA?$AA@ 0000000180032298     LIBCMT:winapinls.obj
 0002:000052a8       ??_C@_1M@NGJJLCGI@?$AAk?$AAy?$AA?9?$AAK?$AAG?$AA?$AA@ 00000001800322a8     LIBCMT:winapinls.obj
 0002:000052b8       ??_C@_1M@GIENNBFC@?$AAs?$AAw?$AA?9?$AAK?$AAE?$AA?$AA@ 00000001800322b8     LIBCMT:winapinls.obj
 0002:000052c8       ??_C@_1BG@NDGMJIMJ@?$AAu?$AAz?$AA?9?$AAU?$AAZ?$AA?9?$AAL?$AAa?$AAt?$AAn?$AA?$AA@ 00000001800322c8     LIBCMT:winapinls.obj
 0002:000052e0       ??_C@_1M@IDCCIHBC@?$AAt?$AAt?$AA?9?$AAR?$AAU?$AA?$AA@ 00000001800322e0     LIBCMT:winapinls.obj
 0002:000052f0       ??_C@_1M@LOICPMOJ@?$AAb?$AAn?$AA?9?$AAI?$AAN?$AA?$AA@ 00000001800322f0     LIBCMT:winapinls.obj
 0002:00005300       ??_C@_1M@KPKKNEAH@?$AAp?$AAa?$AA?9?$AAI?$AAN?$AA?$AA@ 0000000180032300     LIBCMT:winapinls.obj
 0002:00005310       ??_C@_1M@PJGPPBOG@?$AAg?$AAu?$AA?9?$AAI?$AAN?$AA?$AA@ 0000000180032310     LIBCMT:winapinls.obj
 0002:00005320       ??_C@_1M@KMKMOPHI@?$AAt?$AAa?$AA?9?$AAI?$AAN?$AA?$AA@ 0000000180032320     LIBCMT:winapinls.obj
 0002:00005330       ??_C@_1M@KFEHEPAC@?$AAt?$AAe?$AA?9?$AAI?$AAN?$AA?$AA@ 0000000180032330     LIBCMT:winapinls.obj
 0002:00005340       ??_C@_1M@CDCLMGHI@?$AAk?$AAn?$AA?9?$AAI?$AAN?$AA?$AA@ 0000000180032340     LIBCMT:winapinls.obj
 0002:00005350       ??_C@_1M@MIODLDKF@?$AAm?$AAl?$AA?9?$AAI?$AAN?$AA?$AA@ 0000000180032350     LIBCMT:winapinls.obj
 0002:00005360       ??_C@_1M@PBIEACPO@?$AAm?$AAr?$AA?9?$AAI?$AAN?$AA?$AA@ 0000000180032360     LIBCMT:winapinls.obj
 0002:00005370       ??_C@_1M@NIDEAGPH@?$AAs?$AAa?$AA?9?$AAI?$AAN?$AA?$AA@ 0000000180032370     LIBCMT:winapinls.obj
 0002:00005380       ??_C@_1M@FHIHCBIO@?$AAm?$AAn?$AA?9?$AAM?$AAN?$AA?$AA@ 0000000180032380     LIBCMT:winapinls.obj
 0002:00005390       ??_C@_1M@JAIJPENP@?$AAc?$AAy?$AA?9?$AAG?$AAB?$AA?$AA@ 0000000180032390     LIBCMT:winapinls.obj
 0002:000053a0       ??_C@_1M@PHGFBEPN@?$AAg?$AAl?$AA?9?$AAE?$AAS?$AA?$AA@ 00000001800323a0     LIBCMT:winapinls.obj
 0002:000053b0       ??_C@_1O@KPIPDNCP@?$AAk?$AAo?$AAk?$AA?9?$AAI?$AAN?$AA?$AA@ 00000001800323b0     LIBCMT:winapinls.obj
 0002:000053c0       ??_C@_1O@KNHJLDJA@?$AAs?$AAy?$AAr?$AA?9?$AAS?$AAY?$AA?$AA@ 00000001800323c0     LIBCMT:winapinls.obj
 0002:000053d0       ??_C@_1O@MKEKBLAH@?$AAd?$AAi?$AAv?$AA?9?$AAM?$AAV?$AA?$AA@ 00000001800323d0     LIBCMT:winapinls.obj
 0002:000053e0       ??_C@_1O@OHDCKDDF@?$AAq?$AAu?$AAz?$AA?9?$AAB?$AAO?$AA?$AA@ 00000001800323e0     LIBCMT:winapinls.obj
 0002:000053f0       ??_C@_1M@LEPJNLFD@?$AAn?$AAs?$AA?9?$AAZ?$AAA?$AA?$AA@ 00000001800323f0     LIBCMT:winapinls.obj
 0002:00005400       ??_C@_1M@OMLEIIJB@?$AAm?$AAi?$AA?9?$AAN?$AAZ?$AA?$AA@ 0000000180032400     LIBCMT:winapinls.obj
 0002:00005410       ??_C@_1M@PMPEAILG@?$AAa?$AAr?$AA?9?$AAI?$AAQ?$AA?$AA@ 0000000180032410     LIBCMT:winapinls.obj
 0002:00005420       ??_C@_1M@CNKPNOEE@?$AAd?$AAe?$AA?9?$AAC?$AAH?$AA?$AA@ 0000000180032420     LIBCMT:winapinls.obj
 0002:00005430       ??_C@_1M@LKMGMLKO@?$AAe?$AAn?$AA?9?$AAG?$AAB?$AA?$AA@ 0000000180032430     LIBCMT:winapinls.obj
 0002:00005440       ??_C@_1M@PGKJFFGL@?$AAe?$AAs?$AA?9?$AAM?$AAX?$AA?$AA@ 0000000180032440     LIBCMT:winapinls.obj
 0002:00005450       ??_C@_1M@DNNANBDC@?$AAf?$AAr?$AA?9?$AAB?$AAE?$AA?$AA@ 0000000180032450     LIBCMT:winapinls.obj
 0002:00005460       ??_C@_1M@HLGMDFHM@?$AAi?$AAt?$AA?9?$AAC?$AAH?$AA?$AA@ 0000000180032460     LIBCMT:winapinls.obj
 0002:00005470       ??_C@_1M@CLLBGJH@?$AAn?$AAl?$AA?9?$AAB?$AAE?$AA?$AA@ 0000000180032470     LIBCMT:winapinls.obj
 0002:00005480       ??_C@_1M@BODBOGLF@?$AAn?$AAn?$AA?9?$AAN?$AAO?$AA?$AA@ 0000000180032480     LIBCMT:winapinls.obj
 0002:00005490       ??_C@_1M@HFFAHKAD@?$AAp?$AAt?$AA?9?$AAP?$AAT?$AA?$AA@ 0000000180032490     LIBCMT:winapinls.obj
 0002:000054a0       ??_C@_1BG@LNOAKHIE@?$AAs?$AAr?$AA?9?$AAS?$AAP?$AA?9?$AAL?$AAa?$AAt?$AAn?$AA?$AA@ 00000001800324a0     LIBCMT:winapinls.obj
 0002:000054b8       ??_C@_1M@HBMHBGAK@?$AAs?$AAv?$AA?9?$AAF?$AAI?$AA?$AA@ 00000001800324b8     LIBCMT:winapinls.obj
 0002:000054c8       ??_C@_1BG@DGCJGJBE@?$AAa?$AAz?$AA?9?$AAA?$AAZ?$AA?9?$AAC?$AAy?$AAr?$AAl?$AA?$AA@ 00000001800324c8     LIBCMT:winapinls.obj
 0002:000054e0       ??_C@_1M@KEJDAAHB@?$AAs?$AAe?$AA?9?$AAS?$AAE?$AA?$AA@ 00000001800324e0     LIBCMT:winapinls.obj
 0002:000054f0       ??_C@_1M@HEIBJJAD@?$AAm?$AAs?$AA?9?$AAB?$AAN?$AA?$AA@ 00000001800324f0     LIBCMT:winapinls.obj
 0002:00005500       ??_C@_1BG@PBGJMCEM@?$AAu?$AAz?$AA?9?$AAU?$AAZ?$AA?9?$AAC?$AAy?$AAr?$AAl?$AA?$AA@ 0000000180032500     LIBCMT:winapinls.obj
 0002:00005518       ??_C@_1O@LAOBCMDF@?$AAq?$AAu?$AAz?$AA?9?$AAE?$AAC?$AA?$AA@ 0000000180032518     LIBCMT:winapinls.obj
 0002:00005528       ??_C@_1M@POEEMAIO@?$AAa?$AAr?$AA?9?$AAE?$AAG?$AA?$AA@ 0000000180032528     LIBCMT:winapinls.obj
 0002:00005538       ??_C@_1M@EFAKDEDL@?$AAz?$AAh?$AA?9?$AAH?$AAK?$AA?$AA@ 0000000180032538     LIBCMT:winapinls.obj
 0002:00005548       ??_C@_1M@HKKIJHGI@?$AAd?$AAe?$AA?9?$AAA?$AAT?$AA?$AA@ 0000000180032548     LIBCMT:winapinls.obj
 0002:00005558       ??_C@_1M@KBFBEHJF@?$AAe?$AAn?$AA?9?$AAA?$AAU?$AA?$AA@ 0000000180032558     LIBCMT:winapinls.obj
 0002:00005568       ??_C@_1M@MNPLFAAH@?$AAe?$AAs?$AA?9?$AAE?$AAS?$AA?$AA@ 0000000180032568     LIBCMT:winapinls.obj
 0002:00005578       ??_C@_1M@HJOOJFMA@?$AAf?$AAr?$AA?9?$AAC?$AAA?$AA?$AA@ 0000000180032578     LIBCMT:winapinls.obj
 0002:00005588       ??_C@_1BG@JPOFPNAB@?$AAs?$AAr?$AA?9?$AAS?$AAP?$AA?9?$AAC?$AAy?$AAr?$AAl?$AA?$AA@ 0000000180032588     LIBCMT:winapinls.obj
 0002:000055a0       ??_C@_1M@LNFOCMOB@?$AAs?$AAe?$AA?9?$AAF?$AAI?$AA?$AA@ 00000001800325a0     LIBCMT:winapinls.obj
 0002:000055b0       ??_C@_1O@MGJBOAMB@?$AAq?$AAu?$AAz?$AA?9?$AAP?$AAE?$AA?$AA@ 00000001800325b0     LIBCMT:winapinls.obj
 0002:000055c0       ??_C@_1M@GJINLBOK@?$AAa?$AAr?$AA?9?$AAL?$AAY?$AA?$AA@ 00000001800325c0     LIBCMT:winapinls.obj
 0002:000055d0       ??_C@_1M@GGMNHJNL@?$AAz?$AAh?$AA?9?$AAS?$AAG?$AA?$AA@ 00000001800325d0     LIBCMT:winapinls.obj
 0002:000055e0       ??_C@_1M@HOIKODND@?$AAd?$AAe?$AA?9?$AAL?$AAU?$AA?$AA@ 00000001800325e0     LIBCMT:winapinls.obj
 0002:000055f0       ??_C@_1M@DDOCCGFG@?$AAe?$AAn?$AA?9?$AAC?$AAA?$AA?$AA@ 00000001800325f0     LIBCMT:winapinls.obj
 0002:00005600       ??_C@_1M@BNOEMJLF@?$AAe?$AAs?$AA?9?$AAG?$AAT?$AA?$AA@ 0000000180032600     LIBCMT:winapinls.obj
 0002:00005610       ??_C@_1M@EOGNKEK@?$AAf?$AAr?$AA?9?$AAC?$AAH?$AA?$AA@ 0000000180032610     LIBCMT:winapinls.obj
 0002:00005620       ??_C@_1M@FLIDJFHL@?$AAh?$AAr?$AA?9?$AAB?$AAA?$AA?$AA@ 0000000180032620     LIBCMT:winapinls.obj
 0002:00005630       ??_C@_1O@FMCELNAJ@?$AAs?$AAm?$AAj?$AA?9?$AAN?$AAO?$AA?$AA@ 0000000180032630     LIBCMT:winapinls.obj
 0002:00005640       ??_C@_1M@JHGLJMGJ@?$AAa?$AAr?$AA?9?$AAD?$AAZ?$AA?$AA@ 0000000180032640     LIBCMT:winapinls.obj
 0002:00005650       ??_C@_1M@JKKFDCNP@?$AAz?$AAh?$AA?9?$AAM?$AAO?$AA?$AA@ 0000000180032650     LIBCMT:winapinls.obj
 0002:00005660       ??_C@_1M@GEEFALPE@?$AAd?$AAe?$AA?9?$AAL?$AAI?$AA?$AA@ 0000000180032660     LIBCMT:winapinls.obj
 0002:00005670       ??_C@_1M@IGEOFBG@?$AAe?$AAn?$AA?9?$AAN?$AAZ?$AA?$AA@ 0000000180032670     LIBCMT:winapinls.obj
 0002:00005680       ??_C@_1M@KDBONEHP@?$AAe?$AAs?$AA?9?$AAC?$AAR?$AA?$AA@ 0000000180032680     LIBCMT:winapinls.obj
 0002:00005690       ??_C@_1M@FHMDOHNN@?$AAf?$AAr?$AA?9?$AAL?$AAU?$AA?$AA@ 0000000180032690     LIBCMT:winapinls.obj
 0002:000056a0       ??_C@_1BG@NFKKMAFG@?$AAb?$AAs?$AA?9?$AAB?$AAA?$AA?9?$AAL?$AAa?$AAt?$AAn?$AA?$AA@ 00000001800326a0     LIBCMT:winapinls.obj
 0002:000056b8       ??_C@_1O@IMNBEMCI@?$AAs?$AAm?$AAj?$AA?9?$AAS?$AAE?$AA?$AA@ 00000001800326b8     LIBCMT:winapinls.obj
 0002:000056c8       ??_C@_1M@DHHMBNDP@?$AAa?$AAr?$AA?9?$AAM?$AAA?$AA?$AA@ 00000001800326c8     LIBCMT:winapinls.obj
 0002:000056d8       ??_C@_1M@BNBLJCGH@?$AAe?$AAn?$AA?9?$AAI?$AAE?$AA?$AA@ 00000001800326d8     LIBCMT:winapinls.obj
 0002:000056e8       ??_C@_1M@GEPAFMDL@?$AAe?$AAs?$AA?9?$AAP?$AAA?$AA?$AA@ 00000001800326e8     LIBCMT:winapinls.obj
 0002:000056f8       ??_C@_1M@OJONDMDL@?$AAf?$AAr?$AA?9?$AAM?$AAC?$AA?$AA@ 00000001800326f8     LIBCMT:winapinls.obj
 0002:00005708       ??_C@_1BG@OBCNFJB@?$AAs?$AAr?$AA?9?$AAB?$AAA?$AA?9?$AAL?$AAa?$AAt?$AAn?$AA?$AA@ 0000000180032708     LIBCMT:winapinls.obj
 0002:00005720       ??_C@_1O@KEMEEGPO@?$AAs?$AAm?$AAa?$AA?9?$AAN?$AAO?$AA?$AA@ 0000000180032720     LIBCMT:winapinls.obj
 0002:00005730       ??_C@_1M@ELMGFODK@?$AAa?$AAr?$AA?9?$AAT?$AAN?$AA?$AA@ 0000000180032730     LIBCMT:winapinls.obj
 0002:00005740       ??_C@_1M@BHDLHFAF@?$AAe?$AAn?$AA?9?$AAZ?$AAA?$AA?$AA@ 0000000180032740     LIBCMT:winapinls.obj
 0002:00005750       ??_C@_1M@BMGIGLIF@?$AAe?$AAs?$AA?9?$AAD?$AAO?$AA?$AA@ 0000000180032750     LIBCMT:winapinls.obj
 0002:00005760       ??_C@_1BG@CMBHIPBE@?$AAs?$AAr?$AA?9?$AAB?$AAA?$AA?9?$AAC?$AAy?$AAr?$AAl?$AA?$AA@ 0000000180032760     LIBCMT:winapinls.obj
 0002:00005778       ??_C@_1O@HEDBLHNP@?$AAs?$AAm?$AAa?$AA?9?$AAS?$AAE?$AA?$AA@ 0000000180032778     LIBCMT:winapinls.obj
 0002:00005788       ??_C@_1M@DAGCADIM@?$AAa?$AAr?$AA?9?$AAO?$AAM?$AA?$AA@ 0000000180032788     LIBCMT:winapinls.obj
 0002:00005798       ??_C@_1M@FODLMICG@?$AAe?$AAn?$AA?9?$AAJ?$AAM?$AA?$AA@ 0000000180032798     LIBCMT:winapinls.obj
 0002:000057a8       ??_C@_1M@DNMLCIHB@?$AAe?$AAs?$AA?9?$AAV?$AAE?$AA?$AA@ 00000001800327a8     LIBCMT:winapinls.obj
 0002:000057b8       ??_C@_1O@EOKHMKJK@?$AAs?$AAm?$AAs?$AA?9?$AAF?$AAI?$AA?$AA@ 00000001800327b8     LIBCMT:winapinls.obj
 0002:000057c8       ??_C@_1M@CAFJMKOF@?$AAa?$AAr?$AA?9?$AAY?$AAE?$AA?$AA@ 00000001800327c8     LIBCMT:winapinls.obj
 0002:000057d8       ??_C@_1M@CBFHIJLI@?$AAe?$AAn?$AA?9?$AAC?$AAB?$AA?$AA@ 00000001800327d8     LIBCMT:winapinls.obj
 0002:000057e8       ??_C@_1M@BGNFLDN@?$AAe?$AAs?$AA?9?$AAC?$AAO?$AA?$AA@ 00000001800327e8     LIBCMT:winapinls.obj
 0002:000057f8       ??_C@_1O@JMPHMAMC@?$AAs?$AAm?$AAn?$AA?9?$AAF?$AAI?$AA?$AA@ 00000001800327f8     LIBCMT:winapinls.obj
 0002:00005808       ??_C@_1M@JLANABKE@?$AAa?$AAr?$AA?9?$AAS?$AAY?$AA?$AA@ 0000000180032808     LIBCMT:winapinls.obj
 0002:00005818       ??_C@_1M@HPKGCFGN@?$AAe?$AAn?$AA?9?$AAB?$AAZ?$AA?$AA@ 0000000180032818     LIBCMT:winapinls.obj
 0002:00005828       ??_C@_1M@OLJCMLGM@?$AAe?$AAs?$AA?9?$AAP?$AAE?$AA?$AA@ 0000000180032828     LIBCMT:winapinls.obj
 0002:00005838       ??_C@_1M@MKKGFKLE@?$AAa?$AAr?$AA?9?$AAJ?$AAO?$AA?$AA@ 0000000180032838     LIBCMT:winapinls.obj
 0002:00005848       ??_C@_1M@EKPGLDNI@?$AAe?$AAn?$AA?9?$AAT?$AAT?$AA?$AA@ 0000000180032848     LIBCMT:winapinls.obj
 0002:00005858       ??_C@_1M@OONGHFHE@?$AAe?$AAs?$AA?9?$AAA?$AAR?$AA?$AA@ 0000000180032858     LIBCMT:winapinls.obj
 0002:00005868       ??_C@_1M@OOJFGBHE@?$AAa?$AAr?$AA?9?$AAL?$AAB?$AA?$AA@ 0000000180032868     LIBCMT:winapinls.obj
 0002:00005878       ??_C@_1M@GCEJHNEG@?$AAe?$AAn?$AA?9?$AAZ?$AAW?$AA?$AA@ 0000000180032878     LIBCMT:winapinls.obj
 0002:00005888       ??_C@_1M@JNOCAHJI@?$AAe?$AAs?$AA?9?$AAE?$AAC?$AA?$AA@ 0000000180032888     LIBCMT:winapinls.obj
 0002:00005898       ??_C@_1M@JEFHPGGB@?$AAa?$AAr?$AA?9?$AAK?$AAW?$AA?$AA@ 0000000180032898     LIBCMT:winapinls.obj
 0002:000058a8       ??_C@_1M@MLKIBJOJ@?$AAe?$AAn?$AA?9?$AAP?$AAH?$AA?$AA@ 00000001800328a8     LIBCMT:winapinls.obj
 0002:000058b8       ??_C@_1M@BDNIPEND@?$AAe?$AAs?$AA?9?$AAC?$AAL?$AA?$AA@ 00000001800328b8     LIBCMT:winapinls.obj
 0002:000058c8       ??_C@_1M@MPNMEKBD@?$AAa?$AAr?$AA?9?$AAA?$AAE?$AA?$AA@ 00000001800328c8     LIBCMT:winapinls.obj
 0002:000058d8       ??_C@_1M@KBJALCPI@?$AAe?$AAs?$AA?9?$AAU?$AAY?$AA?$AA@ 00000001800328d8     LIBCMT:winapinls.obj
 0002:000058e8       ??_C@_1M@LLCCOAGA@?$AAa?$AAr?$AA?9?$AAB?$AAH?$AA?$AA@ 00000001800328e8     LIBCMT:winapinls.obj
 0002:000058f8       ??_C@_1M@PBFNCDEL@?$AAe?$AAs?$AA?9?$AAP?$AAY?$AA?$AA@ 00000001800328f8     LIBCMT:winapinls.obj
 0002:00005908       ??_C@_1M@EDGINPNP@?$AAa?$AAr?$AA?9?$AAQ?$AAA?$AA?$AA@ 0000000180032908     LIBCMT:winapinls.obj
 0002:00005918       ??_C@_1M@MKDBIIJI@?$AAe?$AAs?$AA?9?$AAB?$AAO?$AA?$AA@ 0000000180032918     LIBCMT:winapinls.obj
 0002:00005928       ??_C@_1M@CPKKEBLD@?$AAe?$AAs?$AA?9?$AAS?$AAV?$AA?$AA@ 0000000180032928     LIBCMT:winapinls.obj
 0002:00005938       ??_C@_1M@NDBGMMJL@?$AAe?$AAs?$AA?9?$AAH?$AAN?$AA?$AA@ 0000000180032938     LIBCMT:winapinls.obj
 0002:00005948       ??_C@_1M@JIJIBHDP@?$AAe?$AAs?$AA?9?$AAN?$AAI?$AA?$AA@ 0000000180032948     LIBCMT:winapinls.obj
 0002:00005958       ??_C@_1M@CGFMKEEK@?$AAe?$AAs?$AA?9?$AAP?$AAR?$AA?$AA@ 0000000180032958     LIBCMT:winapinls.obj
 0002:00005968       ??_C@_1O@ICJHKIIK@?$AAz?$AAh?$AA?9?$AAC?$AAH?$AAT?$AA?$AA@ 0000000180032968     LIBCMT:winapinls.obj
 0002:00005978       ??_C@_15CLNEJCE@?$AAs?$AAr?$AA?$AA@ 0000000180032978     LIBCMT:winapinls.obj
 0002:00005980       ??_C@_1M@KAHEKEIG@?$AAa?$AAf?$AA?9?$AAz?$AAa?$AA?$AA@ 0000000180032980     LIBCMT:winapinls.obj
 0002:00005990       ??_C@_1M@GIECOABL@?$AAa?$AAr?$AA?9?$AAa?$AAe?$AA?$AA@ 0000000180032990     LIBCMT:winapinls.obj
 0002:000059a0       ??_C@_1M@BMLMEKGI@?$AAa?$AAr?$AA?9?$AAb?$AAh?$AA?$AA@ 00000001800329a0     LIBCMT:winapinls.obj
 0002:000059b0       ??_C@_1M@DAPFDGGB@?$AAa?$AAr?$AA?9?$AAd?$AAz?$AA?$AA@ 00000001800329b0     LIBCMT:winapinls.obj
 0002:000059c0       ??_C@_1M@FJNKGKIG@?$AAa?$AAr?$AA?9?$AAe?$AAg?$AA?$AA@ 00000001800329c0     LIBCMT:winapinls.obj
 0002:000059d0       ??_C@_1M@FLGKKCLO@?$AAa?$AAr?$AA?9?$AAi?$AAq?$AA?$AA@ 00000001800329d0     LIBCMT:winapinls.obj
 0002:000059e0       ??_C@_1M@GNDIPALM@?$AAa?$AAr?$AA?9?$AAj?$AAo?$AA?$AA@ 00000001800329e0     LIBCMT:winapinls.obj
 0002:000059f0       ??_C@_1M@DDMJFMGJ@?$AAa?$AAr?$AA?9?$AAk?$AAw?$AA?$AA@ 00000001800329f0     LIBCMT:winapinls.obj
 0002:00005a00       ??_C@_1M@EJALMLHM@?$AAa?$AAr?$AA?9?$AAl?$AAb?$AA?$AA@ 0000000180032a00     LIBCMT:winapinls.obj
 0002:00005a10       ??_C@_1M@MOBDBLOC@?$AAa?$AAr?$AA?9?$AAl?$AAy?$AA?$AA@ 0000000180032a10     LIBCMT:winapinls.obj
 0002:00005a20       ??_C@_1M@JAOCLHDH@?$AAa?$AAr?$AA?9?$AAm?$AAa?$AA?$AA@ 0000000180032a20     LIBCMT:winapinls.obj
 0002:00005a30       ??_C@_1M@JHPMKJIE@?$AAa?$AAr?$AA?9?$AAo?$AAm?$AA?$AA@ 0000000180032a30     LIBCMT:winapinls.obj
 0002:00005a40       ??_C@_1M@OEPGHFNH@?$AAa?$AAr?$AA?9?$AAq?$AAa?$AA?$AA@ 0000000180032a40     LIBCMT:winapinls.obj
 0002:00005a50       ??_C@_1M@KJDONENM@?$AAa?$AAr?$AA?9?$AAs?$AAa?$AA?$AA@ 0000000180032a50     LIBCMT:winapinls.obj
 0002:00005a60       ??_C@_1M@DMJDKLKM@?$AAa?$AAr?$AA?9?$AAs?$AAy?$AA?$AA@ 0000000180032a60     LIBCMT:winapinls.obj
 0002:00005a70       ??_C@_1M@OMFIPEDC@?$AAa?$AAr?$AA?9?$AAt?$AAn?$AA?$AA@ 0000000180032a70     LIBCMT:winapinls.obj
 0002:00005a80       ??_C@_1M@IHMHGAON@?$AAa?$AAr?$AA?9?$AAy?$AAe?$AA?$AA@ 0000000180032a80     LIBCMT:winapinls.obj
 0002:00005a90       ??_C@_1BG@KDCPGJGB@?$AAa?$AAz?$AA?9?$AAa?$AAz?$AA?9?$AAc?$AAy?$AAr?$AAl?$AA?$AA@ 0000000180032a90     LIBCMT:winapinls.obj
 0002:00005aa8       ??_C@_1BG@IBCKDDOE@?$AAa?$AAz?$AA?9?$AAa?$AAz?$AA?9?$AAl?$AAa?$AAt?$AAn?$AA?$AA@ 0000000180032aa8     LIBCMT:winapinls.obj
 0002:00005ac0       ??_C@_1M@EGPFDCPD@?$AAb?$AAe?$AA?9?$AAb?$AAy?$AA?$AA@ 0000000180032ac0     LIBCMT:winapinls.obj
 0002:00005ad0       ??_C@_1M@PCMGMCGC@?$AAb?$AAg?$AA?9?$AAb?$AAg?$AA?$AA@ 0000000180032ad0     LIBCMT:winapinls.obj
 0002:00005ae0       ??_C@_1M@BJBMFGOB@?$AAb?$AAn?$AA?9?$AAi?$AAn?$AA?$AA@ 0000000180032ae0     LIBCMT:winapinls.obj
 0002:00005af0       ??_C@_1BG@EAKMMACD@?$AAb?$AAs?$AA?9?$AAb?$AAa?$AA?9?$AAl?$AAa?$AAt?$AAn?$AA?$AA@ 0000000180032af0     LIBCMT:winapinls.obj
 0002:00005b08       ??_C@_1M@KGADAODK@?$AAc?$AAa?$AA?9?$AAe?$AAs?$AA?$AA@ 0000000180032b08     LIBCMT:winapinls.obj
 0002:00005b18       ??_C@_1M@COAJPDHI@?$AAc?$AAs?$AA?9?$AAc?$AAz?$AA?$AA@ 0000000180032b18     LIBCMT:winapinls.obj
 0002:00005b28       ??_C@_1M@DHBHFONH@?$AAc?$AAy?$AA?9?$AAg?$AAb?$AA?$AA@ 0000000180032b28     LIBCMT:winapinls.obj
 0002:00005b38       ??_C@_1M@IMGKELGA@?$AAd?$AAa?$AA?9?$AAd?$AAk?$AA?$AA@ 0000000180032b38     LIBCMT:winapinls.obj
 0002:00005b48       ??_C@_1M@NNDGDNGA@?$AAd?$AAe?$AA?9?$AAa?$AAt?$AA?$AA@ 0000000180032b48     LIBCMT:winapinls.obj
 0002:00005b58       ??_C@_1M@IKDBHEEM@?$AAd?$AAe?$AA?9?$AAc?$AAh?$AA?$AA@ 0000000180032b58     LIBCMT:winapinls.obj
 0002:00005b68       ??_C@_1M@GFFOJMCJ@?$AAd?$AAe?$AA?9?$AAd?$AAe?$AA?$AA@ 0000000180032b68     LIBCMT:winapinls.obj
 0002:00005b78       ??_C@_1M@MDNLKBPM@?$AAd?$AAe?$AA?9?$AAl?$AAi?$AA?$AA@ 0000000180032b78     LIBCMT:winapinls.obj
 0002:00005b88       ??_C@_1M@NJBEEJNL@?$AAd?$AAe?$AA?9?$AAl?$AAu?$AA?$AA@ 0000000180032b88     LIBCMT:winapinls.obj
 0002:00005b98       ??_C@_1O@GNNELBAP@?$AAd?$AAi?$AAv?$AA?9?$AAm?$AAv?$AA?$AA@ 0000000180032b98     LIBCMT:winapinls.obj
 0002:00005ba8       ??_C@_1M@EJLEOGAE@?$AAe?$AAl?$AA?9?$AAg?$AAr?$AA?$AA@ 0000000180032ba8     LIBCMT:winapinls.obj
 0002:00005bb8       ??_C@_1M@GMPONJN@?$AAe?$AAn?$AA?9?$AAa?$AAu?$AA?$AA@ 0000000180032bb8     LIBCMT:winapinls.obj
 0002:00005bc8       ??_C@_1M@NIDIIPGF@?$AAe?$AAn?$AA?9?$AAb?$AAz?$AA?$AA@ 0000000180032bc8     LIBCMT:winapinls.obj
 0002:00005bd8       ??_C@_1M@JEHMIMFO@?$AAe?$AAn?$AA?9?$AAc?$AAa?$AA?$AA@ 0000000180032bd8     LIBCMT:winapinls.obj
 0002:00005be8       ??_C@_1M@IGMJCDLA@?$AAe?$AAn?$AA?9?$AAc?$AAb?$AA?$AA@ 0000000180032be8     LIBCMT:winapinls.obj
 0002:00005bf8       ??_C@_1M@BNFIGBKG@?$AAe?$AAn?$AA?9?$AAg?$AAb?$AA?$AA@ 0000000180032bf8     LIBCMT:winapinls.obj
 0002:00005c08       ??_C@_1M@LKIFDIGP@?$AAe?$AAn?$AA?9?$AAi?$AAe?$AA?$AA@ 0000000180032c08     LIBCMT:winapinls.obj
 0002:00005c18       ??_C@_1M@PJKFGCCO@?$AAe?$AAn?$AA?9?$AAj?$AAm?$AA?$AA@ 0000000180032c18     LIBCMT:winapinls.obj
 0002:00005c28       ??_C@_1M@KPPKEPBO@?$AAe?$AAn?$AA?9?$AAn?$AAz?$AA?$AA@ 0000000180032c28     LIBCMT:winapinls.obj
 0002:00005c38       ??_C@_1M@GMDGLDOB@?$AAe?$AAn?$AA?9?$AAp?$AAh?$AA?$AA@ 0000000180032c38     LIBCMT:winapinls.obj
 0002:00005c48       ??_C@_1M@ONGIBJNA@?$AAe?$AAn?$AA?9?$AAt?$AAt?$AA?$AA@ 0000000180032c48     LIBCMT:winapinls.obj
 0002:00005c58       ??_C@_1M@LLODPCMM@?$AAe?$AAn?$AA?9?$AAu?$AAs?$AA?$AA@ 0000000180032c58     LIBCMT:winapinls.obj
 0002:00005c68       ??_C@_1M@LAKFNPAN@?$AAe?$AAn?$AA?9?$AAz?$AAa?$AA?$AA@ 0000000180032c68     LIBCMT:winapinls.obj
 0002:00005c78       ??_C@_1M@MFNHNHEO@?$AAe?$AAn?$AA?9?$AAz?$AAw?$AA?$AA@ 0000000180032c78     LIBCMT:winapinls.obj
 0002:00005c88       ??_C@_1M@EJEINPHM@?$AAe?$AAs?$AA?9?$AAa?$AAr?$AA?$AA@ 0000000180032c88     LIBCMT:winapinls.obj
 0002:00005c98       ??_C@_1M@GNKPCCJA@?$AAe?$AAs?$AA?9?$AAb?$AAo?$AA?$AA@ 0000000180032c98     LIBCMT:winapinls.obj
 0002:00005ca8       ??_C@_1M@LEEGFONL@?$AAe?$AAs?$AA?9?$AAc?$AAl?$AA?$AA@ 0000000180032ca8     LIBCMT:winapinls.obj
 0002:00005cb8       ??_C@_1M@KGPDPBDF@?$AAe?$AAs?$AA?9?$AAc?$AAo?$AA?$AA@ 0000000180032cb8     LIBCMT:winapinls.obj
 0002:00005cc8       ??_C@_1M@EIAHOHH@?$AAe?$AAs?$AA?9?$AAc?$AAr?$AA?$AA@ 0000000180032cc8     LIBCMT:winapinls.obj
 0002:00005cd8       ??_C@_1M@LLPGMBIN@?$AAe?$AAs?$AA?9?$AAd?$AAo?$AA?$AA@ 0000000180032cd8     LIBCMT:winapinls.obj
 0002:00005ce8       ??_C@_1M@DKHMKNJA@?$AAe?$AAs?$AA?9?$AAe?$AAc?$AA?$AA@ 0000000180032ce8     LIBCMT:winapinls.obj
 0002:00005cf8       ??_C@_1M@GKGFPKAP@?$AAe?$AAs?$AA?9?$AAe?$AAs?$AA?$AA@ 0000000180032cf8     LIBCMT:winapinls.obj
 0002:00005d08       ??_C@_1M@LKHKGDLN@?$AAe?$AAs?$AA?9?$AAg?$AAt?$AA?$AA@ 0000000180032d08     LIBCMT:winapinls.obj
 0002:00005d18       ??_C@_1M@HEIIGGJD@?$AAe?$AAs?$AA?9?$AAh?$AAn?$AA?$AA@ 0000000180032d18     LIBCMT:winapinls.obj
 0002:00005d28       ??_C@_1M@FBDHPPGD@?$AAe?$AAs?$AA?9?$AAm?$AAx?$AA?$AA@ 0000000180032d28     LIBCMT:winapinls.obj
 0002:00005d38       ??_C@_1M@DPAGLNDH@?$AAe?$AAs?$AA?9?$AAn?$AAi?$AA?$AA@ 0000000180032d38     LIBCMT:winapinls.obj
 0002:00005d48       ??_C@_1M@MDGOPGDD@?$AAe?$AAs?$AA?9?$AAp?$AAa?$AA?$AA@ 0000000180032d48     LIBCMT:winapinls.obj
 0002:00005d58       ??_C@_1M@EMAMGBGE@?$AAe?$AAs?$AA?9?$AAp?$AAe?$AA?$AA@ 0000000180032d58     LIBCMT:winapinls.obj
 0002:00005d68       ??_C@_1M@IBMCAOEC@?$AAe?$AAs?$AA?9?$AAp?$AAr?$AA?$AA@ 0000000180032d68     LIBCMT:winapinls.obj
 0002:00005d78       ??_C@_1M@FGMDIJED@?$AAe?$AAs?$AA?9?$AAp?$AAy?$AA?$AA@ 0000000180032d78     LIBCMT:winapinls.obj
 0002:00005d88       ??_C@_1M@IIDEOLLL@?$AAe?$AAs?$AA?9?$AAs?$AAv?$AA?$AA@ 0000000180032d88     LIBCMT:winapinls.obj
 0002:00005d98       ??_C@_1M@GAOBIPA@?$AAe?$AAs?$AA?9?$AAu?$AAy?$AA?$AA@ 0000000180032d98     LIBCMT:winapinls.obj
 0002:00005da8       ??_C@_1M@JKFFICHJ@?$AAe?$AAs?$AA?9?$AAv?$AAe?$AA?$AA@ 0000000180032da8     LIBCMT:winapinls.obj
 0002:00005db8       ??_C@_1M@PNMLOJDF@?$AAe?$AAt?$AA?9?$AAe?$AAe?$AA?$AA@ 0000000180032db8     LIBCMT:winapinls.obj
 0002:00005dc8       ??_C@_1M@GHHLIKEI@?$AAe?$AAu?$AA?9?$AAe?$AAs?$AA?$AA@ 0000000180032dc8     LIBCMT:winapinls.obj
 0002:00005dd8       ??_C@_1M@PBNONODE@?$AAf?$AAa?$AA?9?$AAi?$AAr?$AA?$AA@ 0000000180032dd8     LIBCMT:winapinls.obj
 0002:00005de8       ??_C@_1M@JEEHPMIL@?$AAf?$AAi?$AA?9?$AAf?$AAi?$AA?$AA@ 0000000180032de8     LIBCMT:winapinls.obj
 0002:00005df8       ??_C@_1M@LMDCNDBA@?$AAf?$AAo?$AA?9?$AAf?$AAo?$AA?$AA@ 0000000180032df8     LIBCMT:winapinls.obj
 0002:00005e08       ??_C@_1M@JKEOHLDK@?$AAf?$AAr?$AA?9?$AAb?$AAe?$AA?$AA@ 0000000180032e08     LIBCMT:winapinls.obj
 0002:00005e18       ??_C@_1M@NOHADPMI@?$AAf?$AAr?$AA?9?$AAc?$AAa?$AA?$AA@ 0000000180032e18     LIBCMT:winapinls.obj
 0002:00005e28       ??_C@_1M@KDHIHAEC@?$AAf?$AAr?$AA?9?$AAc?$AAh?$AA?$AA@ 0000000180032e28     LIBCMT:winapinls.obj
 0002:00005e38       ??_C@_1M@MMBBFGAK@?$AAf?$AAr?$AA?9?$AAf?$AAr?$AA?$AA@ 0000000180032e38     LIBCMT:winapinls.obj
 0002:00005e48       ??_C@_1M@PAFNENNF@?$AAf?$AAr?$AA?9?$AAl?$AAu?$AA?$AA@ 0000000180032e48     LIBCMT:winapinls.obj
 0002:00005e58       ??_C@_1M@EOHDJGDD@?$AAf?$AAr?$AA?9?$AAm?$AAc?$AA?$AA@ 0000000180032e58     LIBCMT:winapinls.obj
 0002:00005e68       ??_C@_1M@FAPLLOPF@?$AAg?$AAl?$AA?9?$AAe?$AAs?$AA?$AA@ 0000000180032e68     LIBCMT:winapinls.obj
 0002:00005e78       ??_C@_1M@FOPBFLOO@?$AAg?$AAu?$AA?9?$AAi?$AAn?$AA?$AA@ 0000000180032e78     LIBCMT:winapinls.obj
 0002:00005e88       ??_C@_1M@KBMCINPM@?$AAh?$AAe?$AA?9?$AAi?$AAl?$AA?$AA@ 0000000180032e88     LIBCMT:winapinls.obj
 0002:00005e98       ??_C@_1M@BBPHKFPJ@?$AAh?$AAi?$AA?9?$AAi?$AAn?$AA?$AA@ 0000000180032e98     LIBCMT:winapinls.obj
 0002:00005ea8       ??_C@_1M@PMBNDPHD@?$AAh?$AAr?$AA?9?$AAb?$AAa?$AA?$AA@ 0000000180032ea8     LIBCMT:winapinls.obj
 0002:00005eb8       ??_C@_1M@BPCKOEGE@?$AAh?$AAr?$AA?9?$AAh?$AAr?$AA?$AA@ 0000000180032eb8     LIBCMT:winapinls.obj
 0002:00005ec8       ??_C@_1M@GACBMHKE@?$AAh?$AAu?$AA?9?$AAh?$AAu?$AA?$AA@ 0000000180032ec8     LIBCMT:winapinls.obj
 0002:00005ed8       ??_C@_1M@MILPAJJC@?$AAh?$AAy?$AA?9?$AAa?$AAm?$AA?$AA@ 0000000180032ed8     LIBCMT:winapinls.obj
 0002:00005ee8       ??_C@_1M@BABBICEC@?$AAi?$AAd?$AA?9?$AAi?$AAd?$AA?$AA@ 0000000180032ee8     LIBCMT:winapinls.obj
 0002:00005ef8       ??_C@_1M@BIKNHHPF@?$AAi?$AAs?$AA?9?$AAi?$AAs?$AA?$AA@ 0000000180032ef8     LIBCMT:winapinls.obj
 0002:00005f08       ??_C@_1M@NMPCJPHE@?$AAi?$AAt?$AA?9?$AAc?$AAh?$AA?$AA@ 0000000180032f08     LIBCMT:winapinls.obj
 0002:00005f18       ??_C@_1M@GHKGFEDF@?$AAi?$AAt?$AA?9?$AAi?$AAt?$AA?$AA@ 0000000180032f18     LIBCMT:winapinls.obj
 0002:00005f28       ??_C@_1M@NIEJCJJA@?$AAj?$AAa?$AA?9?$AAj?$AAp?$AA?$AA@ 0000000180032f28     LIBCMT:winapinls.obj
 0002:00005f38       ??_C@_1M@JILFNBIM@?$AAk?$AAa?$AA?9?$AAg?$AAe?$AA?$AA@ 0000000180032f38     LIBCMT:winapinls.obj
 0002:00005f48       ??_C@_1M@PACPMGPH@?$AAk?$AAk?$AA?9?$AAk?$AAz?$AA?$AA@ 0000000180032f48     LIBCMT:winapinls.obj
 0002:00005f58       ??_C@_1M@IELFGMHA@?$AAk?$AAn?$AA?9?$AAi?$AAn?$AA?$AA@ 0000000180032f58     LIBCMT:winapinls.obj
 0002:00005f68       ??_C@_1O@IBBJHCH@?$AAk?$AAo?$AAk?$AA?9?$AAi?$AAn?$AA?$AA@ 0000000180032f68     LIBCMT:winapinls.obj
 0002:00005f78       ??_C@_1M@DMHAEOGC@?$AAk?$AAo?$AA?9?$AAk?$AAr?$AA?$AA@ 0000000180032f78     LIBCMT:winapinls.obj
 0002:00005f88       ??_C@_1M@HBAHBIGA@?$AAk?$AAy?$AA?9?$AAk?$AAg?$AA?$AA@ 0000000180032f88     LIBCMT:winapinls.obj
 0002:00005f98       ??_C@_1M@KPMILCJG@?$AAl?$AAt?$AA?9?$AAl?$AAt?$AA?$AA@ 0000000180032f98     LIBCMT:winapinls.obj
 0002:00005fa8       ??_C@_1M@BDEKKCA@?$AAl?$AAv?$AA?9?$AAl?$AAv?$AA?$AA@ 0000000180032fa8     LIBCMT:winapinls.obj
 0002:00005fb8       ??_C@_1M@ELCKCCJJ@?$AAm?$AAi?$AA?9?$AAn?$AAz?$AA?$AA@ 0000000180032fb8     LIBCMT:winapinls.obj
 0002:00005fc8       ??_C@_1M@CBOOLAPA@?$AAm?$AAk?$AA?9?$AAm?$AAk?$AA?$AA@ 0000000180032fc8     LIBCMT:winapinls.obj
 0002:00005fd8       ??_C@_1M@GPHNBJKN@?$AAm?$AAl?$AA?9?$AAi?$AAn?$AA?$AA@ 0000000180032fd8     LIBCMT:winapinls.obj
 0002:00005fe8       ??_C@_1M@PABJILIG@?$AAm?$AAn?$AA?9?$AAm?$AAn?$AA?$AA@ 0000000180032fe8     LIBCMT:winapinls.obj
 0002:00005ff8       ??_C@_1M@FGBKKIPG@?$AAm?$AAr?$AA?9?$AAi?$AAn?$AA?$AA@ 0000000180032ff8     LIBCMT:winapinls.obj
 0002:00006008       ??_C@_1M@NDBPDDAL@?$AAm?$AAs?$AA?9?$AAb?$AAn?$AA?$AA@ 0000000180033008     LIBCMT:winapinls.obj
 0002:00006018       ??_C@_1M@OPIHOOPI@?$AAm?$AAs?$AA?9?$AAm?$AAy?$AA?$AA@ 0000000180033018     LIBCMT:winapinls.obj
 0002:00006028       ??_C@_1M@PPDBCNFM@?$AAm?$AAt?$AA?9?$AAm?$AAt?$AA?$AA@ 0000000180033028     LIBCMT:winapinls.obj
 0002:00006038       ??_C@_1M@KDJDKMDD@?$AAn?$AAb?$AA?9?$AAn?$AAo?$AA?$AA@ 0000000180033038     LIBCMT:winapinls.obj
 0002:00006048       ??_C@_1M@KFCFLMJP@?$AAn?$AAl?$AA?9?$AAb?$AAe?$AA?$AA@ 0000000180033048     LIBCMT:winapinls.obj
 0002:00006058       ??_C@_1M@KPOPDDGO@?$AAn?$AAl?$AA?9?$AAn?$AAl?$AA?$AA@ 0000000180033058     LIBCMT:winapinls.obj
 0002:00006068       ??_C@_1M@LJKPEMLN@?$AAn?$AAn?$AA?9?$AAn?$AAo?$AA?$AA@ 0000000180033068     LIBCMT:winapinls.obj
 0002:00006078       ??_C@_1M@BDGHHBFL@?$AAn?$AAs?$AA?9?$AAz?$AAa?$AA?$AA@ 0000000180033078     LIBCMT:winapinls.obj
 0002:00006088       ??_C@_1M@IDEHOAP@?$AAp?$AAa?$AA?9?$AAi?$AAn?$AA?$AA@ 0000000180033088     LIBCMT:winapinls.obj
 0002:00006098       ??_C@_1M@HDBKGOGH@?$AAp?$AAl?$AA?9?$AAp?$AAl?$AA?$AA@ 0000000180033098     LIBCMT:winapinls.obj
 0002:000060a8       ??_C@_1M@LJLLCMEH@?$AAp?$AAt?$AA?9?$AAb?$AAr?$AA?$AA@ 00000001800330a8     LIBCMT:winapinls.obj
 0002:000060b8       ??_C@_1M@NCMONAAL@?$AAp?$AAt?$AA?9?$AAp?$AAt?$AA?$AA@ 00000001800330b8     LIBCMT:winapinls.obj
 0002:000060c8       ??_C@_1O@EAKMAJDN@?$AAq?$AAu?$AAz?$AA?9?$AAb?$AAo?$AA?$AA@ 00000001800330c8     LIBCMT:winapinls.obj
 0002:000060d8       ??_C@_1O@BHHPIGDN@?$AAq?$AAu?$AAz?$AA?9?$AAe?$AAc?$AA?$AA@ 00000001800330d8     LIBCMT:winapinls.obj
 0002:000060e8       ??_C@_1O@GBAPEKMJ@?$AAq?$AAu?$AAz?$AA?9?$AAp?$AAe?$AA?$AA@ 00000001800330e8     LIBCMT:winapinls.obj
 0002:000060f8       ??_C@_1M@CLGLEFBO@?$AAr?$AAo?$AA?9?$AAr?$AAo?$AA?$AA@ 00000001800330f8     LIBCMT:winapinls.obj
 0002:00006108       ??_C@_1M@CEEDODME@?$AAr?$AAu?$AA?9?$AAr?$AAu?$AA?$AA@ 0000000180033108     LIBCMT:winapinls.obj
 0002:00006118       ??_C@_1M@HPKKKMPP@?$AAs?$AAa?$AA?9?$AAi?$AAn?$AA?$AA@ 0000000180033118     LIBCMT:winapinls.obj
 0002:00006128       ??_C@_1M@BKMAIGOJ@?$AAs?$AAe?$AA?9?$AAf?$AAi?$AA?$AA@ 0000000180033128     LIBCMT:winapinls.obj
 0002:00006138       ??_C@_1M@NDPIFLFI@?$AAs?$AAe?$AA?9?$AAn?$AAo?$AA?$AA@ 0000000180033138     LIBCMT:winapinls.obj
 0002:00006148       ??_C@_1M@DANKKHJ@?$AAs?$AAe?$AA?9?$AAs?$AAe?$AA?$AA@ 0000000180033148     LIBCMT:winapinls.obj
 0002:00006158       ??_C@_1M@PNBLONPJ@?$AAs?$AAk?$AA?9?$AAs?$AAk?$AA?$AA@ 0000000180033158     LIBCMT:winapinls.obj
 0002:00006168       ??_C@_1M@LFMODOAL@?$AAs?$AAl?$AA?9?$AAs?$AAi?$AA?$AA@ 0000000180033168     LIBCMT:winapinls.obj
 0002:00006178       ??_C@_1O@DFKOMPG@?$AAs?$AAm?$AAa?$AA?9?$AAn?$AAo?$AA?$AA@ 0000000180033178     LIBCMT:winapinls.obj
 0002:00006188       ??_C@_1O@NDKPBNNH@?$AAs?$AAm?$AAa?$AA?9?$AAs?$AAe?$AA?$AA@ 0000000180033188     LIBCMT:winapinls.obj
 0002:00006198       ??_C@_1O@PLLKBHAB@?$AAs?$AAm?$AAj?$AA?9?$AAn?$AAo?$AA?$AA@ 0000000180033198     LIBCMT:winapinls.obj
 0002:000061a8       ??_C@_1O@CLEPOGCA@?$AAs?$AAm?$AAj?$AA?9?$AAs?$AAe?$AA?$AA@ 00000001800331a8     LIBCMT:winapinls.obj
 0002:000061b8       ??_C@_1O@DLGJGKMK@?$AAs?$AAm?$AAn?$AA?9?$AAf?$AAi?$AA?$AA@ 00000001800331b8     LIBCMT:winapinls.obj
 0002:000061c8       ??_C@_1O@OJDJGAJC@?$AAs?$AAm?$AAs?$AA?9?$AAf?$AAi?$AA?$AA@ 00000001800331c8     LIBCMT:winapinls.obj
 0002:000061d8       ??_C@_1M@BOFOGHPB@?$AAs?$AAq?$AA?9?$AAa?$AAl?$AA?$AA@ 00000001800331d8     LIBCMT:winapinls.obj
 0002:000061e8       ??_C@_1BG@LJBBIPGB@?$AAs?$AAr?$AA?9?$AAb?$AAa?$AA?9?$AAc?$AAy?$AAr?$AAl?$AA?$AA@ 00000001800331e8     LIBCMT:winapinls.obj
 0002:00006200       ??_C@_1BG@JLBENFOE@?$AAs?$AAr?$AA?9?$AAb?$AAa?$AA?9?$AAl?$AAa?$AAt?$AAn?$AA?$AA@ 0000000180033200     LIBCMT:winapinls.obj
 0002:00006218       ??_C@_1BG@KODPNHE@?$AAs?$AAr?$AA?9?$AAs?$AAp?$AA?9?$AAc?$AAy?$AAr?$AAl?$AA?$AA@ 0000000180033218     LIBCMT:winapinls.obj
 0002:00006230       ??_C@_1BG@CIOGKHPB@?$AAs?$AAr?$AA?9?$AAs?$AAp?$AA?9?$AAl?$AAa?$AAt?$AAn?$AA?$AA@ 0000000180033230     LIBCMT:winapinls.obj
 0002:00006248       ??_C@_1M@NGFJLMAC@?$AAs?$AAv?$AA?9?$AAf?$AAi?$AA?$AA@ 0000000180033248     LIBCMT:winapinls.obj
 0002:00006258       ??_C@_1M@MPJEJAJC@?$AAs?$AAv?$AA?9?$AAs?$AAe?$AA?$AA@ 0000000180033258     LIBCMT:winapinls.obj
 0002:00006268       ??_C@_1M@MPNDHLFK@?$AAs?$AAw?$AA?9?$AAk?$AAe?$AA?$AA@ 0000000180033268     LIBCMT:winapinls.obj
 0002:00006278       ??_C@_1O@KOHBJJI@?$AAs?$AAy?$AAr?$AA?9?$AAs?$AAy?$AA?$AA@ 0000000180033278     LIBCMT:winapinls.obj
 0002:00006288       ??_C@_1M@LDCEFHA@?$AAt?$AAa?$AA?9?$AAi?$AAn?$AA?$AA@ 0000000180033288     LIBCMT:winapinls.obj
 0002:00006298       ??_C@_1M@CNJOFAK@?$AAt?$AAe?$AA?9?$AAi?$AAn?$AA?$AA@ 0000000180033298     LIBCMT:winapinls.obj
 0002:000062a8       ??_C@_1M@GNAECACD@?$AAt?$AAh?$AA?9?$AAt?$AAh?$AA?$AA@ 00000001800332a8     LIBCMT:winapinls.obj
 0002:000062b8       ??_C@_1M@CHBIHOJO@?$AAt?$AAn?$AA?9?$AAz?$AAa?$AA?$AA@ 00000001800332b8     LIBCMT:winapinls.obj
 0002:000062c8       ??_C@_1M@GCCMIGPJ@?$AAt?$AAr?$AA?9?$AAt?$AAr?$AA?$AA@ 00000001800332c8     LIBCMT:winapinls.obj
 0002:000062d8       ??_C@_1M@CELMCNBK@?$AAt?$AAt?$AA?9?$AAr?$AAu?$AA?$AA@ 00000001800332d8     LIBCMT:winapinls.obj
 0002:000062e8       ??_C@_1M@KLMCELGA@?$AAu?$AAk?$AA?9?$AAu?$AAa?$AA?$AA@ 00000001800332e8     LIBCMT:winapinls.obj
 0002:000062f8       ??_C@_1M@EPAJJAJF@?$AAu?$AAr?$AA?9?$AAp?$AAk?$AA?$AA@ 00000001800332f8     LIBCMT:winapinls.obj
 0002:00006308       ??_C@_1BG@GEGPMCDJ@?$AAu?$AAz?$AA?9?$AAu?$AAz?$AA?9?$AAc?$AAy?$AAr?$AAl?$AA?$AA@ 0000000180033308     LIBCMT:winapinls.obj
 0002:00006320       ??_C@_1BG@EGGKJILM@?$AAu?$AAz?$AA?9?$AAu?$AAz?$AA?9?$AAl?$AAa?$AAt?$AAn?$AA?$AA@ 0000000180033320     LIBCMT:winapinls.obj
 0002:00006338       ??_C@_1M@GFOCLFF@?$AAv?$AAi?$AA?9?$AAv?$AAn?$AA?$AA@ 0000000180033338     LIBCMT:winapinls.obj
 0002:00006348       ??_C@_1M@CPAMEDFI@?$AAx?$AAh?$AA?9?$AAz?$AAa?$AA?$AA@ 0000000180033348     LIBCMT:winapinls.obj
 0002:00006358       ??_C@_1O@EBKIFIGN@?$AAz?$AAh?$AA?9?$AAc?$AAh?$AAs?$AA?$AA@ 0000000180033358     LIBCMT:winapinls.obj
 0002:00006368       ??_C@_1O@NMHPGANE@?$AAz?$AAh?$AA?9?$AAc?$AAh?$AAt?$AA?$AA@ 0000000180033368     LIBCMT:winapinls.obj
 0002:00006378       ??_C@_1M@LPINJOMC@?$AAz?$AAh?$AA?9?$AAc?$AAn?$AA?$AA@ 0000000180033378     LIBCMT:winapinls.obj
 0002:00006388       ??_C@_1M@OCJEJODD@?$AAz?$AAh?$AA?9?$AAh?$AAk?$AA?$AA@ 0000000180033388     LIBCMT:winapinls.obj
 0002:00006398       ??_C@_1M@DNDLJINH@?$AAz?$AAh?$AA?9?$AAm?$AAo?$AA?$AA@ 0000000180033398     LIBCMT:winapinls.obj
 0002:000063a8       ??_C@_1M@MBFDNDND@?$AAz?$AAh?$AA?9?$AAs?$AAg?$AA?$AA@ 00000001800333a8     LIBCMT:winapinls.obj
 0002:000063b8       ??_C@_1M@IMEPLEPE@?$AAz?$AAh?$AA?9?$AAt?$AAw?$AA?$AA@ 00000001800333b8     LIBCMT:winapinls.obj
 0002:000063c8       ??_C@_1M@BBGHNHJP@?$AAz?$AAu?$AA?9?$AAz?$AAa?$AA?$AA@ 00000001800333c8     LIBCMT:winapinls.obj
 0002:000063f0       ??_C@_03KHJOGHMM@exp?$AA@  00000001800333f0     LIBCMT:fpexcept.obj
 0002:000063f4       ??_C@_03JGHBODFD@pow?$AA@  00000001800333f4     LIBCMT:fpexcept.obj
 0002:000063f8       ??_C@_03MGHMBJCF@log?$AA@  00000001800333f8     LIBCMT:fpexcept.obj
 0002:000063fc       ??_C@_05HGHHAHAP@log10?$AA@ 00000001800333fc     LIBCMT:fpexcept.obj
 0002:00006404       ??_C@_04COOMCNPB@sinh?$AA@ 0000000180033404     LIBCMT:fpexcept.obj
 0002:0000640c       ??_C@_04HPJJNFIM@cosh?$AA@ 000000018003340c     LIBCMT:fpexcept.obj
 0002:00006414       ??_C@_04FJHINJAO@tanh?$AA@ 0000000180033414     LIBCMT:fpexcept.obj
 0002:0000641c       ??_C@_04FIHNOPOL@asin?$AA@ 000000018003341c     LIBCMT:fpexcept.obj
 0002:00006424       ??_C@_04PDIFKINK@acos?$AA@ 0000000180033424     LIBCMT:fpexcept.obj
 0002:0000642c       ??_C@_04MLLJIGOK@atan?$AA@ 000000018003342c     LIBCMT:fpexcept.obj
 0002:00006434       ??_C@_05KNGEOGJB@atan2?$AA@ 0000000180033434     LIBCMT:fpexcept.obj
 0002:0000643c       ??_C@_04EIAKFFMI@sqrt?$AA@ 000000018003343c     LIBCMT:fpexcept.obj
 0002:00006444       ??_C@_03BLEJJJBH@sin?$AA@  0000000180033444     LIBCMT:fpexcept.obj
 0002:00006448       ??_C@_03LALBNOCG@cos?$AA@  0000000180033448     LIBCMT:fpexcept.obj
 0002:0000644c       ??_C@_03IIINPABG@tan?$AA@  000000018003344c     LIBCMT:fpexcept.obj
 0002:00006450       ??_C@_04GFPJNGEK@ceil?$AA@ 0000000180033450     LIBCMT:fpexcept.obj
 0002:00006458       ??_C@_05PBJFFIGL@floor?$AA@ 0000000180033458     LIBCMT:fpexcept.obj
 0002:00006460       ??_C@_04ODHECPBC@fabs?$AA@ 0000000180033460     LIBCMT:fpexcept.obj
 0002:00006468       ??_C@_04EHEDPDJG@modf?$AA@ 0000000180033468     LIBCMT:fpexcept.obj
 0002:00006470       ??_C@_05CEJMAHNP@ldexp?$AA@ 0000000180033470     LIBCMT:fpexcept.obj
 0002:00006478       ??_C@_05KBKMEMPO@_cabs?$AA@ 0000000180033478     LIBCMT:fpexcept.obj
 0002:00006480       ??_C@_04KEPJIHGP@fmod?$AA@ 0000000180033480     LIBCMT:fpexcept.obj
 0002:00006488       ??_C@_05GKKHEGJL@frexp?$AA@ 0000000180033488     LIBCMT:fpexcept.obj
 0002:00006490       ??_C@_03MJLDFKDL@_y0?$AA@  0000000180033490     LIBCMT:fpexcept.obj
 0002:00006494       ??_C@_03NAKIGLHK@_y1?$AA@  0000000180033494     LIBCMT:fpexcept.obj
 0002:00006498       ??_C@_03ONILCKOB@_yn?$AA@  0000000180033498     LIBCMT:fpexcept.obj
 0002:0000649c       ??_C@_05JGDBENOH@_logb?$AA@ 000000018003349c     LIBCMT:fpexcept.obj
 0002:000064a8       ??_C@_0L@KDOEJCKC@_nextafter?$AA@ 00000001800334a8     LIBCMT:fpexcept.obj
 0002:000067d8       ??_C@_08EHJDFFNH@__based?$CI?$AA@ 00000001800337d8     LIBCMT:undname.obj
 0002:000067e8       ??_C@_07KOLFKCDI@__cdecl?$AA@ 00000001800337e8     LIBCMT:undname.obj
 0002:000067f0       ??_C@_08GHMPAG@__pascal?$AA@ 00000001800337f0     LIBCMT:undname.obj
 0002:00006800       ??_C@_09IFJBGAPI@__stdcall?$AA@ 0000000180033800     LIBCMT:undname.obj
 0002:00006810       ??_C@_0L@NPHFGOKO@__thiscall?$AA@ 0000000180033810     LIBCMT:undname.obj
 0002:00006820       ??_C@_0L@JMKHOMEK@__fastcall?$AA@ 0000000180033820     LIBCMT:undname.obj
 0002:00006830       ??_C@_0N@BCKKPABJ@__vectorcall?$AA@ 0000000180033830     LIBCMT:undname.obj
 0002:00006840       ??_C@_09HIJEGCPM@__clrcall?$AA@ 0000000180033840     LIBCMT:undname.obj
 0002:0000684c       ??_C@_06GHPCKEAG@__eabi?$AA@ 000000018003384c     LIBCMT:undname.obj
 0002:00006858       ??_C@_07JOMMBBKO@__ptr64?$AA@ 0000000180033858     LIBCMT:undname.obj
 0002:00006860       ??_C@_0L@PILCLIHE@__restrict?$AA@ 0000000180033860     LIBCMT:undname.obj
 0002:00006870       ??_C@_0M@GFIIJFMG@__unaligned?$AA@ 0000000180033870     LIBCMT:undname.obj
 0002:00006880       ??_C@_09DHDLOLLB@restrict?$CI?$AA@ 0000000180033880     LIBCMT:undname.obj
 0002:0000688c       ??_C@_04NIHEBCM@?5new?$AA@ 000000018003388c     LIBCMT:undname.obj
 0002:00006898       ??_C@_07FPCDHGMM@?5delete?$AA@ 0000000180033898     LIBCMT:undname.obj
 0002:000068a0       ??_C@_01NEMOKFLO@?$DN?$AA@ 00000001800338a0     LIBCMT:undname.obj
 0002:000068a4       ??_C@_02GPIOPFAK@?$DO?$DO?$AA@ 00000001800338a4     LIBCMT:undname.obj
 0002:000068a8       ??_C@_02FODMEDOG@?$DM?$DM?$AA@ 00000001800338a8     LIBCMT:undname.obj
 0002:000068ac       ??_C@_01DCLJPIOD@?$CB?$AA@ 00000001800338ac     LIBCMT:undname.obj
 0002:000068b0       ??_C@_02EGOFBIJA@?$DN?$DN?$AA@ 00000001800338b0     LIBCMT:undname.obj
 0002:000068b4       ??_C@_02FDNJECIE@?$CB?$DN?$AA@ 00000001800338b4     LIBCMT:undname.obj
 0002:000068b8       ??_C@_02GPECMEKF@?$FL?$FN?$AA@ 00000001800338b8     LIBCMT:undname.obj
 0002:000068c0       ??_C@_08LHJFAFGD@operator?$AA@ 00000001800338c0     LIBCMT:undname.obj
 0002:000068cc       ??_C@_02HBOOOICD@?9?$DO?$AA@ 00000001800338cc     LIBCMT:undname.obj
 0002:000068d0       ??_C@_01NBENCBCI@?$CK?$AA@ 00000001800338d0     LIBCMT:undname.obj
 0002:000068d4       ??_C@_02ECNGHCIF@?$CL?$CL?$AA@ 00000001800338d4     LIBCMT:undname.obj
 0002:000068d8       ??_C@_02BAABKJLB@?9?9?$AA@ 00000001800338d8     LIBCMT:undname.obj
 0002:000068dc       ??_C@_01JOAMLHOP@?9?$AA@   00000001800338dc     LIBCMT:undname.obj
 0002:000068e0       ??_C@_01MIFGBAGJ@?$CL?$AA@ 00000001800338e0     LIBCMT:undname.obj
 0002:000068e4       ??_C@_01HNPIGOCE@?$CG?$AA@ 00000001800338e4     LIBCMT:undname.obj
 0002:000068e8       ??_C@_03MNHNFDLC@?9?$DO?$CK?$AA@ 00000001800338e8     LIBCMT:undname.obj
 0002:000068ec       ??_C@_01KMDKNFGN@?1?$AA@   00000001800338ec     LIBCMT:undname.obj
 0002:000068f0       ??_C@_01FGNFDNOH@?$CF?$AA@ 00000001800338f0     LIBCMT:undname.obj
 0002:000068f4       ??_C@_01MNNFJEPP@?$DM?$AA@ 00000001800338f4     LIBCMT:undname.obj
 0002:000068f8       ??_C@_02EHCHHCKH@?$DM?$DN?$AA@ 00000001800338f8     LIBCMT:undname.obj
 0002:000068fc       ??_C@_01PPODPGHN@?$DO?$AA@ 00000001800338fc     LIBCMT:undname.obj
 0002:00006900       ??_C@_02EEKDKGMJ@?$DO?$DN?$AA@ 0000000180033900     LIBCMT:undname.obj
 0002:00006904       ??_C@_01IHBHIGKO@?0?$AA@   0000000180033904     LIBCMT:undname.obj
 0002:00006908       ??_C@_02HCKGKOFO@?$CI?$CJ?$AA@ 0000000180033908     LIBCMT:undname.obj
 0002:0000690c       ??_C@_01PJKLJHI@?$HO?$AA@  000000018003390c     LIBCMT:undname.obj
 0002:00006910       ??_C@_01JKBOJNNK@?$FO?$AA@ 0000000180033910     LIBCMT:undname.obj
 0002:00006914       ??_C@_01DNKMNLPK@?$HM?$AA@ 0000000180033914     LIBCMT:undname.obj
 0002:00006918       ??_C@_02PPKAJPJL@?$CG?$CG?$AA@ 0000000180033918     LIBCMT:undname.obj
 0002:0000691c       ??_C@_02NONPIBCD@?$HM?$HM?$AA@ 000000018003391c     LIBCMT:undname.obj
 0002:00006920       ??_C@_02FPIMKNGF@?$CK?$DN?$AA@ 0000000180033920     LIBCMT:undname.obj
 0002:00006924       ??_C@_02FOEOMHFC@?$CL?$DN?$AA@ 0000000180033924     LIBCMT:undname.obj
 0002:00006928       ??_C@_02FKMDLLOA@?9?$DN?$AA@ 0000000180033928     LIBCMT:undname.obj
 0002:0000692c       ??_C@_02FJEHGPIO@?1?$DN?$AA@ 000000018003392c     LIBCMT:undname.obj
 0002:00006930       ??_C@_02FENAOKFI@?$CF?$DN?$AA@ 0000000180033930     LIBCMT:undname.obj
 0002:00006934       ??_C@_03IKFCCPFF@?$DO?$DO?$DN?$AA@ 0000000180033934     LIBCMT:undname.obj
 0002:00006938       ??_C@_03CDNPDDLA@?$DM?$DM?$DN?$AA@ 0000000180033938     LIBCMT:undname.obj
 0002:0000693c       ??_C@_02FGJGFEAB@?$CG?$DN?$AA@ 000000018003393c     LIBCMT:undname.obj
 0002:00006940       ??_C@_02DHLNPPGH@?$HM?$DN?$AA@ 0000000180033940     LIBCMT:undname.obj
 0002:00006944       ??_C@_02MHEGNOJ@?$FO?$DN?$AA@ 0000000180033944     LIBCMT:undname.obj
 0002:00006948       ??_C@_09IFPLHPGF@?$GAvftable?8?$AA@ 0000000180033948     LIBCMT:undname.obj
 0002:00006958       ??_C@_09BLBHBJP@?$GAvbtable?8?$AA@ 0000000180033958     LIBCMT:undname.obj
 0002:00006968       ??_C@_07FEEIOKP@?$GAvcall?8?$AA@ 0000000180033968     LIBCMT:undname.obj
 0002:00006970       ??_C@_08LLFFHHDJ@?$GAtypeof?8?$AA@ 0000000180033970     LIBCMT:undname.obj
 0002:00006980       ??_C@_0BF@KDPPACIK@?$GAlocal?5static?5guard?8?$AA@ 0000000180033980     LIBCMT:undname.obj
 0002:00006998       ??_C@_08OBABFOLI@?$GAstring?8?$AA@ 0000000180033998     LIBCMT:undname.obj
 0002:000069a8       ??_C@_0BD@JDLKDPAB@?$GAvbase?5destructor?8?$AA@ 00000001800339a8     LIBCMT:undname.obj
 0002:000069c0       ??_C@_0BN@DEGPLNFK@?$GAvector?5deleting?5destructor?8?$AA@ 00000001800339c0     LIBCMT:undname.obj
 0002:000069e0       ??_C@_0BO@OBMKPJIG@?$GAdefault?5constructor?5closure?8?$AA@ 00000001800339e0     LIBCMT:undname.obj
 0002:00006a00       ??_C@_0BN@IMDCHIKM@?$GAscalar?5deleting?5destructor?8?$AA@ 0000000180033a00     LIBCMT:undname.obj
 0002:00006a20       ??_C@_0BO@PFGOCPJJ@?$GAvector?5constructor?5iterator?8?$AA@ 0000000180033a20     LIBCMT:undname.obj
 0002:00006a40       ??_C@_0BN@LFPFMEDL@?$GAvector?5destructor?5iterator?8?$AA@ 0000000180033a40     LIBCMT:undname.obj
 0002:00006a60       ??_C@_0CE@IKBNEHA@?$GAvector?5vbase?5constructor?5iterat@ 0000000180033a60     LIBCMT:undname.obj
 0002:00006a88       ??_C@_0BL@NILFHHPC@?$GAvirtual?5displacement?5map?8?$AA@ 0000000180033a88     LIBCMT:undname.obj
 0002:00006aa8       ??_C@_0CB@JONCMFFK@?$GAeh?5vector?5constructor?5iterator?8@ 0000000180033aa8     LIBCMT:undname.obj
 0002:00006ad0       ??_C@_0CA@GCEOPDGL@?$GAeh?5vector?5destructor?5iterator?8?$AA@ 0000000180033ad0     LIBCMT:undname.obj
 0002:00006af0       ??_C@_0CH@OOJPLCPH@?$GAeh?5vector?5vbase?5constructor?5ite@ 0000000180033af0     LIBCMT:undname.obj
 0002:00006b18       ??_C@_0BL@LLKPOHJI@?$GAcopy?5constructor?5closure?8?$AA@ 0000000180033b18     LIBCMT:undname.obj
 0002:00006b38       ??_C@_0BA@KBCDOMBN@?$GAudt?5returning?8?$AA@ 0000000180033b38     LIBCMT:undname.obj
 0002:00006b48       ??_C@_03KLGMFNMG@?$GAEH?$AA@ 0000000180033b48     LIBCMT:undname.obj
 0002:00006b4c       ??_C@_05KHLCHHI@?$GARTTI?$AA@ 0000000180033b4c     LIBCMT:undname.obj
 0002:00006b58       ??_C@_0BA@KKLDJDLB@?$GAlocal?5vftable?8?$AA@ 0000000180033b58     LIBCMT:undname.obj
 0002:00006b68       ??_C@_0CE@IIHCMGGL@?$GAlocal?5vftable?5constructor?5closu@ 0000000180033b68     LIBCMT:undname.obj
 0002:00006b8c       ??_C@_06FHBGPFGH@?5new?$FL?$FN?$AA@ 0000000180033b8c     LIBCMT:undname.obj
 0002:00006b98       ??_C@_09LBNFPBCA@?5delete?$FL?$FN?$AA@ 0000000180033b98     LIBCMT:undname.obj
 0002:00006ba8       ??_C@_0P@HJKNJFNN@?$GAomni?5callsig?8?$AA@ 0000000180033ba8     LIBCMT:undname.obj
 0002:00006bb8       ??_C@_0BL@CNOONJFP@?$GAplacement?5delete?5closure?8?$AA@ 0000000180033bb8     LIBCMT:undname.obj
 0002:00006bd8       ??_C@_0BN@CKNJLHMB@?$GAplacement?5delete?$FL?$FN?5closure?8?$AA@ 0000000180033bd8     LIBCMT:undname.obj
 0002:00006bf8       ??_C@_0CG@CFDHKGGD@?$GAmanaged?5vector?5constructor?5iter@ 0000000180033bf8     LIBCMT:undname.obj
 0002:00006c20       ??_C@_0CF@IMGKMJNO@?$GAmanaged?5vector?5destructor?5itera@ 0000000180033c20     LIBCMT:undname.obj
 0002:00006c48       ??_C@_0CG@HLDDJMAG@?$GAeh?5vector?5copy?5constructor?5iter@ 0000000180033c48     LIBCMT:undname.obj
 0002:00006c70       ??_C@_0CM@FCBBDIGB@?$GAeh?5vector?5vbase?5copy?5constructo@ 0000000180033c70     LIBCMT:undname.obj
 0002:00006ca0       ??_C@_0BL@CLIPGLGB@?$GAdynamic?5initializer?5for?5?8?$AA@ 0000000180033ca0     LIBCMT:undname.obj
 0002:00006cc0       ??_C@_0CB@PDBIFEP@?$GAdynamic?5atexit?5destructor?5for?5?8@ 0000000180033cc0     LIBCMT:undname.obj
 0002:00006ce8       ??_C@_0CD@CGAJBKEJ@?$GAvector?5copy?5constructor?5iterato@ 0000000180033ce8     LIBCMT:undname.obj
 0002:00006d10       ??_C@_0CJ@GJELGAMM@?$GAvector?5vbase?5copy?5constructor?5i@ 0000000180033d10     LIBCMT:undname.obj
 0002:00006d40       ??_C@_0CL@FGIJHLCE@?$GAmanaged?5vector?5copy?5constructor@ 0000000180033d40     LIBCMT:undname.obj
 0002:00006d70       ??_C@_0BM@PMGGMLDN@?$GAlocal?5static?5thread?5guard?8?$AA@ 0000000180033d70     LIBCMT:undname.obj
 0002:00006d90       ??_C@_0BC@DAFEJGAK@?5Type?5Descriptor?8?$AA@ 0000000180033d90     LIBCMT:undname.obj
 0002:00006da8       ??_C@_0BM@LDKODKLH@?5Base?5Class?5Descriptor?5at?5?$CI?$AA@ 0000000180033da8     LIBCMT:undname.obj
 0002:00006dc8       ??_C@_0BD@LGICGFMM@?5Base?5Class?5Array?8?$AA@ 0000000180033dc8     LIBCMT:undname.obj
 0002:00006de0       ??_C@_0BN@MECKDCOJ@?5Class?5Hierarchy?5Descriptor?8?$AA@ 0000000180033de0     LIBCMT:undname.obj
 0002:00006e00       ??_C@_0BK@CFCOFLF@?5Complete?5Object?5Locator?8?$AA@ 0000000180033e00     LIBCMT:undname.obj
 0002:00006e20       __newctype                 0000000180033e20     LIBCMT:ctype.obj
 0002:00007120       _wctype                    0000000180034120     LIBCMT:ctype.obj
 0002:00007330       __newclmap                 0000000180034330     LIBCMT:ctype.obj
 0002:000074b0       __newcumap                 00000001800344b0     LIBCMT:ctype.obj
 0002:00007630       __rg_language_count        0000000180034630     LIBCMT:getqloc.obj
 0002:00007634       __rg_country_count         0000000180034634     LIBCMT:getqloc.obj
 0002:00007638       ??_C@_0M@HHGEPIBF@CreateFile2?$AA@ 0000000180034638     LIBCMT:wopen.obj
 0002:00007644       ??_C@_06PGGFOGJG@1?$CDSNAN?$AA@ 0000000180034644     LIBCMT:x10fout.obj
 0002:0000764c       ??_C@_05PHHOCPM@1?$CDIND?$AA@ 000000018003464c     LIBCMT:x10fout.obj
 0002:00007654       ??_C@_05DNEBIAHO@1?$CDINF?$AA@ 0000000180034654     LIBCMT:x10fout.obj
 0002:0000765c       ??_C@_06IMKFLFPG@1?$CDQNAN?$AA@ 000000018003465c     LIBCMT:x10fout.obj
 0002:00007668       ??_C@_1BA@BALFACEM@?$AAC?$AAO?$AAN?$AAO?$AAU?$AAT?$AA$?$AA?$AA@ 0000000180034668     LIBCMT:initcon.obj
 0002:00007678       ??_C@_0BA@JFNIOLAK@string?5too?5long?$AA@ 0000000180034678     init.obj
 0002:00007688       ??_C@_0BG@JLCLBMDJ@?4?4?2src?2image?2init?4cpp?$AA@ 0000000180034688     init.obj
 0002:000076a0       ??_C@_0L@MLPPNEHD@lwip_image?$AA@ 00000001800346a0     init.obj
 0002:000076b0       ??_C@_0BI@CFPLBAOH@invalid?5string?5position?$AA@ 00000001800346b0     init.obj
 0002:00016010       ??_7LwipImage@@6B@         0000000180043010     image.obj
 0002:00016028       ??_7CImgArgumentException@cimg_library@@6B@ 0000000180043028     image.obj
 0002:00016028       ??_7CImgException@cimg_library@@6B@ 0000000180043028     image.obj
 0002:00016028       ??_7CImgIOException@cimg_library@@6B@ 0000000180043028     image.obj
 0002:00016028       ??_7CImgInstanceException@cimg_library@@6B@ 0000000180043028     image.obj
 0002:00016040       ??_7exception@stdext@@6B@  0000000180043040     image.obj
 0002:00016058       ??_7ObjectWrap@node@@6B@   0000000180043058     image.obj
 0002:00016070       ??_C@_0BC@BDKFLDHL@unknown?5exception?$AA@ 0000000180043070     image.obj
 0002:00016082       ??_C@_00CNPNBAHC@?$AA@     0000000180043082     image.obj
 0002:00016090       ??_C@_1JC@GACJBGEC@?$AAC?$AA?3?$AA?2?$AAU?$AAs?$AAe?$AAr?$AAs?$AA?2?$AAD?$AAm?$AAi?$AAt?$AAr?$AAy?$AA?5?$AAP?$AAa?$AAv?$AAl?$AAe?$AAn?$AAk?$AAo?$AA?2?$AA?4?$AAn?$AAo?$AAd?$AAe?$AA?9?$AAg@ 0000000180043090     image.obj
 0002:00016128       ??_C@_1DG@OKCGPKIB@?$AAp?$AAe?$AAr?$AAs?$AAi?$AAs?$AAt?$AAe?$AAn?$AAt?$AA?$CI?$AA?$CJ?$AA?4?$AAI?$AAs?$AAN?$AAe?$AAa?$AAr?$AAD?$AAe?$AAa?$AAt?$AAh?$AA?$CI?$AA?$CJ?$AA?$AA@ 0000000180043128     image.obj
 0002:00016160       ??_C@_1CO@EGNPJLKI@?$AAp?$AAe?$AAr?$AAs?$AAi?$AAs?$AAt?$AAe?$AAn?$AAt?$AA?$CI?$AA?$CJ?$AA?4?$AAI?$AAs?$AAE?$AAm?$AAp?$AAt?$AAy?$AA?$CI?$AA?$CJ?$AA?$AA@ 0000000180043160     image.obj
 0002:00016190       ??_C@_1EC@NOLNIHNJ@?$AAh?$AAa?$AAn?$AAd?$AAl?$AAe?$AA?9?$AA?$DO?$AAI?$AAn?$AAt?$AAe?$AAr?$AAn?$AAa?$AAl?$AAF?$AAi?$AAe?$AAl?$AAd?$AAC?$AAo?$AAu?$AAn?$AAt?$AA?$CI?$AA?$CJ?$AA?5?$AA?$DO?$AA?5?$AA0@ 0000000180043190     image.obj
 0002:000161d8       ??_C@_1DA@FBGAEOIO@?$AA?$CB?$AAp?$AAe?$AAr?$AAs?$AAi?$AAs?$AAt?$AAe?$AAn?$AAt?$AA?$CI?$AA?$CJ?$AA?4?$AAI?$AAs?$AAE?$AAm?$AAp?$AAt?$AAy?$AA?$CI?$AA?$CJ?$AA?$AA@ 00000001800431d8     image.obj
 0002:00016208       ??_C@_1CO@JCKLEFMA@?$AA?$CB?$AAp?$AAe?$AAr?$AAs?$AAi?$AAs?$AAt?$AAe?$AAn?$AAt?$AA?$CI?$AA?$CJ?$AA?4?$AAI?$AAs?$AAW?$AAe?$AAa?$AAk?$AA?$CI?$AA?$CJ?$AA?$AA@ 0000000180043208     image.obj
 0002:00016238       ??_C@_1BE@GMLLOIPJ@?$AAr?$AAe?$AAf?$AAs?$AA_?$AA?5?$AA?$DO?$AA?5?$AA0?$AA?$AA@ 0000000180043238     image.obj
 0002:00016250       ??_C@_1CC@GBFLAAPF@?$AAw?$AAr?$AAa?$AAp?$AA?9?$AA?$DO?$AAr?$AAe?$AAf?$AAs?$AA_?$AA?5?$AA?$DN?$AA?$DN?$AA?5?$AA0?$AA?$AA@ 0000000180043250     image.obj
 0002:00016280       ??_C@_1GE@MEOPLBFN@?$AAe?$AA?3?$AA?2?$AAC?$AAo?$AAd?$AAe?$AA?2?$AAd?$AAp?$AAr?$AAo?$AAj?$AA?2?$AAt?$AAr?$AAi?$AAp?$AA_?$AAb?$AAa?$AAc?$AAk?$AAe?$AAn?$AAd?$AA?2?$AAn?$AAo?$AAd?$AAe?$AA_@ 0000000180043280     image.obj
 0002:000162f0       ??_C@_1FM@LOELJOFK@?$AAs?$AAi?$AAz?$AAe?$AA?5?$AA?$DM?$AA?$DN?$AA?5?$AAi?$AAm?$AAp?$AA?3?$AA?3?$AAk?$AAM?$AAa?$AAx?$AAL?$AAe?$AAn?$AAg?$AAt?$AAh?$AA?5?$AA?$CG?$AA?$CG?$AA?5?$AA?$CC?$AAt?$AAo?$AAo?$AA?5@ 00000001800432f0     image.obj
 0002:00016350       ??_C@_07CIFAGBMG@unknown?$AA@ 0000000180043350     image.obj
 0002:00016358       ??_C@_0BL@EAGPGGJL@?6?$CFs?$FLCImg?$FN?5?$CK?$CK?$CK?5?$CFs?5?$CK?$CK?$CK?$CFs?5?$CFs?6?$AA@ 0000000180043358     image.obj
 0002:00016378       ??_C@_0BG@KMDADBLO@CImgArgumentException?$AA@ 0000000180043378     image.obj
 0002:00016390       ??_C@_0BG@IOCOPDAE@CImgInstanceException?$AA@ 0000000180043390     image.obj
 0002:000163a8       ??_C@_0BA@EFAPIJMM@CImgIOException?$AA@ 00000001800433a8     image.obj
 0002:000163b8       ??_C@_02DKCKIIND@?$CFs?$AA@ 00000001800433b8     image.obj
 0002:000163c0       ??_C@_0O@PPAIJIHF@unsigned?5char?$AA@ 00000001800433c0     image.obj
 0002:000163d0       ??_C@_04ENMBGAPA@char?$AA@ 00000001800433d0     image.obj
 0002:000163d8       ??_C@_0BO@KMOFCCNE@?6?$CFs?$FLCImg?$FN?5?$CK?$CK?$CK?5Warning?5?$CK?$CK?$CK?$CFs?$CFs?$AA@ 00000001800433d8     image.obj
 0002:000163f8       ??_C@_07LDLFNPGN@Windows?$AA@ 00000001800433f8     image.obj
 0002:00016400       ??_C@_0CK@NEJGLCGN@cimg?3?3fclose?$CI?$CJ?3?5Specified?5file?5i@ 0000000180043400     image.obj
 0002:00016430       ??_C@_0DM@IBNMJMCA@cimg?3?3fclose?$CI?$CJ?3?5Error?5code?5?$CFd?5re@ 0000000180043430     image.obj
 0002:0001646c       ??_C@_02GMLFBBN@wb?$AA@    000000018004346c     image.obj
 0002:00016470       ??_C@_08GFNKJEFD@10?326?348?$AA@ 0000000180043470     image.obj
 0002:00016480       ??_C@_0M@BPCKMONA@Jun?5?55?52016?$AA@ 0000000180043480     image.obj
 0002:00016490       ??_C@_0EO@PPEPCMLA@?6?5?$CFs?$CFsCImg?5Library?5?$CFu?4?$CFu?4?$CFu?$CFs?0?5c@ 0000000180043490     image.obj
 0002:000164e0       ??_C@_0DK@CAOOHPPH@?5?5?$DO?5Operating?5System?3?5?5?5?5?5?5?5?$CFs?$CF?9@ 00000001800434e0     image.obj
 0002:0001651c       ??_C@_06HPILLNHM@Little?$AA@ 000000018004351c     image.obj
 0002:00016528       ??_C@_0CL@MALEOICL@?5?5?$DO?5CPU?5endianness?3?5?5?5?5?5?5?5?5?5?$CFs?$CFs@ 0000000180043528     image.obj
 0002:00016554       ??_C@_05PLLMOHAB@Quiet?$AA@ 0000000180043554     image.obj
 0002:00016560       ??_C@_0EB@IDKGNHGM@?5?5?$DO?5Verbosity?5mode?3?5?5?5?5?5?5?5?5?5?$CFs?$CF?9@ 0000000180043560     image.obj
 0002:000165a8       ??_C@_09MLGAJAED@undefined?$AA@ 00000001800435a8     image.obj
 0002:000165b4       ??_C@_02JINPPBEP@No?$AA@   00000001800435b4     image.obj
 0002:000165c0       ??_C@_0EH@LAGENLPE@?5?5?$DO?5Stricts?5warnings?3?5?5?5?5?5?5?5?$CFs?$CF?9@ 00000001800435c0     image.obj
 0002:00016610       ??_C@_0EB@JAEOMHJH@?5?5?$DO?5Using?5VT100?5messages?3?5?5?5?$CFs?$CF?9@ 0000000180043610     image.obj
 0002:00016658       ??_C@_0L@EKKILCGA@No?5display?$AA@ 0000000180043658     image.obj
 0002:00016668       ??_C@_0DP@CBALMADN@?5?5?$DO?5Display?5type?3?5?5?5?5?5?5?5?5?5?5?5?$CFs?$CF?9@ 0000000180043668     image.obj
 0002:000166b0       ??_C@_0EC@DJMNKPJN@?5?5?$DO?5Using?5OpenMP?3?5?5?5?5?5?5?5?5?5?5?5?$CFs?$CF?9@ 00000001800436b0     image.obj
 0002:000166f8       ??_C@_0DP@ELDHPPAH@?5?5?$DO?5Using?5PNG?5library?3?5?5?5?5?5?5?$CFs?$CF?9@ 00000001800436f8     image.obj
 0002:00016740       ??_C@_0EA@BIPAABKJ@?5?5?$DO?5Using?5JPEG?5library?3?5?5?5?5?5?$CFs?$CF?9@ 0000000180043740     image.obj
 0002:00016780       ??_C@_0EA@GNPBIGKO@?5?5?$DO?5Using?5TIFF?5library?3?5?5?5?5?5?$CFs?$CF?9@ 0000000180043780     image.obj
 0002:000167c0       ??_C@_0EC@LHFPOJJ@?5?5?$DO?5Using?5Magick?$CL?$CL?5library?3?5?$CFs?$CF?9@ 00000001800437c0     image.obj
 0002:00016810       ??_C@_0EB@IMBGEGC@?5?5?$DO?5Using?5FFTW3?5library?3?5?5?5?5?$CFs?$CF?9@ 0000000180043810     image.obj
 0002:00016860       ??_C@_0EC@EDAJEHKG@?5?5?$DO?5Using?5LAPACK?5library?3?5?5?5?$CFs?$CF?9@ 0000000180043860     image.obj
 0002:000168a8       ??_C@_09KDOGNJMJ@?$CC?$CF?41020s?$CC?$AA@ 00000001800438a8     image.obj
 0002:000168b8       ??_C@_0CH@JOMNENBJ@?5?5?$DO?5Path?5of?5ImageMagick?3?5?5?5?5?$CFs?$CF?9@ 00000001800438b8     image.obj
 0002:000168e0       ??_C@_0CH@GJHENCAJ@?5?5?$DO?5Path?5of?5GraphicsMagick?3?5?$CFs?$CF?9@ 00000001800438e0     image.obj
 0002:00016908       ??_C@_0CH@DIFINHOM@?5?5?$DO?5Path?5of?5?8medcon?8?3?5?5?5?5?5?5?5?$CFs?$CF?9@ 0000000180043908     image.obj
 0002:00016930       ??_C@_0CH@NBHEOCD@?5?5?$DO?5Temporary?5path?3?5?5?5?5?5?5?5?5?5?$CFs?$CF?9@ 0000000180043930     image.obj
 0002:00016958       ??_C@_01EEMJAFIK@?6?$AA@   0000000180043958     image.obj
 0002:0001695c       ??_C@_06IHDMMOPO@?$CFs?4tmp?$AA@ 000000018004395c     image.obj
 0002:00016964       ??_C@_03FICNPLNB@TMP?$AA@  0000000180043964     image.obj
 0002:00016968       ??_C@_04JKHNIKCB@TEMP?$AA@ 0000000180043968     image.obj
 0002:00016970       ??_C@_06GIIGBPHC@?$CFs?$CFc?$CFs?$AA@ 0000000180043970     image.obj
 0002:00016978       ??_C@_0O@MCLGOIG@C?3?2WINNT?2Temp?$AA@ 0000000180043978     image.obj
 0002:00016988       ??_C@_0BA@OBBKBLLO@C?3?2WINDOWS?2Temp?$AA@ 0000000180043988     image.obj
 0002:00016998       ??_C@_07OEMLJILH@C?3?2Temp?$AA@ 0000000180043998     image.obj
 0002:000169a0       ??_C@_02FHMLMLAN@C?3?$AA@  00000001800439a0     image.obj
 0002:000169a8       ??_C@_0O@GJOGMEEG@D?3?2WINNT?2Temp?$AA@ 00000001800439a8     image.obj
 0002:000169b8       ??_C@_0BA@BMODODML@D?3?2WINDOWS?2Temp?$AA@ 00000001800439b8     image.obj
 0002:000169c8       ??_C@_07OOAOJBKO@D?3?2Temp?$AA@ 00000001800439c8     image.obj
 0002:000169d0       ??_C@_02FCIENNII@D?3?$AA@  00000001800439d0     image.obj
 0002:000169e0       ??_C@_0EM@MFNNFKJO@cimg?3?3temporary_path?$CI?$CJ?3?5Failed?5t@ 00000001800439e0     image.obj
 0002:00016a30       ??_C@_0N@DGDPHBCF@PROGRAMFILES?$AA@ 0000000180043a30     image.obj
 0002:00016a40       ??_C@_0M@JGDMECFM@C?3?2PROGRA?$HO1?$AA@ 0000000180043a40     image.obj
 0002:00016a50       ??_C@_0O@CINCGHCE@?4?2convert?4exe?$AA@ 0000000180043a50     image.obj
 0002:00016a60       ??_C@_01KDCPPGHE@r?$AA@    0000000180043a60     image.obj
 0002:00016a68       ??_C@_0BO@BEENKDDB@?$CFs?2IMAGEM?$HO1?4?$CF?42d?9?2convert?4exe?$AA@ 0000000180043a68     image.obj
 0002:00016a88       ??_C@_0BN@DEFKOHAO@?$CFs?2IMAGEM?$HO1?4?$CFd?9Q?2convert?4exe?$AA@ 0000000180043a88     image.obj
 0002:00016aa8       ??_C@_0BL@MJEIJKFG@?$CFs?2IMAGEM?$HO1?4?$CFd?2convert?4exe?$AA@ 0000000180043aa8     image.obj
 0002:00016ac8       ??_C@_0CK@IDDGABKN@?$CFs?2IMAGEM?$HO1?4?$CF?42d?9?2VISUA?$HO1?2BIN?2co@ 0000000180043ac8     image.obj
 0002:00016af8       ??_C@_0CJ@MEJJNKIH@?$CFs?2IMAGEM?$HO1?4?$CFd?9Q?2VISUA?$HO1?2BIN?2con@ 0000000180043af8     image.obj
 0002:00016b28       ??_C@_0CH@IPLKJMJJ@?$CFs?2IMAGEM?$HO1?4?$CFd?2VISUA?$HO1?2BIN?2conve@ 0000000180043b28     image.obj
 0002:00016b50       ??_C@_0BO@NPHMEFBN@C?3?2IMAGEM?$HO1?4?$CF?42d?9?2convert?4exe?$AA@ 0000000180043b50     image.obj
 0002:00016b70       ??_C@_0BN@GEAPEHLO@C?3?2IMAGEM?$HO1?4?$CFd?9Q?2convert?4exe?$AA@ 0000000180043b70     image.obj
 0002:00016b90       ??_C@_0BL@BNLFNGCG@C?3?2IMAGEM?$HO1?4?$CFd?2convert?4exe?$AA@ 0000000180043b90     image.obj
 0002:00016bb0       ??_C@_0CK@OMCOIKKD@C?3?2IMAGEM?$HO1?4?$CF?42d?9?2VISUA?$HO1?2BIN?2co@ 0000000180043bb0     image.obj
 0002:00016be0       ??_C@_0CJ@GMGFDFFB@C?3?2IMAGEM?$HO1?4?$CFd?9Q?2VISUA?$HO1?2BIN?2con@ 0000000180043be0     image.obj
 0002:00016c10       ??_C@_0CH@NLPLIBFJ@C?3?2IMAGEM?$HO1?4?$CFd?2VISUA?$HO1?2BIN?2conve@ 0000000180043c10     image.obj
 0002:00016c38       ??_C@_0BO@GKFOOMCF@D?3?2IMAGEM?$HO1?4?$CF?42d?9?2convert?4exe?$AA@ 0000000180043c38     image.obj
 0002:00016c58       ??_C@_0BN@JGGJEOAD@D?3?2IMAGEM?$HO1?4?$CFd?9Q?2convert?4exe?$AA@ 0000000180043c58     image.obj
 0002:00016c78       ??_C@_0BL@MPGAJAKA@D?3?2IMAGEM?$HO1?4?$CFd?2convert?4exe?$AA@ 0000000180043c78     image.obj
 0002:00016c98       ??_C@_0CK@DNGABIKL@D?3?2IMAGEM?$HO1?4?$CF?42d?9?2VISUA?$HO1?2BIN?2co@ 0000000180043c98     image.obj
 0002:00016cc8       ??_C@_0CJ@JJJAMMPF@D?3?2IMAGEM?$HO1?4?$CFd?9Q?2VISUA?$HO1?2BIN?2con@ 0000000180043cc8     image.obj
 0002:00016cf8       ??_C@_0CH@OJDFLFEH@D?3?2IMAGEM?$HO1?4?$CFd?2VISUA?$HO1?2BIN?2conve@ 0000000180043cf8     image.obj
 0002:00016d20       ??_C@_0M@BHHDHLFO@convert?4exe?$AA@ 0000000180043d20     image.obj
 0002:00016d30       ??_C@_08JLFGAKFI@?4?2gm?4exe?$AA@ 0000000180043d30     image.obj
 0002:00016d40       ??_C@_0BJ@KIJEJDFC@?$CFs?2GRAPHI?$HO1?4?$CF?42d?9?2gm?4exe?$AA@ 0000000180043d40     image.obj
 0002:00016d60       ??_C@_0BI@JLKBGOLD@?$CFs?2GRAPHI?$HO1?4?$CFd?9Q?2gm?4exe?$AA@ 0000000180043d60     image.obj
 0002:00016d78       ??_C@_0BG@NEOPBCGI@?$CFs?2GRAPHI?$HO1?4?$CFd?2gm?4exe?$AA@ 0000000180043d78     image.obj
 0002:00016d90       ??_C@_0CF@HGNIKPKC@?$CFs?2GRAPHI?$HO1?4?$CF?42d?9?2VISUA?$HO1?2BIN?2gm@ 0000000180043d90     image.obj
 0002:00016db8       ??_C@_0CE@HONJHPCF@?$CFs?2GRAPHI?$HO1?4?$CFd?9Q?2VISUA?$HO1?2BIN?2gm?4@ 0000000180043db8     image.obj
 0002:00016de0       ??_C@_0CC@CGJHNFDG@?$CFs?2GRAPHI?$HO1?4?$CFd?2VISUA?$HO1?2BIN?2gm?4ex@ 0000000180043de0     image.obj
 0002:00016e08       ??_C@_0BJ@LNLIIJPN@C?3?2GRAPHI?$HO1?4?$CF?42d?9?2gm?4exe?$AA@ 0000000180043e08     image.obj
 0002:00016e28       ??_C@_0BI@GNJGIIOO@C?3?2GRAPHI?$HO1?4?$CFd?9Q?2gm?4exe?$AA@ 0000000180043e28     image.obj
 0002:00016e40       ??_C@_0BG@KKAGDOPF@C?3?2GRAPHI?$HO1?4?$CFd?2gm?4exe?$AA@ 0000000180043e40     image.obj
 0002:00016e58       ??_C@_0CF@IDNFPMOE@C?3?2GRAPHI?$HO1?4?$CF?42d?9?2VISUA?$HO1?2BIN?2gm@ 0000000180043e58     image.obj
 0002:00016e80       ??_C@_0CE@HMEOGOHC@C?3?2GRAPHI?$HO1?4?$CFd?9Q?2VISUA?$HO1?2BIN?2gm?4@ 0000000180043e80     image.obj
 0002:00016ea8       ??_C@_0CC@KLPHHFCI@C?3?2GRAPHI?$HO1?4?$CFd?2VISUA?$HO1?2BIN?2gm?4ex@ 0000000180043ea8     image.obj
 0002:00016ed0       ??_C@_0BJ@HDOIHFFF@D?3?2GRAPHI?$HO1?4?$CF?42d?9?2gm?4exe?$AA@ 0000000180043ed0     image.obj
 0002:00016ef0       ??_C@_0BI@FMIOLPJJ@D?3?2GRAPHI?$HO1?4?$CFd?9Q?2gm?4exe?$AA@ 0000000180043ef0     image.obj
 0002:00016f08       ??_C@_0BG@MPNPAALF@D?3?2GRAPHI?$HO1?4?$CFd?2gm?4exe?$AA@ 0000000180043f08     image.obj
 0002:00016f20       ??_C@_0CF@LHOHJFDL@D?3?2GRAPHI?$HO1?4?$CF?42d?9?2VISUA?$HO1?2BIN?2gm@ 0000000180043f20     image.obj
 0002:00016f48       ??_C@_0CE@CAPOENBL@D?3?2GRAPHI?$HO1?4?$CFd?9Q?2VISUA?$HO1?2BIN?2gm?4@ 0000000180043f48     image.obj
 0002:00016f70       ??_C@_0CC@FEHIMCKK@D?3?2GRAPHI?$HO1?4?$CFd?2VISUA?$HO1?2BIN?2gm?4ex@ 0000000180043f70     image.obj
 0002:00016f94       ??_C@_06KIIJHODA@gm?4exe?$AA@ 0000000180043f94     image.obj
 0002:00016fa0       ??_C@_0N@MGGOIDG@?4?2medcon?4exe?$AA@ 0000000180043fa0     image.obj
 0002:00016fb0       ??_C@_0BK@NDJGANHB@?$CFs?2XMedCon?2bin?2medcon?4bat?$AA@ 0000000180043fb0     image.obj
 0002:00016fd0       ??_C@_0BK@OGPIOCH@?$CFs?2XMedCon?2bin?2medcon?4exe?$AA@ 0000000180043fd0     image.obj
 0002:00016ff0       ??_C@_0BK@EIBDBMEE@C?3?2XMedCon?2bin?2medcon?4exe?$AA@ 0000000180043ff0     image.obj
 0002:00017010       ??_C@_0L@BIHMEPJA@medcon?4exe?$AA@ 0000000180044010     image.obj
 0002:0001701c       ??_C@_01LKDEMHDF@s?$AA@    000000018004401c     image.obj
 0002:00017020       ??_C@_0L@OBBAIDHB@?$CFlu?5byte?$CFs?$AA@ 0000000180044020     image.obj
 0002:00017030       ??_C@_08MFGCGJIH@?$CF?41f?5Kio?$AA@ 0000000180044030     image.obj
 0002:00017040       ??_C@_08OAAJDGFL@?$CF?41f?5Mio?$AA@ 0000000180044040     image.obj
 0002:00017050       ??_C@_08IPLENGDP@?$CF?41f?5Gio?$AA@ 0000000180044050     image.obj
 0002:00017060       ??_C@_09LAIAIPHJ@LwipImage?$AA@ 0000000180044060     image.obj
 0002:0001706c       ??_C@_05IGKADHGO@width?$AA@ 000000018004406c     image.obj
 0002:00017074       ??_C@_06LNLHEAAG@height?$AA@ 0000000180044074     image.obj
 0002:00017080       ??_C@_08BAKLOFAD@getPixel?$AA@ 0000000180044080     image.obj
 0002:0001708c       ??_C@_06HOHPNJLC@buffer?$AA@ 000000018004408c     image.obj
 0002:00017094       ??_C@_06PIONCPJI@resize?$AA@ 0000000180044094     image.obj
 0002:0001709c       ??_C@_06CEHMNFAL@rotate?$AA@ 000000018004409c     image.obj
 0002:000170a4       ??_C@_04OEOMNFLL@blur?$AA@ 00000001800440a4     image.obj
 0002:000170ac       ??_C@_04EKMNJIID@crop?$AA@ 00000001800440ac     image.obj
 0002:000170b4       ??_C@_06LLKPBPOH@mirror?$AA@ 00000001800440b4     image.obj
 0002:000170bc       ??_C@_03PNAAIPML@pad?$AA@  00000001800440bc     image.obj
 0002:000170c0       ??_C@_07JOLMDEEJ@sharpen?$AA@ 00000001800440c0     image.obj
 0002:000170c8       ??_C@_07GMFDBPHL@hslaAdj?$AA@ 00000001800440c8     image.obj
 0002:000170d0       ??_C@_07JGMNFOGM@opacify?$AA@ 00000001800440d0     image.obj
 0002:000170d8       ??_C@_05NDLFFNHM@paste?$AA@ 00000001800440d8     image.obj
 0002:000170e0       ??_C@_08OBIHPGHO@setPixel?$AA@ 00000001800440e0     image.obj
 0002:000170ec       ??_C@_04BOPJJKFO@non?9?$AA@ 00000001800440ec     image.obj
 0002:00017100       ??_C@_0GO@IJKBBBF@?$FLinstance?$CI?$CFu?0?$CFu?0?$CFu?0?$CFu?0?$CFp?0?$CFsshare@ 0000000180044100     image.obj
 0002:00017170       ??_C@_0IL@FBEMFEEL@?$FLinstance?$CI?$CFu?0?$CFu?0?$CFu?0?$CFu?0?$CFp?0?$CFsshare@ 0000000180044170     image.obj
 0002:00017200       ??_C@_0HA@LNIOEEDA@?$FLinstance?$CI?$CFu?0?$CFu?0?$CFu?0?$CFu?0?$CFp?0?$CFsshare@ 0000000180044200     image.obj
 0002:00017270       ??_C@_1CE@IAEMMFJ@?$AA?$CB?$AAh?$AAa?$AAn?$AAd?$AAl?$AAe?$AA?4?$AAI?$AAs?$AAE?$AAm?$AAp?$AAt?$AAy?$AA?$CI?$AA?$CJ?$AA?$AA@ 0000000180044270     image.obj
 0002:00017298       ??_C@_0N@OFHMGPAL@unsigned?5int?$AA@ 0000000180044298     resize_worker.obj
 0002:000172a8       ??_C@_0O@NMGGJGDE@unsigned?5long?$AA@ 00000001800442a8     resize_worker.obj
 0002:000172b8       ??_C@_05KNFBNCOH@float?$AA@ 00000001800442b8     resize_worker.obj
 0002:000172c0       ??_C@_0BH@HOEBJHNE@Unable?5to?5resize?5image?$AA@ 00000001800442c0     resize_worker.obj
 0002:000172e0       ??_C@_0HN@LNNNGPDL@?$FLinstance?$CI?$CFu?0?$CFu?0?$CFu?0?$CFu?0?$CFp?0?$CFsshare@ 00000001800442e0     resize_worker.obj
 0002:00017360       ??_C@_0LO@CIICCCPG@?$FLinstance?$CI?$CFu?0?$CFu?0?$CFu?0?$CFu?0?$CFp?0?$CFsshare@ 0000000180044360     resize_worker.obj
 0002:00017420       ??_C@_0EG@MMNHNNC@?$FLinstance?$CI?$CFu?0?$CFu?0?$CFu?0?$CFu?0?$CFp?0?$CFsshare@ 0000000180044420     resize_worker.obj
 0002:00017470       ??_C@_0GG@IFNNPGGA@?$FLinstance?$CI?$CFu?0?$CFu?0?$CFu?0?$CFu?0?$CFp?0?$CFsshare@ 0000000180044470     resize_worker.obj
 0002:000174d8       ??_7ResizeWorker@@6B@      00000001800444d8     resize_worker.obj
 0002:00017508       ??_7AsyncWorker@Nan@@6B@   0000000180044508     resize_worker.obj
 0002:00017538       ??_7RotateWorker@@6B@      0000000180044538     rotate_worker.obj
 0002:00017568       ??_C@_0O@NALGGDJF@Out?5of?5memory?$AA@ 0000000180044568     rotate_worker.obj
 0002:00017578       ??_C@_0BH@GGFIPBFA@Unable?5to?5rotate?5image?$AA@ 0000000180044578     rotate_worker.obj
 0002:00017590       ??_7BlurWorker@@6B@        0000000180044590     blur_worker.obj
 0002:000175c0       ??_7CropWorker@@6B@        00000001800445c0     crop_worker.obj
 0002:000175f0       ??_C@_0BF@EIGNCFLG@Unable?5to?5crop?5image?$AA@ 00000001800445f0     crop_worker.obj
 0002:00017608       ??_C@_01FJMABOPO@x?$AA@    0000000180044608     mirror_worker.obj
 0002:0001760c       ??_C@_01EANLCPLP@y?$AA@    000000018004460c     mirror_worker.obj
 0002:00017610       ??_C@_0BH@GGNFDDGJ@Unable?5to?5mirror?5image?$AA@ 0000000180044610     mirror_worker.obj
 0002:00017630       ??_C@_0FF@BEMAOOFG@?$FLinstance?$CI?$CFu?0?$CFu?0?$CFu?0?$CFu?0?$CFp?0?$CFsshare@ 0000000180044630     mirror_worker.obj
 0002:00017688       ??_7MirrorWorker@@6B@      0000000180044688     mirror_worker.obj
 0002:000176b8       ??_7PadWorker@@6B@         00000001800446b8     pad_worker.obj
 0002:000176e8       ??_C@_0BI@KMLFCNEF@Unable?5to?5sharpen?5image?$AA@ 00000001800446e8     sharpen_worker.obj
 0002:00017700       ??_C@_0EF@BOBPDEID@?$FLinstance?$CI?$CFu?0?$CFu?0?$CFu?0?$CFu?0?$CFp?0?$CFsshare@ 0000000180044700     sharpen_worker.obj
 0002:00017748       ??_7SharpenWorker@@6B@     0000000180044748     sharpen_worker.obj
 0002:00017778       ??_7HSLAWorker@@6B@        0000000180044778     hsla_worker.obj
 0002:000177a8       ??_7OpacifyWorker@@6B@     00000001800447a8     opacify_worker.obj
 0002:000177d8       ??_C@_06JIBAFMCE@pixbuf?$AA@ 00000001800447d8     paste_worker.obj
 0002:000177e0       ??_C@_0BG@NOEMJBFE@Unable?5to?5paste?5image?$AA@ 00000001800447e0     paste_worker.obj
 0002:000177f8       ??_7PasteWorker@@6B@       00000001800447f8     paste_worker.obj
 0002:00017828       ??_7SetPixelWorker@@6B@    0000000180044828     setpixel_worker.obj
 0002:00017858       ??_C@_08HCOMDCCD@iojs?4exe?$AA@ 0000000180044858     win_delay_load_hook.obj
 0002:00017868       ??_C@_08JDDNMFDB@node?4exe?$AA@ 0000000180044868     win_delay_load_hook.obj
 0002:00017874       __real@30800000            0000000180044874     init.obj
 0002:00017878       __real@35800000            0000000180044878     init.obj
 0002:0001787c       __real@3a800000            000000018004487c     init.obj
 0002:00017880       __real@3eaaaaab            0000000180044880     init.obj
 0002:00017884       __real@3f000000            0000000180044884     init.obj
 0002:00017888       __real@3f2aaaab            0000000180044888     init.obj
 0002:0001788c       __real@3f800000            000000018004488c     init.obj
 0002:00017890       __real@3facb923a29c779a    0000000180044890     init.obj
 0002:00017898       __real@3fd06f694467381d    0000000180044898     init.obj
 0002:000178a0       __real@3fe28240b780346e    00000001800448a0     init.obj
 0002:000178a8       __real@3fef5f6fd21ff2e5    00000001800448a8     init.obj
 0002:000178b0       __real@3ff0000000000000    00000001800448b0     init.obj
 0002:000178b8       __real@3ff2ab367a0f9097    00000001800448b8     init.obj
 0002:000178c0       __real@40000000            00000001800448c0     init.obj
 0002:000178c8       __real@4001b9abf3387161    00000001800448c8     init.obj
 0002:000178d0       __real@400412a305532618    00000001800448d0     init.obj
 0002:000178d8       __real@4008000000000000    00000001800448d8     init.obj
 0002:000178e0       __real@400921fb54442d18    00000001800448e0     init.obj
 0002:000178e8       __real@4009a13d028c43be    00000001800448e8     init.obj
 0002:000178f0       __real@400b0f47304039ac    00000001800448f0     init.obj
 0002:000178f8       __real@400c72b020c49ba6    00000001800448f8     init.obj
 0002:00017900       __real@400de7a7229d4fdd    0000000180044900     init.obj
 0002:00017908       __real@401727e595e04062    0000000180044908     init.obj
 0002:00017910       __real@401b0f47304039ac    0000000180044910     init.obj
 0002:00017918       __real@40400000            0000000180044918     init.obj
 0002:0001791c       __real@40490fdb            000000018004491c     init.obj
 0002:00017920       __real@4056800000000000    0000000180044920     init.obj
 0002:00017928       __real@4059000000000000    0000000180044928     init.obj
 0002:00017930       __real@4066800000000000    0000000180044930     init.obj
 0002:00017938       __real@406fe00000000000    0000000180044938     init.obj
 0002:00017940       __real@4076800000000000    0000000180044940     init.obj
 0002:00017948       __real@40800000            0000000180044948     init.obj
 0002:0001794c       __real@40a00000            000000018004494c     init.obj
 0002:00017950       __real@40c00000            0000000180044950     init.obj
 0002:00017954       __real@42700000            0000000180044954     init.obj
 0002:00017958       __real@42c80000            0000000180044958     init.obj
 0002:0001795c       __real@437f0000            000000018004495c     init.obj
 0002:00017960       __real@43b40000            0000000180044960     init.obj
 0002:00017968       __real@43e0000000000000    0000000180044968     init.obj
 0002:00017970       __real@c0000000            0000000180044970     init.obj
 0002:00017974       __real@c2c80000            0000000180044974     init.obj
 0002:00017980       __xmm@7fffffffffffffff7fffffffffffffff 0000000180044980     init.obj
 0002:00017990       __xmm@80000000000000008000000000000000 0000000180044990     init.obj
 0002:000179a0       __xmm@80000000800000008000000080000000 00000001800449a0     init.obj
 0002:000196a0       __real@bff0000000000000    00000001800466a0     LIBCMT:floor.obj
 0002:0001a180       __Lcosarray                0000000180047180     LIBCMT:Lsincos_array.obj
 0002:0001a1e0       __Lsinarray                00000001800471e0     LIBCMT:Lsincos_array.obj
 0002:0001a560       ??_C@_04LAGPAAHP@sinf?$AA@ 0000000180047560     LIBCMT:sincos_special.obj
 0002:0001a568       ??_C@_04OBBKPIAC@cosf?$AA@ 0000000180047568     LIBCMT:sincos_special.obj
 0002:0001a580       __Lcosfarray               0000000180047580     LIBCMT:Lsincosf_array.obj
 0002:0001a5b0       __Lsinfarray               00000001800475b0     LIBCMT:Lsincosf_array.obj
 0002:0001a5d0       __two_to_jby64_table       00000001800475d0     LIBCMT:two_to_jby64_table.obj
 0002:0001a7d0       ??_C@_04KBNCNMNN@expf?$AA@ 00000001800477d0     LIBCMT:exp_special.obj
 0002:0001a7e0       __log_F_inv_qword          00000001800477e0     LIBCMT:log_F_inv_qword_table.obj
 0002:0001aff0       ??_C@_04MBFDLNIM@powf?$AA@ 0000000180047ff0     LIBCMT:pow_special.obj
 0002:0001b000       __L_2_by_pi_bits           0000000180048000     LIBCMT:L2_by_pi_bits.obj
 0002:0001b150       _load_config_used          0000000180048150     LIBCMT:loadcfg.obj
 0002:0001b238       ??_R1A@?0A@EA@exception@std@@8 0000000180048238     libcpmt:xthrow.obj
 0002:0001b260       ??_R3exception@std@@8      0000000180048260     libcpmt:xthrow.obj
 0002:0001b278       ??_R2exception@std@@8      0000000180048278     libcpmt:xthrow.obj
 0002:0001b288       ??_R4bad_alloc@std@@6B@    0000000180048288     libcpmt:xthrow.obj
 0002:0001b2b0       ??_R3bad_alloc@std@@8      00000001800482b0     libcpmt:xthrow.obj
 0002:0001b2c8       ??_R2bad_alloc@std@@8      00000001800482c8     libcpmt:xthrow.obj
 0002:0001b2e0       ??_R1A@?0A@EA@bad_alloc@std@@8 00000001800482e0     libcpmt:xthrow.obj
 0002:0001b308       ??_R4logic_error@std@@6B@  0000000180048308     libcpmt:xthrow.obj
 0002:0001b330       ??_R3logic_error@std@@8    0000000180048330     libcpmt:xthrow.obj
 0002:0001b348       ??_R2logic_error@std@@8    0000000180048348     libcpmt:xthrow.obj
 0002:0001b360       ??_R1A@?0A@EA@logic_error@std@@8 0000000180048360     libcpmt:xthrow.obj
 0002:0001b388       ??_R4length_error@std@@6B@ 0000000180048388     libcpmt:xthrow.obj
 0002:0001b3b0       ??_R3length_error@std@@8   00000001800483b0     libcpmt:xthrow.obj
 0002:0001b3c8       ??_R2length_error@std@@8   00000001800483c8     libcpmt:xthrow.obj
 0002:0001b3e8       ??_R1A@?0A@EA@length_error@std@@8 00000001800483e8     libcpmt:xthrow.obj
 0002:0001b410       ??_R4out_of_range@std@@6B@ 0000000180048410     libcpmt:xthrow.obj
 0002:0001b438       ??_R3out_of_range@std@@8   0000000180048438     libcpmt:xthrow.obj
 0002:0001b450       ??_R2out_of_range@std@@8   0000000180048450     libcpmt:xthrow.obj
 0002:0001b470       ??_R1A@?0A@EA@out_of_range@std@@8 0000000180048470     libcpmt:xthrow.obj
 0002:0001b498       ??_R4type_info@@6B@        0000000180048498     LIBCMT:typinfo.obj
 0002:0001b4c0       ??_R3type_info@@8          00000001800484c0     LIBCMT:typinfo.obj
 0002:0001b4d8       ??_R2type_info@@8          00000001800484d8     LIBCMT:typinfo.obj
 0002:0001b4e8       ??_R1A@?0A@EA@type_info@@8 00000001800484e8     LIBCMT:typinfo.obj
 0002:0001b510       ??_R4exception@std@@6B@    0000000180048510     LIBCMT:stdexcpt.obj
 0002:0001b538       ??_R4bad_exception@std@@6B@ 0000000180048538     LIBCMT:frame.obj
 0002:0001b560       ??_R3bad_exception@std@@8  0000000180048560     LIBCMT:frame.obj
 0002:0001b578       ??_R2bad_exception@std@@8  0000000180048578     LIBCMT:frame.obj
 0002:0001b590       ??_R1A@?0A@EA@bad_exception@std@@8 0000000180048590     LIBCMT:frame.obj
 0002:0001b5b8       __rtc_iaa                  00000001800485b8     LIBCMT:initsect.obj
 0002:0001b5c0       __rtc_izz                  00000001800485c0     LIBCMT:initsect.obj
 0002:0001b5c8       __rtc_taa                  00000001800485c8     LIBCMT:initsect.obj
 0002:0001b5d0       __rtc_tzz                  00000001800485d0     LIBCMT:initsect.obj
 0002:0001ebd8       _TI2?AVbad_alloc@std@@     000000018004bbd8     libcpmt:xthrow.obj
 0002:0001ebf8       _CTA2?AVbad_alloc@std@@    000000018004bbf8     libcpmt:xthrow.obj
 0002:0001ec10       _CT??_R0?AVbad_alloc@std@@@8??0bad_alloc@std@@QEAA@AEBV01@@Z24 000000018004bc10     libcpmt:xthrow.obj
 0002:0001ec38       _CT??_R0?AVexception@std@@@8??0exception@std@@QEAA@AEBV01@@Z24 000000018004bc38     libcpmt:xthrow.obj
 0002:0001ec60       _CT??_R0?AVlogic_error@std@@@8??0logic_error@std@@QEAA@AEBV01@@Z24 000000018004bc60     libcpmt:xthrow.obj
 0002:0001ec88       _TI3?AVlength_error@std@@  000000018004bc88     libcpmt:xthrow.obj
 0002:0001eca8       _CTA3?AVlength_error@std@@ 000000018004bca8     libcpmt:xthrow.obj
 0002:0001ecc8       _CT??_R0?AVlength_error@std@@@8??0length_error@std@@QEAA@AEBV01@@Z24 000000018004bcc8     libcpmt:xthrow.obj
 0002:0001ecf0       _TI3?AVout_of_range@std@@  000000018004bcf0     libcpmt:xthrow.obj
 0002:0001ed10       _CTA3?AVout_of_range@std@@ 000000018004bd10     libcpmt:xthrow.obj
 0002:0001ed30       _CT??_R0?AVout_of_range@std@@@8??0out_of_range@std@@QEAA@AEBV01@@Z24 000000018004bd30     libcpmt:xthrow.obj
 0002:0001ed58       _TI2?AVbad_exception@std@@ 000000018004bd58     LIBCMT:frame.obj
 0002:0001ed78       _CTA2?AVbad_exception@std@@ 000000018004bd78     LIBCMT:frame.obj
 0002:0001ed90       _CT??_R0?AVbad_exception@std@@@8??0bad_exception@std@@QEAA@AEBV01@@Z24 000000018004bd90     LIBCMT:frame.obj
 0002:0001edb8       _TI3?AUCImgIOException@cimg_library@@ 000000018004bdb8     image.obj
 0002:0001edd8       _CTA3?AUCImgInstanceException@cimg_library@@ 000000018004bdd8     image.obj
 0002:0001edf8       _TI3?AUCImgArgumentException@cimg_library@@ 000000018004bdf8     image.obj
 0002:0001ee18       _CT??_R0?AUCImgException@cimg_library@@@8??0CImgException@cimg_library@@QEAA@AEBU01@@Z24 000000018004be18     image.obj
 0002:0001ee40       _CT??_R0?AUCImgInstanceException@cimg_library@@@8??0CImgInstanceException@cimg_library@@QEAA@AEBU01@@Z24 000000018004be40     image.obj
 0002:0001ee68       _TI3?AUCImgInstanceException@cimg_library@@ 000000018004be68     image.obj
 0002:0001ee88       _CT??_R0?AUCImgIOException@cimg_library@@@8??0CImgIOException@cimg_library@@QEAA@AEBU01@@Z24 000000018004be88     image.obj
 0002:0001eeb0       _CT??_R0?AVexception@stdext@@@8??0exception@stdext@@QEAA@AEBV01@@Z16 000000018004beb0     image.obj
 0002:0001eed8       _CTA3?AUCImgIOException@cimg_library@@ 000000018004bed8     image.obj
 0002:0001eef8       _CTA3?AUCImgArgumentException@cimg_library@@ 000000018004bef8     image.obj
 0002:0001ef18       _CT??_R0?AUCImgArgumentException@cimg_library@@@8??0CImgArgumentException@cimg_library@@QEAA@AEBU01@@Z24 000000018004bf18     image.obj
 0002:0001ef3c       __DELAY_IMPORT_DESCRIPTOR_node_exe 000000018004bf3c     node:node.exe
 0002:0001ef5c       __NULL_DELAY_IMPORT_DESCRIPTOR 000000018004bf5c     node:node.exe
 0002:0001f128       \177node_NULL_THUNK_DATA_DLN 000000018004c128     node:node.exe
 0002:0001fed8       \177node_NULL_THUNK_DATA_DLB 000000018004ced8     node:node.exe
 0002:000200d8       __IMPORT_DESCRIPTOR_KERNEL32 000000018004d0d8     kernel32:KERNEL32.dll
 0002:000200ec       __IMPORT_DESCRIPTOR_SHELL32 000000018004d0ec     shell32:SHELL32.dll
 0002:00020100       __NULL_IMPORT_DESCRIPTOR   000000018004d100     kernel32:KERNEL32.dll
 0003:00000000       _iob                       000000018004e000     LIBCMT:_file.obj
 0003:00000430       _fltused                   000000018004e430     LIBCMT:fpinit.obj
 0003:00000434       _ldused                    000000018004e434     LIBCMT:fpinit.obj
 0003:00000438       __security_cookie          000000018004e438     LIBCMT:gs_cookie.obj
 0003:00000440       __security_cookie_complement 000000018004e440     LIBCMT:gs_cookie.obj
 0003:00000448       __isa_available            000000018004e448     LIBCMT:cpu_disp.obj
 0003:0000044c       __isa_enabled              000000018004e44c     LIBCMT:cpu_disp.obj
 0003:00000450       __abort_behavior           000000018004e450     LIBCMT:abort.obj
 0003:00000458       __nullstring               000000018004e458     LIBCMT:output.obj
 0003:00000460       __wnullstring              000000018004e460     LIBCMT:output.obj
 0003:00000820       __badioinfo                000000018004e820     LIBCMT:ioinit.obj
 0003:00000878       __flsindex                 000000018004e878     LIBCMT:tidtable.obj
 0003:00000880       _mbctype                   000000018004e880     LIBCMT:mbctype.obj
 0003:00000990       _mbcasemap                 000000018004e990     LIBCMT:mbctype.obj
 0003:00000a90       __initialmbcinfo           000000018004ea90     LIBCMT:mbctype.obj
 0003:00000db0       __ptmbcinfo                000000018004edb0     LIBCMT:mbctype.obj
 0003:00000db8       __mb_cur_max               000000018004edb8     LIBCMT:nlsdata.obj
 0003:00000dbc       __wclocalestr              000000018004edbc     LIBCMT:nlsdata.obj
 0003:00000dc0       __lc_time_c                000000018004edc0     LIBCMT:nlsdata.obj
 0003:00001080       __ptlocinfo                000000018004f080     LIBCMT:nlsdata.obj
 0003:00001090       __initiallocinfo           000000018004f090     LIBCMT:nlsdata.obj
 0003:000011e8       __globallocalestatus       000000018004f1e8     LIBCMT:glstatus.obj
 0003:00001200       _cfltcvt_tab               000000018004f200     LIBCMT:cmiscdat.obj
 0003:00001420       _matherr_flag              000000018004f420     LIBCMT:matherr.obj
 0003:00001430       __lconv_c                  000000018004f430     LIBCMT:lconv.obj
 0003:000014c8       __lconv_static_decimal     000000018004f4c8     LIBCMT:lconv.obj
 0003:000014cc       __lconv_static_W_decimal   000000018004f4cc     LIBCMT:lconv.obj
 0003:000014d0       __lconv                    000000018004f4d0     LIBCMT:lconv.obj
 0003:000014d8       _pctype                    000000018004f4d8     LIBCMT:ctype.obj
 0003:000014e0       _pwctype                   000000018004f4e0     LIBCMT:ctype.obj
 0003:000014f0       _d_inf                     000000018004f4f0     LIBCMT:util.obj
 0003:000014f8       _d_ind                     000000018004f4f8     LIBCMT:util.obj
 0003:00001500       _d_max                     000000018004f500     LIBCMT:util.obj
 0003:00001508       _d_min                     000000018004f508     LIBCMT:util.obj
 0003:00001510       _d_mzero                   000000018004f510     LIBCMT:util.obj
 0003:00001550       _confh                     000000018004f550     LIBCMT:initcon.obj
 0003:00001560       _lookuptrailbytes          000000018004f560     LIBCMT:read.obj
 0003:00001660       _pow10pos                  000000018004f660     LIBCMT:constpow.obj
 0003:000017c0       _pow10neg                  000000018004f7c0     LIBCMT:constpow.obj
 0003:00001920       _HUGE                      000000018004f920     LIBCMT:huge.obj
 0003:00001970       __pfnDliNotifyHook2        000000018004f970     win_delay_load_hook.obj
 0003:000019c0       ??_R0?AVbad_alloc@std@@@8  000000018004f9c0     libcpmt:xthrow.obj
 0003:000019e8       ??_R0?AVexception@std@@@8  000000018004f9e8     libcpmt:xthrow.obj
 0003:00001a10       ??_R0?AVlogic_error@std@@@8 000000018004fa10     libcpmt:xthrow.obj
 0003:00001a38       ??_R0?AVlength_error@std@@@8 000000018004fa38     libcpmt:xthrow.obj
 0003:00001a60       ??_R0?AVout_of_range@std@@@8 000000018004fa60     libcpmt:xthrow.obj
 0003:00001a88       ??_R0?AVtype_info@@@8      000000018004fa88     LIBCMT:typinfo.obj
 0003:00001aa8       ??_R0?AVbad_exception@std@@@8 000000018004faa8     LIBCMT:frame.obj
 0003:00001ad0       ??_R0?AUCImgIOException@cimg_library@@@8 000000018004fad0     image.obj
 0003:00001b08       ??_R0?AUCImgInstanceException@cimg_library@@@8 000000018004fb08     image.obj
 0003:00001b48       ??_R0?AUCImgException@cimg_library@@@8 000000018004fb48     image.obj
 0003:00001b80       ??_R0?AVexception@stdext@@@8 000000018004fb80     image.obj
 0003:00001ba8       ??_R0?AUCImgArgumentException@cimg_library@@@8 000000018004fba8     image.obj
 0003:00001be8       __imp_node_module_register 000000018004fbe8     node:node.exe
 0003:00001bf0       __imp_?Data@Buffer@node@@YAPEADV?$Local@VObject@v8@@@v8@@@Z 000000018004fbf0     node:node.exe
 0003:00001bf8       __imp_?Copy@Buffer@node@@YA?AV?$MaybeLocal@VObject@v8@@@v8@@PEAVIsolate@4@PEBD_K@Z 000000018004fbf8     node:node.exe
 0003:00001c00       __imp_uv_default_loop      000000018004fc00     node:node.exe
 0003:00001c08       __imp_?New@Signature@v8@@SA?AV?$Local@VSignature@v8@@@2@PEAVIsolate@2@V?$Local@VFunctionTemplate@v8@@@2@@Z 000000018004fc08     node:node.exe
 0003:00001c10       __imp_?ToLocalEmpty@V8@v8@@CAXXZ 000000018004fc10     node:node.exe
 0003:00001c18       __imp_?ClearWeak@V8@v8@@CAPEAXPEAPEAVObject@internal@2@@Z 000000018004fc18     node:node.exe
 0003:00001c20       __imp_?MakeWeak@V8@v8@@CAXPEAPEAVObject@internal@2@PEAXP6AXAEBV?$WeakCallbackInfo@X@2@@ZW4WeakCallbackType@2@@Z 000000018004fc20     node:node.exe
 0003:00001c28       __imp_?DisposeGlobal@V8@v8@@CAXPEAPEAVObject@internal@2@@Z 000000018004fc28     node:node.exe
 0003:00001c30       __imp_?GlobalizeReference@V8@v8@@CAPEAPEAVObject@internal@2@PEAVIsolate@42@PEAPEAV342@@Z 000000018004fc30     node:node.exe
 0003:00001c38       __imp_?Escape@EscapableHandleScope@v8@@AEAAPEAPEAVObject@internal@2@PEAPEAV342@@Z 000000018004fc38     node:node.exe
 0003:00001c40       __imp_??0EscapableHandleScope@v8@@QEAA@PEAVIsolate@1@@Z 000000018004fc40     node:node.exe
 0003:00001c48       __imp_?NumberValue@Value@v8@@QEBANXZ 000000018004fc48     node:node.exe
 0003:00001c50       __imp_?BooleanValue@Value@v8@@QEBA_NXZ 000000018004fc50     node:node.exe
 0003:00001c58       __imp_?ToInt32@Value@v8@@QEBA?AV?$MaybeLocal@VInt32@v8@@@2@V?$Local@VContext@v8@@@2@@Z 000000018004fc58     node:node.exe
 0003:00001c60       __imp_?SetClassName@FunctionTemplate@v8@@QEAAXV?$Local@VString@v8@@@2@@Z 000000018004fc60     node:node.exe
 0003:00001c68       __imp_?PrototypeTemplate@FunctionTemplate@v8@@QEAA?AV?$Local@VObjectTemplate@v8@@@2@XZ 000000018004fc68     node:node.exe
 0003:00001c70       __imp_?InstanceTemplate@FunctionTemplate@v8@@QEAA?AV?$Local@VObjectTemplate@v8@@@2@XZ 000000018004fc70     node:node.exe
 0003:00001c78       __imp_?GetFunction@FunctionTemplate@v8@@QEAA?AV?$Local@VFunction@v8@@@2@XZ 000000018004fc78     node:node.exe
 0003:00001c80       __imp_?New@FunctionTemplate@v8@@SA?AV?$Local@VFunctionTemplate@v8@@@2@PEAVIsolate@2@P6AXAEBV?$FunctionCallbackInfo@VValue@v8@@@2@@ZV?$Local@VValue@v8@@@2@V?$Local@VSignature@v8@@@2@H@Z 000000018004fc80     node:node.exe
 0003:00001c88       __imp_?NewFromUtf8@String@v8@@SA?AV?$MaybeLocal@VString@v8@@@2@PEAVIsolate@2@PEBDW4NewStringType@2@H@Z 000000018004fc88     node:node.exe
 0003:00001c90       __imp_?New@Array@v8@@SA?AV?$Local@VArray@v8@@@2@PEAVIsolate@2@H@Z 000000018004fc90     node:node.exe
 0003:00001c98       __imp_?CreateHandle@HandleScope@v8@@KAPEAPEAVObject@internal@2@PEAVIsolate@42@PEAV342@@Z 000000018004fc98     node:node.exe
 0003:00001ca0       __imp_?CreateHandle@HandleScope@v8@@CAPEAPEAVObject@internal@2@PEAVHeapObject@42@PEAV342@@Z 000000018004fca0     node:node.exe
 0003:00001ca8       __imp_??1HandleScope@v8@@QEAA@XZ 000000018004fca8     node:node.exe
 0003:00001cb0       __imp_??0HandleScope@v8@@QEAA@PEAVIsolate@1@@Z 000000018004fcb0     node:node.exe
 0003:00001cb8       __imp_?New@Number@v8@@SA?AV?$Local@VNumber@v8@@@2@PEAVIsolate@2@N@Z 000000018004fcb8     node:node.exe
 0003:00001cc0       __imp_?Value@Number@v8@@QEBANXZ 000000018004fcc0     node:node.exe
 0003:00001cc8       __imp_?SlowGetAlignedPointerFromInternalField@Object@v8@@AEAAPEAXH@Z 000000018004fcc8     node:node.exe
 0003:00001cd0       __imp_?SlowGetInternalField@Object@v8@@AEAA?AV?$Local@VValue@v8@@@2@H@Z 000000018004fcd0     node:node.exe
 0003:00001cd8       __imp_?New@Object@v8@@SA?AV?$Local@VObject@v8@@@2@PEAVIsolate@2@@Z 000000018004fcd8     node:node.exe
 0003:00001ce0       __imp_?SetAlignedPointerInInternalField@Object@v8@@QEAAXHPEAX@Z 000000018004fce0     node:node.exe
 0003:00001ce8       __imp_?SetInternalField@Object@v8@@QEAAXHV?$Local@VValue@v8@@@2@@Z 000000018004fce8     node:node.exe
 0003:00001cf0       __imp_?InternalFieldCount@Object@v8@@QEAAHXZ 000000018004fcf0     node:node.exe
 0003:00001cf8       __imp_?Set@Object@v8@@QEAA_NV?$Local@VValue@v8@@@2@0@Z 000000018004fcf8     node:node.exe
 0003:00001d00       __imp_?Set@Object@v8@@QEAA_NIV?$Local@VValue@v8@@@2@@Z 000000018004fd00     node:node.exe
 0003:00001d08       __imp_?Set@Object@v8@@QEAA?AV?$Maybe@_N@2@V?$Local@VContext@v8@@@2@IV?$Local@VValue@v8@@@2@@Z 000000018004fd08     node:node.exe
 0003:00001d10       __imp_?Set@Template@v8@@QEAAXV?$Local@VName@v8@@@2@V?$Local@VData@v8@@@2@W4PropertyAttribute@2@@Z 000000018004fd10     node:node.exe
 0003:00001d18       __imp_?SetInternalFieldCount@ObjectTemplate@v8@@QEAAXH@Z 000000018004fd18     node:node.exe
 0003:00001d20       __imp_?NewInstance@ObjectTemplate@v8@@QEAA?AV?$MaybeLocal@VObject@v8@@@2@V?$Local@VContext@v8@@@2@@Z 000000018004fd20     node:node.exe
 0003:00001d28       __imp_?New@ObjectTemplate@v8@@SA?AV?$Local@VObjectTemplate@v8@@@2@PEAVIsolate@2@V?$Local@VFunctionTemplate@v8@@@2@@Z 000000018004fd28     node:node.exe
 0003:00001d30       __imp_?Value@Integer@v8@@QEBA_JXZ 000000018004fd30     node:node.exe
 0003:00001d38       __imp_?New@Integer@v8@@SA?AV?$Local@VInteger@v8@@@2@PEAVIsolate@2@H@Z 000000018004fd38     node:node.exe
 0003:00001d40       __imp_?GetCurrentContext@Isolate@v8@@QEAA?AV?$Local@VContext@v8@@@2@XZ 000000018004fd40     node:node.exe
 0003:00001d48       __imp_?GetCurrent@Isolate@v8@@SAPEAV12@XZ 000000018004fd48     node:node.exe
 0003:00001d50       __imp_?Value@External@v8@@QEBAPEAXXZ 000000018004fd50     node:node.exe
 0003:00001d58       __imp_?New@External@v8@@SA?AV?$Local@VExternal@v8@@@2@PEAVIsolate@2@PEAX@Z 000000018004fd58     node:node.exe
 0003:00001d60       __imp_uv_queue_work        000000018004fd60     node:node.exe
 0003:00001d68       __imp_??1EscapableHandleScope@v8@@QEAA@XZ 000000018004fd68     node:node.exe
 0003:00001d70       __imp_?MakeCallback@node@@YA?AV?$Local@VValue@v8@@@v8@@PEAVIsolate@3@V?$Local@VObject@v8@@@3@V?$Local@VFunction@v8@@@3@HPEAV23@@Z 000000018004fd70     node:node.exe
 0003:00001d78       __imp_?Global@Context@v8@@QEAA?AV?$Local@VObject@v8@@@2@XZ 000000018004fd78     node:node.exe
 0003:00001d80       __imp_?Error@Exception@v8@@SA?AV?$Local@VValue@v8@@@2@V?$Local@VString@v8@@@2@@Z 000000018004fd80     node:node.exe
 0003:00001d88       __imp_?Get@Object@v8@@QEAA?AV?$Local@VValue@v8@@@2@I@Z 000000018004fd88     node:node.exe
 0003:00001d90       \177node_NULL_THUNK_DATA_DLA 000000018004fd90     node:node.exe
 0003:00001da0       __hmod__node_exe           000000018004fda0     node:node.exe
 0003:00001db0       _cflush                    000000018004fdb0     LIBCMT:_file.obj
 0003:00001dc0       _aenvptr                   000000018004fdc0     LIBCMT:dllcrt0.obj
 0003:00001dc8       _wenvptr                   000000018004fdc8     LIBCMT:dllcrt0.obj
 0003:00001dd0       __fastflag                 000000018004fdd0     LIBCMT:fpinit.obj
 0003:00002354       __favor                    0000000180050354     LIBCMT:cpu_disp.obj
 0003:00002358       ?__pInconsistency@@3P6AXXZEA 0000000180050358     LIBCMT:hooks.obj
 0003:00002360       _C_Exit_Done               0000000180050360     LIBCMT:crt0dat.obj
 0003:00002364       __argc                     0000000180050364     LIBCMT:crt0dat.obj
 0003:00002368       __argv                     0000000180050368     LIBCMT:crt0dat.obj
 0003:00002370       __wargv                    0000000180050370     LIBCMT:crt0dat.obj
 0003:00002378       _environ                   0000000180050378     LIBCMT:crt0dat.obj
 0003:00002380       _wenviron                  0000000180050380     LIBCMT:crt0dat.obj
 0003:00002388       _pgmptr                    0000000180050388     LIBCMT:crt0dat.obj
 0003:00002390       _wpgmptr                   0000000180050390     LIBCMT:crt0dat.obj
 0003:00002398       _umaskval                  0000000180050398     LIBCMT:crt0dat.obj
 0003:0000239c       _exitflag                  000000018005039c     LIBCMT:crt0dat.obj
 0003:000023a0       _C_Termination_Done        00000001800503a0     LIBCMT:crt0dat.obj
 0003:000023a8       __winitenv                 00000001800503a8     LIBCMT:crt0dat.obj
 0003:000023b0       __initenv                  00000001800503b0     LIBCMT:crt0dat.obj
 0003:000023b8       _maxwait                   00000001800503b8     LIBCMT:crtheap.obj
 0003:000023c0       __pPurecall                00000001800503c0     LIBCMT:inithelp.obj
 0003:000023c8       ?_pnhHeap@@3P6AH_K@ZEA     00000001800503c8     LIBCMT:handler.obj
 0003:000023d0       __pInvalidArgHandler       00000001800503d0     LIBCMT:invarg.obj
 0003:00002610       __error_mode               0000000180050610     LIBCMT:errmode.obj
 0003:00002670       __app_type                 0000000180050670     LIBCMT:crt0msg.obj
 0003:00002ca8       _stdbuf                    0000000180050ca8     LIBCMT:_sftbuf.obj
 0003:00002cc0       __pioinfo                  0000000180050cc0     LIBCMT:ioinit.obj
 0003:00002ed0       __mbcodepage               0000000180050ed0     LIBCMT:mbctype.obj
 0003:00002ed4       __ismbcodepage             0000000180050ed4     LIBCMT:mbctype.obj
 0003:00002ed8       __mbulinfo                 0000000180050ed8     LIBCMT:mbctype.obj
 0003:00002ee8       __mblocalename             0000000180050ee8     LIBCMT:mbctype.obj
 0003:00002ef4       __locale_changed           0000000180050ef4     LIBCMT:wsetloca.obj
 0003:00002ef8       _crtheap                   0000000180050ef8     LIBCMT:heapinit.obj
 0003:00003008       ?g_OutOfMemoryExceptionCallback@@3P6APEAXXZEA 0000000180051008     LIBCMT:frame.obj
 0003:00003020       _newmode                   0000000180051020     LIBCMT:_newmode.obj
 0003:00003030       _commode                   0000000180051030     LIBCMT:ncommode.obj
 0003:00003038       ?m_pGetParameter@UnDecorator@@0P6APEADJ@ZEA 0000000180051038     LIBCMT:undname.obj
 0003:00003040       ?pArgList@UnDecorator@@0PEAVReplicator@@EA 0000000180051040     LIBCMT:undname.obj
 0003:00003048       ?pZNameList@UnDecorator@@0PEAVReplicator@@EA 0000000180051048     LIBCMT:undname.obj
 0003:00003050       ?pTemplateArgList@UnDecorator@@0PEAVReplicator@@EA 0000000180051050     LIBCMT:undname.obj
 0003:00003058       ?gName@UnDecorator@@0PEBDEB 0000000180051058     LIBCMT:undname.obj
 0003:00003060       ?name@UnDecorator@@0PEBDEB 0000000180051060     LIBCMT:undname.obj
 0003:00003068       ?outputString@UnDecorator@@0PEADEA 0000000180051068     LIBCMT:undname.obj
 0003:00003070       ?maxStringLength@UnDecorator@@0HA 0000000180051070     LIBCMT:undname.obj
 0003:00003074       ?disableFlags@UnDecorator@@0KA 0000000180051074     LIBCMT:undname.obj
 0003:00003078       ?fExplicitTemplateParams@UnDecorator@@0_NA 0000000180051078     LIBCMT:undname.obj
 0003:00003079       ?fGetTemplateArgumentList@UnDecorator@@0_NA 0000000180051079     LIBCMT:undname.obj
 0003:000030a8       __lconv_static_null        00000001800510a8     LIBCMT:lconv.obj
 0003:000030ac       __lconv_static_W_null      00000001800510ac     LIBCMT:lconv.obj
 0003:000030b0       _outputformat              00000001800510b0     LIBCMT:outputformat.obj
 0003:000030b4       _fmode                     00000001800510b4     LIBCMT:txtmode.obj
 0003:000030b8       __pfnDliFailureHook2       00000001800510b8     DelayImp:delayhk1.obj
 0003:000030c0       ?res@?1??output@cimg@cimg_library@@YAPEAU_iobuf@@PEAU4@@Z@4PEAU4@EA 00000001800510c0     image.obj
 0003:000030c8       ??_B?1??strbuffersize@cimg@cimg_library@@YAPEBDK@Z@51 00000001800510c8     image.obj
 0003:000030cc       ??_B?1??medcon_path@cimg@cimg_library@@YAPEBDQEBD_N@Z@51 00000001800510cc     image.obj
 0003:000030d0       ??_B?1??programfiles_path@cimg@cimg_library@@YAPEBDQEBD_N@Z@51 00000001800510d0     image.obj
 0003:000030d4       ??_B?1??graphicsmagick_path@cimg@cimg_library@@YAPEBDQEBD_N@Z@51 00000001800510d4     image.obj
 0003:000030e0       ?val@?1??Mutex_attr@cimg@cimg_library@@YAAEAUMutex_info@23@XZ@4U423@A 00000001800510e0     image.obj
 0003:000031e0       ?s_path@?1??imagemagick_path@cimg@cimg_library@@YAPEBDQEBD_N@Z@4U?$CImg@D@3@A 00000001800511e0     image.obj
 0003:00003200       ?s_path@?1??programfiles_path@cimg@cimg_library@@YAPEBDQEBD_N@Z@4U?$CImg@D@3@A 0000000180051200     image.obj
 0003:00003220       ??_B?1??Mutex_attr@cimg@cimg_library@@YAAEAUMutex_info@12@XZ@51 0000000180051220     image.obj
 0003:00003224       ?mode@?1??_exception_mode@cimg@cimg_library@@YAAEAII_N@Z@4IA 0000000180051224     image.obj
 0003:00003228       ?res@?1??strbuffersize@cimg@cimg_library@@YAPEBDK@Z@4U?$CImg@D@3@A 0000000180051228     image.obj
 0003:00003248       ??_B?1??temporary_path@cimg@cimg_library@@YAPEBDQEBD_N@Z@51 0000000180051248     image.obj
 0003:00003250       ?randomid@?1??filenamerand@cimg@cimg_library@@YAPEBDXZ@4PADA 0000000180051250     image.obj
 0003:00003260       ?s_path@?1??temporary_path@cimg@cimg_library@@YAPEBDQEBD_N@Z@4U?$CImg@D@3@A 0000000180051260     image.obj
 0003:00003280       ?s_path@?1??graphicsmagick_path@cimg@cimg_library@@YAPEBDQEBD_N@Z@4U?$CImg@D@3@A 0000000180051280     image.obj
 0003:000032a0       ??_B?1??imagemagick_path@cimg@cimg_library@@YAPEBDQEBD_N@Z@51 00000001800512a0     image.obj
 0003:000032a4       ??_B?1??output@cimg@cimg_library@@YAPEAU_iobuf@@PEAU3@@Z@51 00000001800512a4     image.obj
 0003:000032a8       ?s_path@?1??medcon_path@cimg@cimg_library@@YAPEBDQEBD_N@Z@4U?$CImg@D@3@A 00000001800512a8     image.obj
 0003:000032c8       ?id@?$num_put@_WV?$back_insert_iterator@V?$basic_string@_WU?$char_traits@_W@std@@V?$allocator@_W@2@@std@@@std@@@std@@2V0locale@2@A 00000001800512c8     init.obj
 0003:000032d0       ?_System_object@?$_Error_objects@H@std@@2V_System_error_category@2@A 00000001800512d0     init.obj
 0003:000032d8       ?id@?$numpunct@_W@std@@2V0locale@2@A 00000001800512d8     init.obj
 0003:000032e0       ?id@?$num_put@DV?$back_insert_iterator@V?$basic_string@DU?$char_traits@D@std@@V?$allocator@D@2@@std@@@std@@@std@@2V0locale@2@A 00000001800512e0     init.obj
 0003:000032e8       ?_Iostream_object@?$_Error_objects@H@std@@2V_Iostream_error_category@2@A 00000001800512e8     init.obj
 0003:000032f8       ?constructor@LwipImage@@0V?$Persistent@VFunctionTemplate@v8@@V?$NonCopyablePersistentTraits@VFunctionTemplate@v8@@@2@@Nan@@A 00000001800512f8     image.obj
 0003:00003318       ?_Generic_object@?$_Error_objects@H@std@@2V_Generic_error_category@2@A 0000000180051318     init.obj
 0003:00003320       ?id@?$numpunct@D@std@@2V0locale@2@A 0000000180051320     init.obj
 0003:00003328       __fma3_is_available        0000000180051328     LIBCMT:fma3_available.obj
 0003:0000332c       __use_fma3_lib             000000018005132c     LIBCMT:fma3_available.obj
 0003:00003330       _debugger_hook_dummy       0000000180051330     <common>
 0003:00003340       encodedKERNEL32Functions   0000000180051340     <common>
 0003:00003448       _nhandle                   0000000180051448     <common>
 0003:00003450       __dyn_tls_init_callback    0000000180051450     <common>
 0003:00003458       __onexitend                0000000180051458     <common>
 0003:00003460       __onexitbegin              0000000180051460     <common>
 0003:00003468       __mbctype_initialized      0000000180051468     <common>
 0003:0000346c       __env_initialized          000000018005146c     <common>
 0003:00003470       _acmdln                    0000000180051470     <common>
 0003:00003478       __piob                     0000000180051478     <common>
 0003:00003480       _nstream                   0000000180051480     <common>
 0003:000034a0       _bufin                     00000001800514a0     <common>

 entry point at        0001:00013ea0

 Static symbols

 0000:fffa9000       .debug$S                   0000000180000000     kernel32:KERNEL32.dll
 0000:fffa9000       .debug$S                   0000000180000000     kernel32:KERNEL32.dll
 0000:fffa9000       .debug$S                   0000000180000000     kernel32:KERNEL32.dll
 0000:fffa9000       .debug$S                   0000000180000000     kernel32:KERNEL32.dll
 0000:fffa9000       .debug$S                   0000000180000000     kernel32:KERNEL32.dll
 0000:fffa9000       .debug$S                   0000000180000000     kernel32:KERNEL32.dll
 0000:fffa9000       .debug$S                   0000000180000000     kernel32:KERNEL32.dll
 0000:fffa9000       .debug$S                   0000000180000000     kernel32:KERNEL32.dll
 0000:fffa9000       .debug$S                   0000000180000000     kernel32:KERNEL32.dll
 0000:fffa9000       .debug$S                   0000000180000000     kernel32:KERNEL32.dll
 0000:fffa9000       .debug$S                   0000000180000000     kernel32:KERNEL32.dll
 0000:fffa9000       .debug$S                   0000000180000000     kernel32:KERNEL32.dll
 0000:fffa9000       .debug$S                   0000000180000000     kernel32:KERNEL32.dll
 0000:fffa9000       .debug$S                   0000000180000000     kernel32:KERNEL32.dll
 0000:fffa9000       .debug$S                   0000000180000000     kernel32:KERNEL32.dll
 0000:fffa9000       .debug$S                   0000000180000000     kernel32:KERNEL32.dll
 0000:fffa9000       .debug$S                   0000000180000000     kernel32:KERNEL32.dll
 0000:fffa9000       .debug$S                   0000000180000000     kernel32:KERNEL32.dll
 0000:fffa9000       .debug$S                   0000000180000000     kernel32:KERNEL32.dll
 0000:fffa9000       .debug$S                   0000000180000000     kernel32:KERNEL32.dll
 0000:fffa9000       .debug$S                   0000000180000000     kernel32:KERNEL32.dll
 0000:fffa9000       .debug$S                   0000000180000000     kernel32:KERNEL32.dll
 0000:fffa9000       .debug$S                   0000000180000000     kernel32:KERNEL32.dll
 0000:fffa9000       .debug$S                   0000000180000000     kernel32:KERNEL32.dll
 0000:fffa9000       .debug$S                   0000000180000000     kernel32:KERNEL32.dll
 0000:fffa9000       .debug$S                   0000000180000000     kernel32:KERNEL32.dll
 0000:fffa9000       .debug$S                   0000000180000000     kernel32:KERNEL32.dll
 0000:fffa9000       .debug$S                   0000000180000000     kernel32:KERNEL32.dll
 0000:fffa9000       .debug$S                   0000000180000000     kernel32:KERNEL32.dll
 0000:fffa9000       .debug$S                   0000000180000000     kernel32:KERNEL32.dll
 0000:fffa9000       .debug$S                   0000000180000000     kernel32:KERNEL32.dll
 0000:fffa9000       .debug$S                   0000000180000000     kernel32:KERNEL32.dll
 0000:fffa9000       .debug$S                   0000000180000000     kernel32:KERNEL32.dll
 0000:fffa9000       .debug$S                   0000000180000000     kernel32:KERNEL32.dll
 0000:fffa9000       .debug$S                   0000000180000000     kernel32:KERNEL32.dll
 0000:fffa9000       .debug$S                   0000000180000000     kernel32:KERNEL32.dll
 0000:fffa9000       .debug$S                   0000000180000000     kernel32:KERNEL32.dll
 0000:fffa9000       .debug$S                   0000000180000000     kernel32:KERNEL32.dll
 0000:fffa9000       .debug$S                   0000000180000000     kernel32:KERNEL32.dll
 0000:fffa9000       .debug$S                   0000000180000000     kernel32:KERNEL32.dll
 0000:fffa9000       .debug$S                   0000000180000000     kernel32:KERNEL32.dll
 0000:fffa9000       .debug$S                   0000000180000000     kernel32:KERNEL32.dll
 0000:fffa9000       .debug$S                   0000000180000000     kernel32:KERNEL32.dll
 0000:fffa9000       .debug$S                   0000000180000000     kernel32:KERNEL32.dll
 0000:fffa9000       .debug$S                   0000000180000000     kernel32:KERNEL32.dll
 0000:fffa9000       .debug$S                   0000000180000000     kernel32:KERNEL32.dll
 0000:fffa9000       .debug$S                   0000000180000000     kernel32:KERNEL32.dll
 0000:fffa9000       .debug$S                   0000000180000000     kernel32:KERNEL32.dll
 0000:fffa9000       .debug$S                   0000000180000000     kernel32:KERNEL32.dll
 0000:fffa9000       .debug$S                   0000000180000000     kernel32:KERNEL32.dll
 0000:fffa9000       .debug$S                   0000000180000000     kernel32:KERNEL32.dll
 0000:fffa9000       .debug$S                   0000000180000000     kernel32:KERNEL32.dll
 0000:fffa9000       .debug$S                   0000000180000000     kernel32:KERNEL32.dll
 0000:fffa9000       .debug$S                   0000000180000000     kernel32:KERNEL32.dll
 0000:fffa9000       .debug$S                   0000000180000000     kernel32:KERNEL32.dll
 0000:fffa9000       .debug$S                   0000000180000000     kernel32:KERNEL32.dll
 0000:fffa9000       .debug$S                   0000000180000000     kernel32:KERNEL32.dll
 0000:fffa9000       .debug$S                   0000000180000000     kernel32:KERNEL32.dll
 0000:fffa9000       .debug$S                   0000000180000000     kernel32:KERNEL32.dll
 0000:fffa9000       .debug$S                   0000000180000000     kernel32:KERNEL32.dll
 0000:fffa9000       .debug$S                   0000000180000000     kernel32:KERNEL32.dll
 0000:fffa9000       .debug$S                   0000000180000000     kernel32:KERNEL32.dll
 0000:fffa9000       .debug$S                   0000000180000000     kernel32:KERNEL32.dll
 0000:fffa9000       .debug$S                   0000000180000000     kernel32:KERNEL32.dll
 0000:fffa9000       .debug$S                   0000000180000000     kernel32:KERNEL32.dll
 0000:fffa9000       .debug$S                   0000000180000000     kernel32:KERNEL32.dll
 0000:fffa9000       .debug$S                   0000000180000000     kernel32:KERNEL32.dll
 0000:fffa9000       .debug$S                   0000000180000000     kernel32:KERNEL32.dll
 0000:fffa9000       .debug$S                   0000000180000000     kernel32:KERNEL32.dll
 0000:fffa9000       .debug$S                   0000000180000000     kernel32:KERNEL32.dll
 0000:fffa9000       .debug$S                   0000000180000000     kernel32:KERNEL32.dll
 0000:fffa9000       .debug$S                   0000000180000000     kernel32:KERNEL32.dll
 0000:fffa9000       .debug$S                   0000000180000000     kernel32:KERNEL32.dll
 0000:fffa9000       .debug$S                   0000000180000000     kernel32:KERNEL32.dll
 0000:fffa9000       .debug$S                   0000000180000000     kernel32:KERNEL32.dll
 0000:fffa9000       .debug$S                   0000000180000000     kernel32:KERNEL32.dll
 0000:fffa9000       .debug$S                   0000000180000000     kernel32:KERNEL32.dll
 0000:fffa9000       .debug$S                   0000000180000000     kernel32:KERNEL32.dll
 0000:fffa9000       .debug$S                   0000000180000000     kernel32:KERNEL32.dll
 0000:fffa9000       .debug$S                   0000000180000000     kernel32:KERNEL32.dll
 0000:fffa9000       .debug$S                   0000000180000000     kernel32:KERNEL32.dll
 0000:fffa9000       .debug$S                   0000000180000000     kernel32:KERNEL32.dll
 0000:fffa9000       .debug$S                   0000000180000000     kernel32:KERNEL32.dll
 0000:fffa9000       .debug$S                   0000000180000000     kernel32:KERNEL32.dll
 0000:fffa9000       .debug$S                   0000000180000000     kernel32:KERNEL32.dll
 0000:fffa9000       .debug$S                   0000000180000000     kernel32:KERNEL32.dll
 0000:fffa9000       .debug$S                   0000000180000000     kernel32:KERNEL32.dll
 0000:fffa9000       .debug$S                   0000000180000000     kernel32:KERNEL32.dll
 0000:fffa9000       .debug$S                   0000000180000000     kernel32:KERNEL32.dll
 0000:fffa9000       .debug$S                   0000000180000000     kernel32:KERNEL32.dll
 0000:fffa9000       .debug$S                   0000000180000000     kernel32:KERNEL32.dll
 0000:fffa9000       .debug$S                   0000000180000000     kernel32:KERNEL32.dll
 0000:fffa9000       .debug$S                   0000000180000000     shell32:SHELL32.dll
 0000:fffa9000       .debug$S                   0000000180000000     node:node.exe
 0000:fffa9000       .debug$S                   0000000180000000     node:node.exe
 0000:fffa9000       .debug$S                   0000000180000000     node:node.exe
 0000:fffa9000       .debug$S                   0000000180000000     node:node.exe
 0000:fffa9000       .debug$S                   0000000180000000     node:node.exe
 0000:fffa9000       .debug$S                   0000000180000000     node:node.exe
 0000:fffa9000       .debug$S                   0000000180000000     node:node.exe
 0000:fffa9000       .debug$S                   0000000180000000     node:node.exe
 0000:fffa9000       .debug$S                   0000000180000000     node:node.exe
 0000:fffa9000       .debug$S                   0000000180000000     node:node.exe
 0000:fffa9000       .debug$S                   0000000180000000     node:node.exe
 0000:fffa9000       .debug$S                   0000000180000000     node:node.exe
 0000:fffa9000       .debug$S                   0000000180000000     node:node.exe
 0000:fffa9000       .debug$S                   0000000180000000     node:node.exe
 0000:fffa9000       .debug$S                   0000000180000000     node:node.exe
 0000:fffa9000       .debug$S                   0000000180000000     node:node.exe
 0000:fffa9000       .debug$S                   0000000180000000     node:node.exe
 0000:fffa9000       .debug$S                   0000000180000000     node:node.exe
 0000:fffa9000       .debug$S                   0000000180000000     node:node.exe
 0000:fffa9000       .debug$S                   0000000180000000     node:node.exe
 0000:fffa9000       .debug$S                   0000000180000000     node:node.exe
 0000:fffa9000       .debug$S                   0000000180000000     node:node.exe
 0000:fffa9000       .debug$S                   0000000180000000     node:node.exe
 0000:fffa9000       .debug$S                   0000000180000000     node:node.exe
 0000:fffa9000       .debug$S                   0000000180000000     node:node.exe
 0000:fffa9000       .debug$S                   0000000180000000     node:node.exe
 0000:fffa9000       .debug$S                   0000000180000000     node:node.exe
 0000:fffa9000       .debug$S                   0000000180000000     node:node.exe
 0000:fffa9000       .debug$S                   0000000180000000     node:node.exe
 0000:fffa9000       .debug$S                   0000000180000000     node:node.exe
 0000:fffa9000       .debug$S                   0000000180000000     node:node.exe
 0000:fffa9000       .debug$S                   0000000180000000     node:node.exe
 0000:fffa9000       .debug$S                   0000000180000000     node:node.exe
 0000:fffa9000       .debug$S                   0000000180000000     node:node.exe
 0000:fffa9000       .debug$S                   0000000180000000     node:node.exe
 0000:fffa9000       .debug$S                   0000000180000000     node:node.exe
 0000:fffa9000       .debug$S                   0000000180000000     node:node.exe
 0000:fffa9000       .debug$S                   0000000180000000     node:node.exe
 0000:fffa9000       .debug$S                   0000000180000000     node:node.exe
 0000:fffa9000       .debug$S                   0000000180000000     node:node.exe
 0000:fffa9000       .debug$S                   0000000180000000     node:node.exe
 0000:fffa9000       .debug$S                   0000000180000000     node:node.exe
 0000:fffa9000       .debug$S                   0000000180000000     node:node.exe
 0000:fffa9000       .debug$S                   0000000180000000     node:node.exe
 0000:fffa9000       .debug$S                   0000000180000000     node:node.exe
 0000:fffa9000       .debug$S                   0000000180000000     node:node.exe
 0000:fffa9000       .debug$S                   0000000180000000     node:node.exe
 0000:fffa9000       .debug$S                   0000000180000000     node:node.exe
 0000:fffa9000       .debug$S                   0000000180000000     node:node.exe
 0000:fffa9000       .debug$S                   0000000180000000     node:node.exe
 0000:fffa9000       .debug$S                   0000000180000000     node:node.exe
 0000:fffa9000       .debug$S                   0000000180000000     node:node.exe
 0000:fffa9000       .debug$S                   0000000180000000     node:node.exe
 0000:fffa9000       .debug$S                   0000000180000000     node:node.exe
 0000:fffa9000       .debug$S                   0000000180000000     node:node.exe
 0000:fffa9000       .debug$S                   0000000180000000     node:node.exe
 0000:fffa9000       .debug$S                   0000000180000000     node:node.exe
 0000:fffa9000       .debug$S                   0000000180000000     node:node.exe
 0000:fffa9000       .debug$S                   0000000180000000     node:node.exe
 0000:fffa9000       .debug$S                   0000000180000000     node:node.exe
 0000:fffa9000       .debug$S                   0000000180000000     node:node.exe
 0001:00000000       ??__Epiecewise_construct@std@@YAXXZ 0000000180001000 f   * CIL library *:* CIL module *
 0001:00000010       ??__Eallocator_arg@std@@YAXXZ 0000000180001010 f   * CIL library *:* CIL module *
 0001:00000020       ??__Epiecewise_construct@std@@YAXXZ 0000000180001020 f   * CIL library *:* CIL module *
 0001:00000030       ??__Eallocator_arg@std@@YAXXZ 0000000180001030 f   * CIL library *:* CIL module *
 0001:00000040       ??__E?constructor@LwipImage@@0V?$Persistent@VFunctionTemplate@v8@@V?$NonCopyablePersistentTraits@VFunctionTemplate@v8@@@2@@Nan@@A@@YAXXZ 0000000180001040 f   * CIL library *:* CIL module *
 0001:00000060       ??__Epiecewise_construct@std@@YAXXZ 0000000180001060 f   * CIL library *:* CIL module *
 0001:00000070       ??__Eallocator_arg@std@@YAXXZ 0000000180001070 f   * CIL library *:* CIL module *
 0001:00000080       ??__Epiecewise_construct@std@@YAXXZ 0000000180001080 f   * CIL library *:* CIL module *
 0001:00000090       ??__Eallocator_arg@std@@YAXXZ 0000000180001090 f   * CIL library *:* CIL module *
 0001:000000a0       ??__Epiecewise_construct@std@@YAXXZ 00000001800010a0 f   * CIL library *:* CIL module *
 0001:000000b0       ??__Eallocator_arg@std@@YAXXZ 00000001800010b0 f   * CIL library *:* CIL module *
 0001:000000c0       ??__Epiecewise_construct@std@@YAXXZ 00000001800010c0 f   * CIL library *:* CIL module *
 0001:000000d0       ??__Eallocator_arg@std@@YAXXZ 00000001800010d0 f   * CIL library *:* CIL module *
 0001:000000e0       ??__Epiecewise_construct@std@@YAXXZ 00000001800010e0 f   * CIL library *:* CIL module *
 0001:000000f0       ??__Eallocator_arg@std@@YAXXZ 00000001800010f0 f   * CIL library *:* CIL module *
 0001:00000100       ??__Epiecewise_construct@std@@YAXXZ 0000000180001100 f   * CIL library *:* CIL module *
 0001:00000110       ??__Eallocator_arg@std@@YAXXZ 0000000180001110 f   * CIL library *:* CIL module *
 0001:00000120       ??__Epiecewise_construct@std@@YAXXZ 0000000180001120 f   * CIL library *:* CIL module *
 0001:00000130       ??__Eallocator_arg@std@@YAXXZ 0000000180001130 f   * CIL library *:* CIL module *
 0001:00000140       ??__Epiecewise_construct@std@@YAXXZ 0000000180001140 f   * CIL library *:* CIL module *
 0001:00000150       ??__Eallocator_arg@std@@YAXXZ 0000000180001150 f   * CIL library *:* CIL module *
 0001:00000160       ??__Epiecewise_construct@std@@YAXXZ 0000000180001160 f   * CIL library *:* CIL module *
 0001:00000170       ??__Eallocator_arg@std@@YAXXZ 0000000180001170 f   * CIL library *:* CIL module *
 0001:00000180       ??__Epiecewise_construct@std@@YAXXZ 0000000180001180 f   * CIL library *:* CIL module *
 0001:00000190       ??__Eallocator_arg@std@@YAXXZ 0000000180001190 f   * CIL library *:* CIL module *
 0001:000001a0       ??__Epiecewise_construct@std@@YAXXZ 00000001800011a0 f   * CIL library *:* CIL module *
 0001:000001b0       ??__Eallocator_arg@std@@YAXXZ 00000001800011b0 f   * CIL library *:* CIL module *
 0001:000001d0       _register_lwip_image       00000001800011d0 f   * CIL library *:* CIL module *
 0001:000009d0       ?FunctionCallbackWrapper@imp@Nan@@YAXAEBV?$FunctionCallbackInfo@VValue@v8@@@v8@@@Z 00000001800019d0 f   * CIL library *:* CIL module *
 0001:0000cdb0       $LN2410                    000000018000ddb0     * CIL library *:* CIL module *
 0001:00011900       load_exe_hook              0000000180012900 f   * CIL library *:* CIL module *
 0001:00011e20       $$000000                   0000000180012e20     LIBCMT:amdsecgs.obj
 0001:00011e50       $$000000                   0000000180012e50     LIBCMT:memcpy.obj
 0001:00011f40       MoveSmall                  0000000180012f40     LIBCMT:memcpy.obj
 0001:00013394       swprintf                   0000000180014394 f   LIBCMT:wassert.obj
 0001:000133c0       $$000000                   00000001800143c0     LIBCMT:strncpy.obj
 0001:00013ee0       __DllMainCRTStartup        0000000180014ee0 f   LIBCMT:dllcrt0.obj
 0001:00014000       $$000000                   0000000180015000     LIBCMT:strlen.obj
 0001:000152f4       _initterm                  00000001800162f4 f   LIBCMT:crt0dat.obj
 0001:000153a8       doexit                     00000001800163a8 f   LIBCMT:crt0dat.obj
 0001:0001590c       _call_matherr              000000018001690c f   LIBCMT:libm_error.obj
 0001:00015974       _exception_enabled         0000000180016974 f   LIBCMT:libm_error.obj
 0001:00017504       write_char                 0000000180018504 f   LIBCMT:outputs.obj
 0001:00017504       write_char                 0000000180018504 f   LIBCMT:outputs.obj
 0001:0001754c       write_multi_char           000000018001854c f   LIBCMT:outputs.obj
 0001:0001754c       write_multi_char           000000018001854c f   LIBCMT:outputs.obj
 0001:000175a0       write_string               00000001800185a0 f   LIBCMT:outputs.obj
 0001:000175a0       write_string               00000001800185a0 f   LIBCMT:outputs.obj
 0001:00017720       $$000000                   0000000180018720     LIBCMT:memset.obj
 0001:000178c5       MsetTab                    00000001800188c5     LIBCMT:memset.obj
 0001:00017b1c       flsall                     0000000180018b1c f   LIBCMT:fflush.obj
 0001:00018124       xtow_s                     0000000180019124 f   LIBCMT:xtows.obj
 0001:00019170       $$000000                   000000018001a170     LIBCMT:jmpuwind.obj
 0001:00019cb0       $$000000                   000000018001acb0     LIBCMT:strcmp.obj
 0001:0001a318       ?getSystemCP@@YAHH@Z       000000018001b318 f   LIBCMT:mbctype.obj
 0001:0001a398       ?setSBCS@@YAXPEAUthreadmbcinfostruct@@@Z 000000018001b398 f   LIBCMT:mbctype.obj
 0001:0001a428       ?setSBUpLow@@YAXPEAUthreadmbcinfostruct@@@Z 000000018001b428 f   LIBCMT:mbctype.obj
 0001:0001b078       parse_cmdline              000000018001c078 f   LIBCMT:stdargv.obj
 0001:0001bc7c       ?CatchIt@@YAXPEAUEHExceptionRecord@@PEA_KPEAU_CONTEXT@@PEAU_xDISPATCHER_CONTEXT@@PEBU_s_FuncInfo@@PEBU_s_HandlerType@@PEBU_s_CatchableType@@PEBU_s_TryBlockMapEntry@@H1EE@Z 000000018001cc7c f   LIBCMT:frame.obj
 0001:0001bd40       ?FindHandler@@YAXPEAUEHExceptionRecord@@PEA_KPEAU_CONTEXT@@PEAU_xDISPATCHER_CONTEXT@@PEBU_s_FuncInfo@@EH1@Z 000000018001cd40 f   LIBCMT:frame.obj
 0001:0001c1f4       ?FindHandlerForForeignException@@YAXPEAUEHExceptionRecord@@PEA_KPEAU_CONTEXT@@PEAU_xDISPATCHER_CONTEXT@@PEBU_s_FuncInfo@@HH1@Z 000000018001d1f4 f   LIBCMT:frame.obj
 0001:0001c45c       ?IsInExceptionSpec@@YAEPEAUEHExceptionRecord@@PEBU_s_ESTypeList@@@Z 000000018001d45c f   LIBCMT:frame.obj
 0001:0001d524       _cftoe2_l                  000000018001e524 f   LIBCMT:cvt.obj
 0001:0001d818       _cftof2_l                  000000018001e818 f   LIBCMT:cvt.obj
 0001:0001e260       $$000000                   000000018001f260     LIBCMT:fpsr.obj
 0001:0001ff08       write_char                 0000000180020f08 f   LIBCMT:woutput.obj
 0001:0001ff40       write_multi_char           0000000180020f40 f   LIBCMT:woutput.obj
 0001:0001ff94       write_string               0000000180020f94 f   LIBCMT:woutput.obj
 0001:00020a38       ?__crtCompareStringA_stat@@YAHPEAUlocaleinfo_struct@@PEB_WKPEBDH2HH@Z 0000000180021a38 f   LIBCMT:a_cmp.obj
 0001:0002182c       ?__crtLCMapStringA_stat@@YAHPEAUlocaleinfo_struct@@PEB_WKPEBDHPEADHHH@Z 000000018002282c f   LIBCMT:a_map.obj
 0001:00021bb0       ?__crtGetStringTypeA_stat@@YAHPEAUlocaleinfo_struct@@KPEBDHPEAGHH@Z 0000000180022bb0 f   LIBCMT:a_str.obj
 0001:00021e80       $$000000                   0000000180022e80     LIBCMT:memcmp.obj
 0001:00021f58       ?x_ismbbtype_l@@YAHPEAUlocaleinfo_struct@@IHH@Z 0000000180022f58 f   LIBCMT:ismbbyte.obj
 0001:00022000       $$000000                   0000000180023000     LIBCMT:handlers.obj
 0001:00022620       $$000000                   0000000180023620     LIBCMT:chkstk.obj
 0001:00022a2c       __createFile               0000000180023a2c f   LIBCMT:wopen.obj
 0001:000232e0       $$000000                   00000001800242e0     LIBCMT:strncmp.obj
 0001:000267c0       $$000000                   00000001800277c0     LIBCMT:cos.obj
 0001:00026d20       $$000000                   0000000180027d20     LIBCMT:cosf.obj
 0001:00027220       $$000000                   0000000180028220     LIBCMT:expf.obj
 0001:00027590       $$000000                   0000000180028590     LIBCMT:powf.obj
 0001:00028120       $$000000                   0000000180029120     LIBCMT:sin.obj
 0001:00028640       $$000000                   0000000180029640     LIBCMT:sinf.obj
 0001:00028d50       $$000000                   0000000180029d50     LIBCMT:remainder_piby2_forAsm.obj
 0001:000290a0       $$000000                   000000018002a0a0     LIBCMT:remainder_piby2_forFMA3.obj
 0001:000294d0       $$000000                   000000018002a4d0     LIBCMT:remainder_piby2f_forAsm.obj
 0001:00029830       $$000000                   000000018002a830     LIBCMT:remainder_piby2f_forC.obj
 0001:000299c0       ?dtor$0@?0???1ObjectWrap@node@@UEAA@XZ@4HA 000000018002a9c0 f   * CIL library *:* CIL module *
 0001:000299d0       ?dtor$0@?0??New@?$Factory@VFunctionTemplate@v8@@@imp@Nan@@SA?AV?$Local@VFunctionTemplate@v8@@@v8@@P6AXAEBV?$FunctionCallbackInfo@VValue@v8@@@3@@ZV?$Local@VValue@v8@@@5@V?$Local@VSignature@v8@@@5@@Z@4HA 000000018002a9d0 f   * CIL library *:* CIL module *
 0001:000299e0       ?dtor$0@?0???0Callback@Nan@@QEAA@AEBV?$Local@VFunction@v8@@@v8@@@Z@4HA 000000018002a9e0 f   * CIL library *:* CIL module *
 0001:000299ec       ?dtor$1@?0???0Callback@Nan@@QEAA@AEBV?$Local@VFunction@v8@@@v8@@@Z@4HA 000000018002a9ec f   * CIL library *:* CIL module *
 0001:00029a00       ?dtor$0@?0??HandleErrorCallback@AsyncWorker@Nan@@MEAAXXZ@4HA 000000018002aa00 f   * CIL library *:* CIL module *
 0001:00029a00       ?dtor$0@?0??SetFunction@Callback@Nan@@QEAAXAEBV?$Local@VFunction@v8@@@v8@@@Z@4HA 000000018002aa00 f   * CIL library *:* CIL module *
 0001:00029a00       ?dtor$0@?0??Call_@Callback@Nan@@AEBA?AV?$Local@VValue@v8@@@v8@@PEAVIsolate@4@V?$Local@VObject@v8@@@4@HQEAV34@@Z@4HA 000000018002aa00 f   * CIL library *:* CIL module *
 0001:00029a00       ?dtor$0@?0??SaveToPersistent@AsyncWorker@Nan@@QEAAXPEBDAEBV?$Local@VValue@v8@@@v8@@@Z@4HA 000000018002aa00 f   * CIL library *:* CIL module *
 0001:00029a10       ?dtor$0@?0??SetPrototypeMethod@Nan@@YAXV?$Local@VFunctionTemplate@v8@@@v8@@PEBDP6AXAEBV?$FunctionCallbackInfo@VValue@v8@@@1@@Z@Z@4HA 000000018002aa10 f   * CIL library *:* CIL module *
 0001:00029a20       ?dtor$1@?0???0CImgInstanceException@cimg_library@@QEAA@AEBU01@@Z@4HA 000000018002aa20 f   * CIL library *:* CIL module *
 0001:00029a20       ?dtor$1@?0???0CImgIOException@cimg_library@@QEAA@AEBU01@@Z@4HA 000000018002aa20 f   * CIL library *:* CIL module *
 0001:00029a20       ?dtor$1@?0???0CImgArgumentException@cimg_library@@QEAA@AEBU01@@Z@4HA 000000018002aa20 f   * CIL library *:* CIL module *
 0001:00029a20       ?dtor$0@?0???0CImgException@cimg_library@@QEAA@AEBU01@@Z@4HA 000000018002aa20 f   * CIL library *:* CIL module *
 0001:00029a30       ?dtor$1@?0???0CImgInstanceException@cimg_library@@QEAA@QEBDZZ@4HA 000000018002aa30 f   * CIL library *:* CIL module *
 0001:00029a30       ?dtor$1@?0???0CImgArgumentException@cimg_library@@QEAA@QEBDZZ@4HA 000000018002aa30 f   * CIL library *:* CIL module *
 0001:00029a30       ?dtor$1@?0???0CImgIOException@cimg_library@@QEAA@QEBDZZ@4HA 000000018002aa30 f   * CIL library *:* CIL module *
 0001:00029a3c       ?dtor$0@?0???0CImgInstanceException@cimg_library@@QEAA@QEBDZZ@4HA 000000018002aa3c f   * CIL library *:* CIL module *
 0001:00029a3c       ?dtor$0@?0???0CImgArgumentException@cimg_library@@QEAA@QEBDZZ@4HA 000000018002aa3c f   * CIL library *:* CIL module *
 0001:00029a3c       ?dtor$0@?0???0CImgIOException@cimg_library@@QEAA@QEBDZZ@4HA 000000018002aa3c f   * CIL library *:* CIL module *
 0001:00029a50       ?dtor$1@?0??temporary_path@cimg@cimg_library@@YAPEBDQEBD_N@Z@4HA 000000018002aa50 f   * CIL library *:* CIL module *
 0001:00029a5c       ?dtor$2@?0??temporary_path@cimg@cimg_library@@YAPEBDQEBD_N@Z@4HA 000000018002aa5c f   * CIL library *:* CIL module *
 0001:00029a70       ?dtor$0@?0??strbuffersize@cimg@cimg_library@@YAPEBDK@Z@4HA 000000018002aa70 f   * CIL library *:* CIL module *
 0001:00029a90       ?dtor$0@?0???0LwipImage@@QEAA@PEAE_K1@Z@4HA 000000018002aa90 f   * CIL library *:* CIL module *
 0001:00029a9c       ?dtor$1@?0???0LwipImage@@QEAA@PEAE_K1@Z@4HA 000000018002aa9c f   * CIL library *:* CIL module *
 0001:00029ab0       ?dtor$0@?0???_GLwipImage@@UEAAPEAXI@Z@4HA 000000018002aab0 f   * CIL library *:* CIL module *
 0001:00029ac0       ?dtor$1@?0??New@LwipImage@@SAXAEBV?$FunctionCallbackInfo@VValue@v8@@@Nan@@@Z@4HA 000000018002aac0 f   * CIL library *:* CIL module *
 0001:00029ad0       ?dtor$1@?0??resize@LwipImage@@SAXAEBV?$FunctionCallbackInfo@VValue@v8@@@Nan@@@Z@4HA 000000018002aad0 f   * CIL library *:* CIL module *
 0001:00029adc       ?dtor$2@?0??resize@LwipImage@@SAXAEBV?$FunctionCallbackInfo@VValue@v8@@@Nan@@@Z@4HA 000000018002aadc f   * CIL library *:* CIL module *
 0001:00029af0       ?dtor$1@?0??rotate@LwipImage@@SAXAEBV?$FunctionCallbackInfo@VValue@v8@@@Nan@@@Z@4HA 000000018002aaf0 f   * CIL library *:* CIL module *
 0001:00029af0       ?dtor$1@?0??crop@LwipImage@@SAXAEBV?$FunctionCallbackInfo@VValue@v8@@@Nan@@@Z@4HA 000000018002aaf0 f   * CIL library *:* CIL module *
 0001:00029afc       ?dtor$2@?0??rotate@LwipImage@@SAXAEBV?$FunctionCallbackInfo@VValue@v8@@@Nan@@@Z@4HA 000000018002aafc f   * CIL library *:* CIL module *
 0001:00029afc       ?dtor$2@?0??crop@LwipImage@@SAXAEBV?$FunctionCallbackInfo@VValue@v8@@@Nan@@@Z@4HA 000000018002aafc f   * CIL library *:* CIL module *
 0001:00029b10       ?dtor$1@?0??sharpen@LwipImage@@SAXAEBV?$FunctionCallbackInfo@VValue@v8@@@Nan@@@Z@4HA 000000018002ab10 f   * CIL library *:* CIL module *
 0001:00029b10       ?dtor$1@?0??blur@LwipImage@@SAXAEBV?$FunctionCallbackInfo@VValue@v8@@@Nan@@@Z@4HA 000000018002ab10 f   * CIL library *:* CIL module *
 0001:00029b10       ?dtor$1@?0??mirror@LwipImage@@SAXAEBV?$FunctionCallbackInfo@VValue@v8@@@Nan@@@Z@4HA 000000018002ab10 f   * CIL library *:* CIL module *
 0001:00029b1c       ?dtor$2@?0??blur@LwipImage@@SAXAEBV?$FunctionCallbackInfo@VValue@v8@@@Nan@@@Z@4HA 000000018002ab1c f   * CIL library *:* CIL module *
 0001:00029b1c       ?dtor$2@?0??sharpen@LwipImage@@SAXAEBV?$FunctionCallbackInfo@VValue@v8@@@Nan@@@Z@4HA 000000018002ab1c f   * CIL library *:* CIL module *
 0001:00029b1c       ?dtor$2@?0??mirror@LwipImage@@SAXAEBV?$FunctionCallbackInfo@VValue@v8@@@Nan@@@Z@4HA 000000018002ab1c f   * CIL library *:* CIL module *
 0001:00029b30       ?dtor$1@?0??pad@LwipImage@@SAXAEBV?$FunctionCallbackInfo@VValue@v8@@@Nan@@@Z@4HA 000000018002ab30 f   * CIL library *:* CIL module *
 0001:00029b3c       ?dtor$2@?0??pad@LwipImage@@SAXAEBV?$FunctionCallbackInfo@VValue@v8@@@Nan@@@Z@4HA 000000018002ab3c f   * CIL library *:* CIL module *
 0001:00029b50       ?dtor$1@?0??hslaAdj@LwipImage@@SAXAEBV?$FunctionCallbackInfo@VValue@v8@@@Nan@@@Z@4HA 000000018002ab50 f   * CIL library *:* CIL module *
 0001:00029b5c       ?dtor$2@?0??hslaAdj@LwipImage@@SAXAEBV?$FunctionCallbackInfo@VValue@v8@@@Nan@@@Z@4HA 000000018002ab5c f   * CIL library *:* CIL module *
 0001:00029b70       ?dtor$1@?0??opacify@LwipImage@@SAXAEBV?$FunctionCallbackInfo@VValue@v8@@@Nan@@@Z@4HA 000000018002ab70 f   * CIL library *:* CIL module *
 0001:00029b7c       ?dtor$2@?0??opacify@LwipImage@@SAXAEBV?$FunctionCallbackInfo@VValue@v8@@@Nan@@@Z@4HA 000000018002ab7c f   * CIL library *:* CIL module *
 0001:00029b90       ?dtor$1@?0??paste@LwipImage@@SAXAEBV?$FunctionCallbackInfo@VValue@v8@@@Nan@@@Z@4HA 000000018002ab90 f   * CIL library *:* CIL module *
 0001:00029b9c       ?dtor$2@?0??paste@LwipImage@@SAXAEBV?$FunctionCallbackInfo@VValue@v8@@@Nan@@@Z@4HA 000000018002ab9c f   * CIL library *:* CIL module *
 0001:00029ba8       ?dtor$5@?0??paste@LwipImage@@SAXAEBV?$FunctionCallbackInfo@VValue@v8@@@Nan@@@Z@4HA 000000018002aba8 f   * CIL library *:* CIL module *
 0001:00029bc0       ?dtor$1@?0??setPixel@LwipImage@@SAXAEBV?$FunctionCallbackInfo@VValue@v8@@@Nan@@@Z@4HA 000000018002abc0 f   * CIL library *:* CIL module *
 0001:00029bcc       ?dtor$2@?0??setPixel@LwipImage@@SAXAEBV?$FunctionCallbackInfo@VValue@v8@@@Nan@@@Z@4HA 000000018002abcc f   * CIL library *:* CIL module *
 0001:00029be0       ?catch$0@?0???0?$CImg@D@cimg_library@@QEAA@IIII@Z@4HA 000000018002abe0 f   * CIL library *:* CIL module *
 0001:00029bef       __catch$??0?$CImg@D@cimg_library@@QEAA@IIII@Z$0 000000018002abef f   * CIL library *:* CIL module *
 0001:00029cb0       ?catch$0@?0??assign@?$CImg@D@cimg_library@@QEAAAEAU12@IIII@Z@4HA 000000018002acb0 f   * CIL library *:* CIL module *
 0001:00029cbf       __catch$?assign@?$CImg@D@cimg_library@@QEAAAEAU12@IIII@Z$0 000000018002acbf f   * CIL library *:* CIL module *
 0001:00029d80       ?catch$0@?0???0?$CImg@E@cimg_library@@QEAA@QEBEIIII_N@Z@4HA 000000018002ad80 f   * CIL library *:* CIL module *
 0001:00029d90       __catch$??0?$CImg@E@cimg_library@@QEAA@QEBEIIII_N@Z$0 000000018002ad90 f   * CIL library *:* CIL module *
 0001:00029e50       ?catch$0@?0???0?$CImg@E@cimg_library@@QEAA@IIII@Z@4HA 000000018002ae50 f   * CIL library *:* CIL module *
 0001:00029e64       __catch$??0?$CImg@E@cimg_library@@QEAA@IIII@Z$0 000000018002ae64 f   * CIL library *:* CIL module *
 0001:00029f30       ?catch$0@?0???0?$CImg@E@cimg_library@@QEAA@AEBU01@@Z@4HA 000000018002af30 f   * CIL library *:* CIL module *
 0001:00029f44       __catch$??0?$CImg@E@cimg_library@@QEAA@AEBU01@@Z$0 000000018002af44 f   * CIL library *:* CIL module *
 0001:0002a010       ?dtor$0@?0???0AsyncWorker@Nan@@QEAA@PEAVCallback@1@@Z@4HA 000000018002b010 f   * CIL library *:* CIL module *
 0001:0002a023       ?dtor$1@?0???0AsyncWorker@Nan@@QEAA@PEAVCallback@1@@Z@4HA 000000018002b023 f   * CIL library *:* CIL module *
 0001:0002a030       ?dtor$0@?0???1AsyncWorker@Nan@@UEAA@XZ@4HA 000000018002b030 f   * CIL library *:* CIL module *
 0001:0002a043       ?dtor$1@?0???1AsyncWorker@Nan@@UEAA@XZ@4HA 000000018002b043 f   * CIL library *:* CIL module *
 0001:0002a04f       ?dtor$3@?0???1AsyncWorker@Nan@@UEAA@XZ@4HA 000000018002b04f f   * CIL library *:* CIL module *
 0001:0002a060       ?dtor$0@?0??WorkComplete@AsyncWorker@Nan@@UEAAXXZ@4HA 000000018002b060 f   * CIL library *:* CIL module *
 0001:0002a06c       ?dtor$2@?0??WorkComplete@AsyncWorker@Nan@@UEAAXXZ@4HA 000000018002b06c f   * CIL library *:* CIL module *
 0001:0002a080       ?catch$0@?0??Execute@ResizeWorker@@UEAAXXZ@4HA 000000018002b080 f   * CIL library *:* CIL module *
 0001:0002a08d       __catch$?Execute@ResizeWorker@@UEAAXXZ$0 000000018002b08d f   * CIL library *:* CIL module *
 0001:0002a0b9       ?dtor$0@?0??Execute@ResizeWorker@@UEAAXXZ@4HA 000000018002b0b9 f   * CIL library *:* CIL module *
 0001:0002a0d0       ?catch$0@?0???0?$CImg@K@cimg_library@@QEAA@IIII@Z@4HA 000000018002b0d0 f   * CIL library *:* CIL module *
 0001:0002a0df       __catch$??0?$CImg@K@cimg_library@@QEAA@IIII@Z$0 000000018002b0df f   * CIL library *:* CIL module *
 0001:0002a1a0       ?dtor$0@?0??crop@?$CImg@E@cimg_library@@QEAAAEAU12@HHHHHHHH_N@Z@4HA 000000018002b1a0 f   * CIL library *:* CIL module *
 0001:0002a1a0       ?dtor$0@?0??resize@?$CImg@E@cimg_library@@QEAAAEAU12@HHHHHIMMMM@Z@4HA 000000018002b1a0 f   * CIL library *:* CIL module *
 0001:0002a1b0       ?dtor$0@?0??get_resize@?$CImg@E@cimg_library@@QEBA?AU12@HHHHHIMMMM@Z@4HA 000000018002b1b0 f   * CIL library *:* CIL module *
 0001:0002a1d9       ?dtor$1@?0??get_resize@?$CImg@E@cimg_library@@QEBA?AU12@HHHHHIMMMM@Z@4HA 000000018002b1d9 f   * CIL library *:* CIL module *
 0001:0002a1e5       ?dtor$11@?0??get_resize@?$CImg@E@cimg_library@@QEBA?AU12@HHHHHIMMMM@Z@4HA 000000018002b1e5 f   * CIL library *:* CIL module *
 0001:0002a1f1       ?dtor$12@?0??get_resize@?$CImg@E@cimg_library@@QEBA?AU12@HHHHHIMMMM@Z@4HA 000000018002b1f1 f   * CIL library *:* CIL module *
 0001:0002a1fd       ?dtor$13@?0??get_resize@?$CImg@E@cimg_library@@QEBA?AU12@HHHHHIMMMM@Z@4HA 000000018002b1fd f   * CIL library *:* CIL module *
 0001:0002a209       ?dtor$15@?0??get_resize@?$CImg@E@cimg_library@@QEBA?AU12@HHHHHIMMMM@Z@4HA 000000018002b209 f   * CIL library *:* CIL module *
 0001:0002a215       ?dtor$16@?0??get_resize@?$CImg@E@cimg_library@@QEBA?AU12@HHHHHIMMMM@Z@4HA 000000018002b215 f   * CIL library *:* CIL module *
 0001:0002a221       ?dtor$17@?0??get_resize@?$CImg@E@cimg_library@@QEBA?AU12@HHHHHIMMMM@Z@4HA 000000018002b221 f   * CIL library *:* CIL module *
 0001:0002a22d       ?dtor$18@?0??get_resize@?$CImg@E@cimg_library@@QEBA?AU12@HHHHHIMMMM@Z@4HA 000000018002b22d f   * CIL library *:* CIL module *
 0001:0002a239       ?dtor$19@?0??get_resize@?$CImg@E@cimg_library@@QEBA?AU12@HHHHHIMMMM@Z@4HA 000000018002b239 f   * CIL library *:* CIL module *
 0001:0002a245       ?dtor$20@?0??get_resize@?$CImg@E@cimg_library@@QEBA?AU12@HHHHHIMMMM@Z@4HA 000000018002b245 f   * CIL library *:* CIL module *
 0001:0002a251       ?dtor$21@?0??get_resize@?$CImg@E@cimg_library@@QEBA?AU12@HHHHHIMMMM@Z@4HA 000000018002b251 f   * CIL library *:* CIL module *
 0001:0002a25d       ?dtor$22@?0??get_resize@?$CImg@E@cimg_library@@QEBA?AU12@HHHHHIMMMM@Z@4HA 000000018002b25d f   * CIL library *:* CIL module *
 0001:0002a269       ?dtor$23@?0??get_resize@?$CImg@E@cimg_library@@QEBA?AU12@HHHHHIMMMM@Z@4HA 000000018002b269 f   * CIL library *:* CIL module *
 0001:0002a275       ?dtor$24@?0??get_resize@?$CImg@E@cimg_library@@QEBA?AU12@HHHHHIMMMM@Z@4HA 000000018002b275 f   * CIL library *:* CIL module *
 0001:0002a281       ?dtor$25@?0??get_resize@?$CImg@E@cimg_library@@QEBA?AU12@HHHHHIMMMM@Z@4HA 000000018002b281 f   * CIL library *:* CIL module *
 0001:0002a28d       ?dtor$26@?0??get_resize@?$CImg@E@cimg_library@@QEBA?AU12@HHHHHIMMMM@Z@4HA 000000018002b28d f   * CIL library *:* CIL module *
 0001:0002a299       ?dtor$27@?0??get_resize@?$CImg@E@cimg_library@@QEBA?AU12@HHHHHIMMMM@Z@4HA 000000018002b299 f   * CIL library *:* CIL module *
 0001:0002a2a5       ?dtor$28@?0??get_resize@?$CImg@E@cimg_library@@QEBA?AU12@HHHHHIMMMM@Z@4HA 000000018002b2a5 f   * CIL library *:* CIL module *
 0001:0002a2b1       ?dtor$29@?0??get_resize@?$CImg@E@cimg_library@@QEBA?AU12@HHHHHIMMMM@Z@4HA 000000018002b2b1 f   * CIL library *:* CIL module *
 0001:0002a2bd       ?dtor$30@?0??get_resize@?$CImg@E@cimg_library@@QEBA?AU12@HHHHHIMMMM@Z@4HA 000000018002b2bd f   * CIL library *:* CIL module *
 0001:0002a2c9       ?dtor$31@?0??get_resize@?$CImg@E@cimg_library@@QEBA?AU12@HHHHHIMMMM@Z@4HA 000000018002b2c9 f   * CIL library *:* CIL module *
 0001:0002a2d5       ?dtor$32@?0??get_resize@?$CImg@E@cimg_library@@QEBA?AU12@HHHHHIMMMM@Z@4HA 000000018002b2d5 f   * CIL library *:* CIL module *
 0001:0002a2e1       ?dtor$33@?0??get_resize@?$CImg@E@cimg_library@@QEBA?AU12@HHHHHIMMMM@Z@4HA 000000018002b2e1 f   * CIL library *:* CIL module *
 0001:0002a30a       ?dtor$34@?0??get_resize@?$CImg@E@cimg_library@@QEBA?AU12@HHHHHIMMMM@Z@4HA 000000018002b30a f   * CIL library *:* CIL module *
 0001:0002a333       ?dtor$35@?0??get_resize@?$CImg@E@cimg_library@@QEBA?AU12@HHHHHIMMMM@Z@4HA 000000018002b333 f   * CIL library *:* CIL module *
 0001:0002a35c       ?dtor$36@?0??get_resize@?$CImg@E@cimg_library@@QEBA?AU12@HHHHHIMMMM@Z@4HA 000000018002b35c f   * CIL library *:* CIL module *
 0001:0002a385       ?dtor$37@?0??get_resize@?$CImg@E@cimg_library@@QEBA?AU12@HHHHHIMMMM@Z@4HA 000000018002b385 f   * CIL library *:* CIL module *
 0001:0002a3ae       ?dtor$38@?0??get_resize@?$CImg@E@cimg_library@@QEBA?AU12@HHHHHIMMMM@Z@4HA 000000018002b3ae f   * CIL library *:* CIL module *
 0001:0002a3d7       ?dtor$39@?0??get_resize@?$CImg@E@cimg_library@@QEBA?AU12@HHHHHIMMMM@Z@4HA 000000018002b3d7 f   * CIL library *:* CIL module *
 0001:0002a405       ?dtor$40@?0??get_resize@?$CImg@E@cimg_library@@QEBA?AU12@HHHHHIMMMM@Z@4HA 000000018002b405 f   * CIL library *:* CIL module *
 0001:0002a433       ?dtor$41@?0??get_resize@?$CImg@E@cimg_library@@QEBA?AU12@HHHHHIMMMM@Z@4HA 000000018002b433 f   * CIL library *:* CIL module *
 0001:0002a43f       ?dtor$42@?0??get_resize@?$CImg@E@cimg_library@@QEBA?AU12@HHHHHIMMMM@Z@4HA 000000018002b43f f   * CIL library *:* CIL module *
 0001:0002a44b       ?dtor$43@?0??get_resize@?$CImg@E@cimg_library@@QEBA?AU12@HHHHHIMMMM@Z@4HA 000000018002b44b f   * CIL library *:* CIL module *
 0001:0002a457       ?dtor$44@?0??get_resize@?$CImg@E@cimg_library@@QEBA?AU12@HHHHHIMMMM@Z@4HA 000000018002b457 f   * CIL library *:* CIL module *
 0001:0002a463       ?dtor$45@?0??get_resize@?$CImg@E@cimg_library@@QEBA?AU12@HHHHHIMMMM@Z@4HA 000000018002b463 f   * CIL library *:* CIL module *
 0001:0002a46f       ?dtor$46@?0??get_resize@?$CImg@E@cimg_library@@QEBA?AU12@HHHHHIMMMM@Z@4HA 000000018002b46f f   * CIL library *:* CIL module *
 0001:0002a47b       ?dtor$47@?0??get_resize@?$CImg@E@cimg_library@@QEBA?AU12@HHHHHIMMMM@Z@4HA 000000018002b47b f   * CIL library *:* CIL module *
 0001:0002a487       ?dtor$48@?0??get_resize@?$CImg@E@cimg_library@@QEBA?AU12@HHHHHIMMMM@Z@4HA 000000018002b487 f   * CIL library *:* CIL module *
 0001:0002a493       ?dtor$49@?0??get_resize@?$CImg@E@cimg_library@@QEBA?AU12@HHHHHIMMMM@Z@4HA 000000018002b493 f   * CIL library *:* CIL module *
 0001:0002a4c1       ?dtor$50@?0??get_resize@?$CImg@E@cimg_library@@QEBA?AU12@HHHHHIMMMM@Z@4HA 000000018002b4c1 f   * CIL library *:* CIL module *
 0001:0002a4ef       ?dtor$51@?0??get_resize@?$CImg@E@cimg_library@@QEBA?AU12@HHHHHIMMMM@Z@4HA 000000018002b4ef f   * CIL library *:* CIL module *
 0001:0002a51d       ?dtor$52@?0??get_resize@?$CImg@E@cimg_library@@QEBA?AU12@HHHHHIMMMM@Z@4HA 000000018002b51d f   * CIL library *:* CIL module *
 0001:0002a54b       ?dtor$53@?0??get_resize@?$CImg@E@cimg_library@@QEBA?AU12@HHHHHIMMMM@Z@4HA 000000018002b54b f   * CIL library *:* CIL module *
 0001:0002a579       ?dtor$54@?0??get_resize@?$CImg@E@cimg_library@@QEBA?AU12@HHHHHIMMMM@Z@4HA 000000018002b579 f   * CIL library *:* CIL module *
 0001:0002a5a7       ?dtor$55@?0??get_resize@?$CImg@E@cimg_library@@QEBA?AU12@HHHHHIMMMM@Z@4HA 000000018002b5a7 f   * CIL library *:* CIL module *
 0001:0002a5d5       ?dtor$56@?0??get_resize@?$CImg@E@cimg_library@@QEBA?AU12@HHHHHIMMMM@Z@4HA 000000018002b5d5 f   * CIL library *:* CIL module *
 0001:0002a603       ?dtor$57@?0??get_resize@?$CImg@E@cimg_library@@QEBA?AU12@HHHHHIMMMM@Z@4HA 000000018002b603 f   * CIL library *:* CIL module *
 0001:0002a60f       ?dtor$58@?0??get_resize@?$CImg@E@cimg_library@@QEBA?AU12@HHHHHIMMMM@Z@4HA 000000018002b60f f   * CIL library *:* CIL module *
 0001:0002a61b       ?dtor$59@?0??get_resize@?$CImg@E@cimg_library@@QEBA?AU12@HHHHHIMMMM@Z@4HA 000000018002b61b f   * CIL library *:* CIL module *
 0001:0002a627       ?dtor$60@?0??get_resize@?$CImg@E@cimg_library@@QEBA?AU12@HHHHHIMMMM@Z@4HA 000000018002b627 f   * CIL library *:* CIL module *
 0001:0002a633       ?dtor$61@?0??get_resize@?$CImg@E@cimg_library@@QEBA?AU12@HHHHHIMMMM@Z@4HA 000000018002b633 f   * CIL library *:* CIL module *
 0001:0002a63f       ?dtor$62@?0??get_resize@?$CImg@E@cimg_library@@QEBA?AU12@HHHHHIMMMM@Z@4HA 000000018002b63f f   * CIL library *:* CIL module *
 0001:0002a64b       ?dtor$63@?0??get_resize@?$CImg@E@cimg_library@@QEBA?AU12@HHHHHIMMMM@Z@4HA 000000018002b64b f   * CIL library *:* CIL module *
 0001:0002a657       ?dtor$64@?0??get_resize@?$CImg@E@cimg_library@@QEBA?AU12@HHHHHIMMMM@Z@4HA 000000018002b657 f   * CIL library *:* CIL module *
 0001:0002a663       ?dtor$65@?0??get_resize@?$CImg@E@cimg_library@@QEBA?AU12@HHHHHIMMMM@Z@4HA 000000018002b663 f   * CIL library *:* CIL module *
 0001:0002a66f       ?dtor$66@?0??get_resize@?$CImg@E@cimg_library@@QEBA?AU12@HHHHHIMMMM@Z@4HA 000000018002b66f f   * CIL library *:* CIL module *
 0001:0002a67b       ?dtor$67@?0??get_resize@?$CImg@E@cimg_library@@QEBA?AU12@HHHHHIMMMM@Z@4HA 000000018002b67b f   * CIL library *:* CIL module *
 0001:0002a687       ?dtor$68@?0??get_resize@?$CImg@E@cimg_library@@QEBA?AU12@HHHHHIMMMM@Z@4HA 000000018002b687 f   * CIL library *:* CIL module *
 0001:0002a693       ?dtor$69@?0??get_resize@?$CImg@E@cimg_library@@QEBA?AU12@HHHHHIMMMM@Z@4HA 000000018002b693 f   * CIL library *:* CIL module *
 0001:0002a69f       ?dtor$70@?0??get_resize@?$CImg@E@cimg_library@@QEBA?AU12@HHHHHIMMMM@Z@4HA 000000018002b69f f   * CIL library *:* CIL module *
 0001:0002a6ab       ?dtor$71@?0??get_resize@?$CImg@E@cimg_library@@QEBA?AU12@HHHHHIMMMM@Z@4HA 000000018002b6ab f   * CIL library *:* CIL module *
 0001:0002a6d9       ?dtor$72@?0??get_resize@?$CImg@E@cimg_library@@QEBA?AU12@HHHHHIMMMM@Z@4HA 000000018002b6d9 f   * CIL library *:* CIL module *
 0001:0002a707       ?dtor$73@?0??get_resize@?$CImg@E@cimg_library@@QEBA?AU12@HHHHHIMMMM@Z@4HA 000000018002b707 f   * CIL library *:* CIL module *
 0001:0002a735       ?dtor$74@?0??get_resize@?$CImg@E@cimg_library@@QEBA?AU12@HHHHHIMMMM@Z@4HA 000000018002b735 f   * CIL library *:* CIL module *
 0001:0002a763       ?dtor$75@?0??get_resize@?$CImg@E@cimg_library@@QEBA?AU12@HHHHHIMMMM@Z@4HA 000000018002b763 f   * CIL library *:* CIL module *
 0001:0002a791       ?dtor$76@?0??get_resize@?$CImg@E@cimg_library@@QEBA?AU12@HHHHHIMMMM@Z@4HA 000000018002b791 f   * CIL library *:* CIL module *
 0001:0002a7bf       ?dtor$77@?0??get_resize@?$CImg@E@cimg_library@@QEBA?AU12@HHHHHIMMMM@Z@4HA 000000018002b7bf f   * CIL library *:* CIL module *
 0001:0002a7ed       ?dtor$78@?0??get_resize@?$CImg@E@cimg_library@@QEBA?AU12@HHHHHIMMMM@Z@4HA 000000018002b7ed f   * CIL library *:* CIL module *
 0001:0002a81b       ?dtor$79@?0??get_resize@?$CImg@E@cimg_library@@QEBA?AU12@HHHHHIMMMM@Z@4HA 000000018002b81b f   * CIL library *:* CIL module *
 0001:0002a827       ?dtor$80@?0??get_resize@?$CImg@E@cimg_library@@QEBA?AU12@HHHHHIMMMM@Z@4HA 000000018002b827 f   * CIL library *:* CIL module *
 0001:0002a833       ?dtor$81@?0??get_resize@?$CImg@E@cimg_library@@QEBA?AU12@HHHHHIMMMM@Z@4HA 000000018002b833 f   * CIL library *:* CIL module *
 0001:0002a83f       ?dtor$82@?0??get_resize@?$CImg@E@cimg_library@@QEBA?AU12@HHHHHIMMMM@Z@4HA 000000018002b83f f   * CIL library *:* CIL module *
 0001:0002a84b       ?dtor$83@?0??get_resize@?$CImg@E@cimg_library@@QEBA?AU12@HHHHHIMMMM@Z@4HA 000000018002b84b f   * CIL library *:* CIL module *
 0001:0002a857       ?dtor$84@?0??get_resize@?$CImg@E@cimg_library@@QEBA?AU12@HHHHHIMMMM@Z@4HA 000000018002b857 f   * CIL library *:* CIL module *
 0001:0002a863       ?dtor$85@?0??get_resize@?$CImg@E@cimg_library@@QEBA?AU12@HHHHHIMMMM@Z@4HA 000000018002b863 f   * CIL library *:* CIL module *
 0001:0002a86f       ?dtor$86@?0??get_resize@?$CImg@E@cimg_library@@QEBA?AU12@HHHHHIMMMM@Z@4HA 000000018002b86f f   * CIL library *:* CIL module *
 0001:0002a87b       ?dtor$87@?0??get_resize@?$CImg@E@cimg_library@@QEBA?AU12@HHHHHIMMMM@Z@4HA 000000018002b87b f   * CIL library *:* CIL module *
 0001:0002a887       ?dtor$88@?0??get_resize@?$CImg@E@cimg_library@@QEBA?AU12@HHHHHIMMMM@Z@4HA 000000018002b887 f   * CIL library *:* CIL module *
 0001:0002a893       ?dtor$89@?0??get_resize@?$CImg@E@cimg_library@@QEBA?AU12@HHHHHIMMMM@Z@4HA 000000018002b893 f   * CIL library *:* CIL module *
 0001:0002a89f       ?dtor$90@?0??get_resize@?$CImg@E@cimg_library@@QEBA?AU12@HHHHHIMMMM@Z@4HA 000000018002b89f f   * CIL library *:* CIL module *
 0001:0002a8ab       ?dtor$91@?0??get_resize@?$CImg@E@cimg_library@@QEBA?AU12@HHHHHIMMMM@Z@4HA 000000018002b8ab f   * CIL library *:* CIL module *
 0001:0002a8b7       ?dtor$92@?0??get_resize@?$CImg@E@cimg_library@@QEBA?AU12@HHHHHIMMMM@Z@4HA 000000018002b8b7 f   * CIL library *:* CIL module *
 0001:0002a8c3       ?dtor$93@?0??get_resize@?$CImg@E@cimg_library@@QEBA?AU12@HHHHHIMMMM@Z@4HA 000000018002b8c3 f   * CIL library *:* CIL module *
 0001:0002a8f1       ?dtor$94@?0??get_resize@?$CImg@E@cimg_library@@QEBA?AU12@HHHHHIMMMM@Z@4HA 000000018002b8f1 f   * CIL library *:* CIL module *
 0001:0002a91f       ?dtor$95@?0??get_resize@?$CImg@E@cimg_library@@QEBA?AU12@HHHHHIMMMM@Z@4HA 000000018002b91f f   * CIL library *:* CIL module *
 0001:0002a94d       ?dtor$96@?0??get_resize@?$CImg@E@cimg_library@@QEBA?AU12@HHHHHIMMMM@Z@4HA 000000018002b94d f   * CIL library *:* CIL module *
 0001:0002a97b       ?dtor$97@?0??get_resize@?$CImg@E@cimg_library@@QEBA?AU12@HHHHHIMMMM@Z@4HA 000000018002b97b f   * CIL library *:* CIL module *
 0001:0002a9a9       ?dtor$98@?0??get_resize@?$CImg@E@cimg_library@@QEBA?AU12@HHHHHIMMMM@Z@4HA 000000018002b9a9 f   * CIL library *:* CIL module *
 0001:0002a9d7       ?dtor$99@?0??get_resize@?$CImg@E@cimg_library@@QEBA?AU12@HHHHHIMMMM@Z@4HA 000000018002b9d7 f   * CIL library *:* CIL module *
 0001:0002aa05       ?dtor$100@?0??get_resize@?$CImg@E@cimg_library@@QEBA?AU12@HHHHHIMMMM@Z@4HA 000000018002ba05 f   * CIL library *:* CIL module *
 0001:0002aa40       ?catch$0@?0???0?$CImg@M@cimg_library@@QEAA@IIII@Z@4HA 000000018002ba40 f   * CIL library *:* CIL module *
 0001:0002aa54       __catch$??0?$CImg@M@cimg_library@@QEAA@IIII@Z$0 000000018002ba54 f   * CIL library *:* CIL module *
 0001:0002ab20       ?catch$0@?0???0?$CImg@M@cimg_library@@QEAA@IIIIAEBM@Z@4HA 000000018002bb20 f   * CIL library *:* CIL module *
 0001:0002ab34       __catch$??0?$CImg@M@cimg_library@@QEAA@IIIIAEBM@Z$0 000000018002bb34 f   * CIL library *:* CIL module *
 0001:0002ac00       ?catch$0@?0???0?$CImg@E@cimg_library@@QEAA@IIIIAEBE@Z@4HA 000000018002bc00 f   * CIL library *:* CIL module *
 0001:0002ac14       __catch$??0?$CImg@E@cimg_library@@QEAA@IIIIAEBE@Z$0 000000018002bc14 f   * CIL library *:* CIL module *
 0001:0002ace0       ?catch$0@?0??assign@?$CImg@E@cimg_library@@QEAAAEAU12@IIII@Z@4HA 000000018002bce0 f   * CIL library *:* CIL module *
 0001:0002acf4       __catch$?assign@?$CImg@E@cimg_library@@QEAAAEAU12@IIII@Z$0 000000018002bcf4 f   * CIL library *:* CIL module *
 0001:0002add0       ?dtor$0@?0??get_crop@?$CImg@E@cimg_library@@QEBA?AU12@HHHHHHHH_N@Z@4HA 000000018002bdd0 f   * CIL library *:* CIL module *
 0001:0002addc       ?dtor$1@?0??get_crop@?$CImg@E@cimg_library@@QEBA?AU12@HHHHHHHH_N@Z@4HA 000000018002bddc f   * CIL library *:* CIL module *
 0001:0002ae10       ?dtor$0@?0??draw_image@?$CImg@E@cimg_library@@QEAAAEAU12@HHHHAEBU12@M@Z@4HA 000000018002be10 f   * CIL library *:* CIL module *
 0001:0002ae20       ?catch$0@?0???0?$CImg@I@cimg_library@@QEAA@IIII@Z@4HA 000000018002be20 f   * CIL library *:* CIL module *
 0001:0002ae2f       __catch$??0?$CImg@I@cimg_library@@QEAA@IIII@Z$0 000000018002be2f f   * CIL library *:* CIL module *
 0001:0002aef0       ?catch$0@?0???0?$CImg@E@cimg_library@@QEAA@AEBU01@_N@Z@4HA 000000018002bef0 f   * CIL library *:* CIL module *
 0001:0002af04       __catch$??0?$CImg@E@cimg_library@@QEAA@AEBU01@_N@Z$0 000000018002bf04 f   * CIL library *:* CIL module *
 0001:0002afd0       ?catch$0@?0??assign@?$CImg@E@cimg_library@@QEAAAEAU12@QEBEIIII@Z@4HA 000000018002bfd0 f   * CIL library *:* CIL module *
 0001:0002afe4       __catch$?assign@?$CImg@E@cimg_library@@QEAAAEAU12@QEBEIIII@Z$0 000000018002bfe4 f   * CIL library *:* CIL module *
 0001:0002b0b0       ?dtor$0@?0??Execute@RotateWorker@@UEAAXXZ@4HA 000000018002c0b0 f   * CIL library *:* CIL module *
 0001:0002b0bc       ?catch$1@?0??Execute@RotateWorker@@UEAAXXZ@4HA 000000018002c0bc f   * CIL library *:* CIL module *
 0001:0002b0c9       __catch$?Execute@RotateWorker@@UEAAXXZ$0 000000018002c0c9 f   * CIL library *:* CIL module *
 0001:0002b0f5       ?dtor$1@?0??Execute@RotateWorker@@UEAAXXZ@4HA 000000018002c0f5 f   * CIL library *:* CIL module *
 0001:0002b101       ?dtor$3@?0??Execute@RotateWorker@@UEAAXXZ@4HA 000000018002c101 f   * CIL library *:* CIL module *
 0001:0002b10d       ?catch$0@?0??Execute@RotateWorker@@UEAAXXZ@4HA 000000018002c10d f   * CIL library *:* CIL module *
 0001:0002b11a       __catch$?Execute@RotateWorker@@UEAAXXZ$2 000000018002c11a f   * CIL library *:* CIL module *
 0001:0002b146       ?dtor$2@?0??Execute@RotateWorker@@UEAAXXZ@4HA 000000018002c146 f   * CIL library *:* CIL module *
 0001:0002b160       ?dtor$0@?0??get_rotate@?$CImg@E@cimg_library@@QEBA?AU12@MII@Z@4HA 000000018002c160 f   * CIL library *:* CIL module *
 0001:0002b189       ?dtor$1@?0??get_rotate@?$CImg@E@cimg_library@@QEBA?AU12@MII@Z@4HA 000000018002c189 f   * CIL library *:* CIL module *
 0001:0002b1a0       ?catch$0@?0??Execute@CropWorker@@UEAAXXZ@4HA 000000018002c1a0 f   * CIL library *:* CIL module *
 0001:0002b1ad       __catch$?Execute@CropWorker@@UEAAXXZ$0 000000018002c1ad f   * CIL library *:* CIL module *
 0001:0002b1d9       ?dtor$0@?0??Execute@CropWorker@@UEAAXXZ@4HA 000000018002c1d9 f   * CIL library *:* CIL module *
 0001:0002b1f0       ?dtor$0@?0??Execute@MirrorWorker@@UEAAXXZ@4HA 000000018002c1f0 f   * CIL library *:* CIL module *
 0001:0002b1fc       ?catch$0@?0??Execute@MirrorWorker@@UEAAXXZ@4HA 000000018002c1fc f   * CIL library *:* CIL module *
 0001:0002b209       __catch$?Execute@MirrorWorker@@UEAAXXZ$0 000000018002c209 f   * CIL library *:* CIL module *
 0001:0002b232       ?dtor$1@?0??Execute@MirrorWorker@@UEAAXXZ@4HA 000000018002c232 f   * CIL library *:* CIL module *
 0001:0002b240       ?dtor$0@?0??Execute@PadWorker@@UEAAXXZ@4HA 000000018002c240 f   * CIL library *:* CIL module *
 0001:0002b24c       ?catch$0@?0??Execute@PadWorker@@UEAAXXZ@4HA 000000018002c24c f   * CIL library *:* CIL module *
 0001:0002b259       __catch$?Execute@PadWorker@@UEAAXXZ$0 000000018002c259 f   * CIL library *:* CIL module *
 0001:0002b285       ?dtor$1@?0??Execute@PadWorker@@UEAAXXZ@4HA 000000018002c285 f   * CIL library *:* CIL module *
 0001:0002b2a0       ?catch$0@?0??Execute@SharpenWorker@@UEAAXXZ@4HA 000000018002c2a0 f   * CIL library *:* CIL module *
 0001:0002b2ad       __catch$?Execute@SharpenWorker@@UEAAXXZ$0 000000018002c2ad f   * CIL library *:* CIL module *
 0001:0002b2d6       ?dtor$0@?0??Execute@SharpenWorker@@UEAAXXZ@4HA 000000018002c2d6 f   * CIL library *:* CIL module *
 0001:0002b2f0       ?dtor$0@?0??sharpen@?$CImg@E@cimg_library@@QEAAAEAU12@M_NMMM@Z@4HA 000000018002c2f0 f   * CIL library *:* CIL module *
 0001:0002b2fc       ?dtor$1@?0??sharpen@?$CImg@E@cimg_library@@QEAAAEAU12@M_NMMM@Z@4HA 000000018002c2fc f   * CIL library *:* CIL module *
 0001:0002b310       ?dtor$0@?0???$?YE@?$CImg@M@cimg_library@@QEAAAEAU01@AEBU?$CImg@E@1@@Z@4HA 000000018002c310 f   * CIL library *:* CIL module *
 0001:0002b320       ?catch$0@?0??Execute@PasteWorker@@UEAAXXZ@4HA 000000018002c320 f   * CIL library *:* CIL module *
 0001:0002b32d       __catch$?Execute@PasteWorker@@UEAAXXZ$0 000000018002c32d f   * CIL library *:* CIL module *
 0001:0002b359       ?dtor$1@?0??Execute@PasteWorker@@UEAAXXZ@4HA 000000018002c359 f   * CIL library *:* CIL module *
 0001:0002b365       _onexit$fin$0              000000018002c365 f   LIBCMT:onexit.obj
 0001:0002b379       fwprintf$fin$0             000000018002c379 f   LIBCMT:fopen.obj
 0001:0002b379       _fsopen$fin$0              000000018002c379 f   LIBCMT:fopen.obj
 0001:0002b393       fprintf$fin$0              000000018002c393 f   LIBCMT:fprintf.obj
 0001:0002b3ad       getenv$fin$0               000000018002c3ad f   LIBCMT:getenv.obj
 0001:0002b3c6       fflush$fin$0               000000018002c3c6 f   LIBCMT:fclose.obj
 0001:0002b3c6       fclose$fin$0               000000018002c3c6 f   LIBCMT:fclose.obj
 0001:0002b3de       _CRT_INIT$fin$0            000000018002c3de f   LIBCMT:dllcrt0.obj
 0001:0002b404       __DllMainCRTStartup$filt$0 000000018002c404 f   LIBCMT:dllcrt0.obj
 0001:0002b44d       _CallSETranslator$filt$0   000000018002c44d f   LIBCMT:trnsctrl.obj
 0001:0002b493       doexit$fin$0               000000018002c493 f   LIBCMT:crt0dat.obj
 0001:0002b4b7       _ctrlfp$filt$0             000000018002c4b7 f   LIBCMT:fpctrl.obj
 0001:0002b4e3       flsall$fin$0               000000018002c4e3 f   LIBCMT:fflush.obj
 0001:0002b50b       flsall$fin$1               000000018002c50b f   LIBCMT:fflush.obj
 0001:0002b524       _mtinitlocknum$fin$0       000000018002c524 f   LIBCMT:mlock.obj
 0001:0002b541       setvbuf$fin$0              000000018002c541 f   LIBCMT:setvbuf.obj
 0001:0002b559       raise$fin$0                000000018002c559 f   LIBCMT:winsig.obj
 0001:0002b577       _getstream$fin$0           000000018002c577 f   LIBCMT:stream.obj
 0001:0002b577       _fcloseall$fin$0           000000018002c577 f   LIBCMT:stream.obj
 0001:0002b590       _ioinit$fin$0              000000018002c590 f   LIBCMT:ioinit.obj
 0001:0002b5ab       _freefls$fin$1             000000018002c5ab f   LIBCMT:tidtable.obj
 0001:0002b5ab       _initptd$fin$1             000000018002c5ab f   LIBCMT:tidtable.obj
 0001:0002b5c4       _initptd$fin$0             000000018002c5c4 f   LIBCMT:tidtable.obj
 0001:0002b5c4       _freefls$fin$0             000000018002c5c4 f   LIBCMT:tidtable.obj
 0001:0002b5dd       ?fin$0@?0??_Type_info_dtor@type_info@@CAXPEAV1@@Z@4HA 000000018002c5dd f   LIBCMT:typname.obj
 0001:0002b5f6       _setmbcp$fin$0             000000018002c5f6 f   LIBCMT:mbctype.obj
 0001:0002b5f6       __updatetmbcinfo$fin$0     000000018002c5f6 f   LIBCMT:mbctype.obj
 0001:0002b60f       _locterm$fin$0             000000018002c60f f   LIBCMT:wsetloca.obj
 0001:0002b60f       __updatetlocinfo$fin$0     000000018002c60f f   LIBCMT:wsetloca.obj
 0001:0002b628       __CxxCallCatchBlock$filt$0 000000018002c628 f   LIBCMT:frame.obj
 0001:0002b71c       __CxxCallCatchBlock$fin$1  000000018002c71c f   LIBCMT:frame.obj
 0001:0002b79a       __DestructExceptionObject$filt$0 000000018002c79a f   LIBCMT:frame.obj
 0001:0002b7b2       __FrameUnwindToState$filt$0 000000018002c7b2 f   LIBCMT:frame.obj
 0001:0002b7c8       __FrameUnwindToState$fin$1 000000018002c7c8 f   LIBCMT:frame.obj
 0001:0002b800       _IsNonwritableInCurrentImage$filt$0 000000018002c800 f   LIBCMT:pesect.obj
 0001:0002b820       _lseeki64$fin$0            000000018002c820 f   LIBCMT:write.obj
 0001:0002b820       _write$fin$0               000000018002c820 f   LIBCMT:write.obj
 0001:0002b837       _close$fin$0               000000018002c837 f   LIBCMT:commit.obj
 0001:0002b837       _commit$fin$0              000000018002c837 f   LIBCMT:commit.obj
 0001:0002b84e       _sopen_helper$fin$0        000000018002c84e f   LIBCMT:open.obj
 0001:0002b8a1       __lock_fhandle$fin$0       000000018002c8a1 f   LIBCMT:osfinfo.obj
 0001:0002b8ba       _alloc_osfhnd$fin$0        000000018002c8ba f   LIBCMT:osfinfo.obj
 0001:0002b8d5       _alloc_osfhnd$fin$1        000000018002c8d5 f   LIBCMT:osfinfo.obj
 0001:0002b9b0       ??__F?constructor@LwipImage@@0V?$Persistent@VFunctionTemplate@v8@@V?$NonCopyablePersistentTraits@VFunctionTemplate@v8@@@2@@Nan@@A@@YAXXZ 000000018002c9b0 f   * CIL library *:* CIL module *
 0002:000002a0       piecewise_construct$initializer$ 000000018002d2a0     * CIL library *:* CIL module *
 0002:000002a8       allocator_arg$initializer$ 000000018002d2a8     * CIL library *:* CIL module *
 0002:000002b0       piecewise_construct$initializer$ 000000018002d2b0     * CIL library *:* CIL module *
 0002:000002b8       allocator_arg$initializer$ 000000018002d2b8     * CIL library *:* CIL module *
 0002:000002c0       ?constructor$initializer$@LwipImage@@0P6AXXZEA 000000018002d2c0     * CIL library *:* CIL module *
 0002:000002c8       piecewise_construct$initializer$ 000000018002d2c8     * CIL library *:* CIL module *
 0002:000002d0       allocator_arg$initializer$ 000000018002d2d0     * CIL library *:* CIL module *
 0002:000002d8       piecewise_construct$initializer$ 000000018002d2d8     * CIL library *:* CIL module *
 0002:000002e0       allocator_arg$initializer$ 000000018002d2e0     * CIL library *:* CIL module *
 0002:000002e8       piecewise_construct$initializer$ 000000018002d2e8     * CIL library *:* CIL module *
 0002:000002f0       allocator_arg$initializer$ 000000018002d2f0     * CIL library *:* CIL module *
 0002:000002f8       piecewise_construct$initializer$ 000000018002d2f8     * CIL library *:* CIL module *
 0002:00000300       allocator_arg$initializer$ 000000018002d300     * CIL library *:* CIL module *
 0002:00000308       piecewise_construct$initializer$ 000000018002d308     * CIL library *:* CIL module *
 0002:00000310       allocator_arg$initializer$ 000000018002d310     * CIL library *:* CIL module *
 0002:00000318       piecewise_construct$initializer$ 000000018002d318     * CIL library *:* CIL module *
 0002:00000320       allocator_arg$initializer$ 000000018002d320     * CIL library *:* CIL module *
 0002:00000328       piecewise_construct$initializer$ 000000018002d328     * CIL library *:* CIL module *
 0002:00000330       allocator_arg$initializer$ 000000018002d330     * CIL library *:* CIL module *
 0002:00000338       piecewise_construct$initializer$ 000000018002d338     * CIL library *:* CIL module *
 0002:00000340       allocator_arg$initializer$ 000000018002d340     * CIL library *:* CIL module *
 0002:00000348       piecewise_construct$initializer$ 000000018002d348     * CIL library *:* CIL module *
 0002:00000350       allocator_arg$initializer$ 000000018002d350     * CIL library *:* CIL module *
 0002:00000358       piecewise_construct$initializer$ 000000018002d358     * CIL library *:* CIL module *
 0002:00000360       allocator_arg$initializer$ 000000018002d360     * CIL library *:* CIL module *
 0002:00000368       piecewise_construct$initializer$ 000000018002d368     * CIL library *:* CIL module *
 0002:00000370       allocator_arg$initializer$ 000000018002d370     * CIL library *:* CIL module *
 0002:00000390       pinit                      000000018002d390     LIBCMT:onexit.obj
 0002:00000398       pinit                      000000018002d398     LIBCMT:_file.obj
 0002:000003a0       pinit                      000000018002d3a0     LIBCMT:cpu_disp.obj
 0002:000003a8       pinit                      000000018002d3a8     LIBCMT:mbctype.obj
 0002:000003b0       init_fma3                  000000018002d3b0     LIBCMT:fma3_available.obj
 0002:000003c8       pterm                      000000018002d3c8     LIBCMT:wsetloca.obj
 0002:000003d0       pterm                      000000018002d3d0     LIBCMT:initcon.obj
 0002:000003d8       pterm                      000000018002d3d8     LIBCMT:_file.obj
 0002:00000450       _Win_errtab                000000018002d450     libcpmt:syserror.obj
 0002:00000900       _Sys_errtab                000000018002d900     libcpmt:syserror.obj
 0002:00001a50       ?ExceptionTemplate@?1??_CxxThrowException@@9@4UEHExceptionRecord@@B 000000018002ea50     LIBCMT:throw.obj
 0002:00001a90       ?ExceptionTemplate@?1??_UnwindNestedFrames@@9@4U_EXCEPTION_RECORD@@B 000000018002ea90     LIBCMT:trnsctrl.obj
 0002:00001b60       GS_ExceptionPointers       000000018002eb60     LIBCMT:gs_report.obj
 0002:00001d00       rterrs                     000000018002ed00     LIBCMT:crt0msg.obj
 0002:000027d8       ?ccsField@?P@??_openfile@@9@9 000000018002f7d8     LIBCMT:_open.obj
 0002:000027dc       ?utf8encoding@?P@??_openfile@@9@9 000000018002f7dc     LIBCMT:_open.obj
 0002:000027e8       ?utf16encoding@?P@??_openfile@@9@9 000000018002f7e8     LIBCMT:_open.obj
 0002:000027f8       ?unicodeencoding@?P@??_openfile@@9@9 000000018002f7f8     LIBCMT:_open.obj
 0002:00002800       _mb_locale_names           000000018002f800     LIBCMT:mbctype.obj
 0002:00002c20       _first_127char             000000018002fc20     LIBCMT:wsetloca.obj
 0002:000063e0       __real@433fffffffffffff    00000001800333e0     LIBCMT:fpsr.obj
 0002:000063e8       __real@c33fffffffffffff    00000001800333e8     LIBCMT:fpsr.obj
 0002:000064c0       tokenTable                 00000001800334c0     LIBCMT:undname.obj
 0002:00006530       nameTable                  0000000180033530     LIBCMT:undname.obj
 0002:000067b0       rttiTable                  00000001800337b0     LIBCMT:undname.obj
 0002:000076d0       logo40x38                  00000001800346d0     * CIL library *:* CIL module *
 0002:000088b0       t_normal                   00000001800358b0     * CIL library *:* CIL module *
 0002:000088b1       t_normal                   00000001800358b1     * CIL library *:* CIL module *
 0002:000088b2       t_normal                   00000001800358b2     * CIL library *:* CIL module *
 0002:000088b3       t_normal                   00000001800358b3     * CIL library *:* CIL module *
 0002:000088b4       t_normal                   00000001800358b4     * CIL library *:* CIL module *
 0002:000088b5       t_normal                   00000001800358b5     * CIL library *:* CIL module *
 0002:000088b6       t_normal                   00000001800358b6     * CIL library *:* CIL module *
 0002:000088b7       t_normal                   00000001800358b7     * CIL library *:* CIL module *
 0002:000088b8       t_green                    00000001800358b8     * CIL library *:* CIL module *
 0002:000088c0       logo40x38                  00000001800358c0     * CIL library *:* CIL module *
 0002:00009aa0       t_red                      0000000180036aa0     * CIL library *:* CIL module *
 0002:00009aa8       t_bold                     0000000180036aa8     * CIL library *:* CIL module *
 0002:00009ab0       logo40x38                  0000000180036ab0     * CIL library *:* CIL module *
 0002:0000ac90       t_green                    0000000180037c90     * CIL library *:* CIL module *
 0002:0000ac98       t_red                      0000000180037c98     * CIL library *:* CIL module *
 0002:0000aca0       t_bold                     0000000180037ca0     * CIL library *:* CIL module *
 0002:0000aca8       PI                         0000000180037ca8     * CIL library *:* CIL module *
 0002:0000acb0       logo40x38                  0000000180037cb0     * CIL library *:* CIL module *
 0002:0000be90       t_green                    0000000180038e90     * CIL library *:* CIL module *
 0002:0000be98       t_red                      0000000180038e98     * CIL library *:* CIL module *
 0002:0000bea0       t_bold                     0000000180038ea0     * CIL library *:* CIL module *
 0002:0000bea8       PI                         0000000180038ea8     * CIL library *:* CIL module *
 0002:0000beb0       logo40x38                  0000000180038eb0     * CIL library *:* CIL module *
 0002:0000d090       logo40x38                  000000018003a090     * CIL library *:* CIL module *
 0002:0000e270       t_green                    000000018003b270     * CIL library *:* CIL module *
 0002:0000e278       t_red                      000000018003b278     * CIL library *:* CIL module *
 0002:0000e280       t_bold                     000000018003b280     * CIL library *:* CIL module *
 0002:0000e288       t_green                    000000018003b288     * CIL library *:* CIL module *
 0002:0000e290       logo40x38                  000000018003b290     * CIL library *:* CIL module *
 0002:0000f470       t_red                      000000018003c470     * CIL library *:* CIL module *
 0002:0000f478       t_bold                     000000018003c478     * CIL library *:* CIL module *
 0002:0000f480       logo40x38                  000000018003c480     * CIL library *:* CIL module *
 0002:00010660       t_red                      000000018003d660     * CIL library *:* CIL module *
 0002:00010668       t_green                    000000018003d668     * CIL library *:* CIL module *
 0002:00010670       t_bold                     000000018003d670     * CIL library *:* CIL module *
 0002:00010678       t_green                    000000018003d678     * CIL library *:* CIL module *
 0002:00010680       logo40x38                  000000018003d680     * CIL library *:* CIL module *
 0002:00011860       t_normal                   000000018003e860     * CIL library *:* CIL module *
 0002:00011861       t_normal                   000000018003e861     * CIL library *:* CIL module *
 0002:00011862       t_normal                   000000018003e862     * CIL library *:* CIL module *
 0002:00011863       t_normal                   000000018003e863     * CIL library *:* CIL module *
 0002:00011864       t_normal                   000000018003e864     * CIL library *:* CIL module *
 0002:00011868       t_red                      000000018003e868     * CIL library *:* CIL module *
 0002:00011870       t_bold                     000000018003e870     * CIL library *:* CIL module *
 0002:00011878       t_red                      000000018003e878     * CIL library *:* CIL module *
 0002:00011880       logo40x38                  000000018003e880     * CIL library *:* CIL module *
 0002:00012a60       logo40x38                  000000018003fa60     * CIL library *:* CIL module *
 0002:00013c40       logo40x38                  0000000180040c40     * CIL library *:* CIL module *
 0002:00014e20       t_green                    0000000180041e20     * CIL library *:* CIL module *
 0002:00014e28       t_bold                     0000000180041e28     * CIL library *:* CIL module *
 0002:00014e30       logo40x38                  0000000180041e30     * CIL library *:* CIL module *
 0002:000179b0       $cppxdata$??0?$CImg@E@cimg_library@@QEAA@AEBU01@@Z 00000001800449b0     * CIL library *:* CIL module *
 0002:000179e0       $cppxdata$??0?$CImg@E@cimg_library@@QEAA@IIII@Z 00000001800449e0     * CIL library *:* CIL module *
 0002:00017a10       $cppxdata$??0?$CImg@E@cimg_library@@QEAA@QEBEIIII_N@Z 0000000180044a10     * CIL library *:* CIL module *
 0002:00017a40       $cppxdata$?assign@?$CImg@D@cimg_library@@QEAAAEAU12@IIII@Z 0000000180044a40     * CIL library *:* CIL module *
 0002:00017a70       $cppxdata$??0?$CImg@D@cimg_library@@QEAA@IIII@Z 0000000180044a70     * CIL library *:* CIL module *
 0002:00017aa0       $cppxdata$?setPixel@LwipImage@@SAXAEBV?$FunctionCallbackInfo@VValue@v8@@@Nan@@@Z 0000000180044aa0     * CIL library *:* CIL module *
 0002:00017ad0       $cppxdata$?paste@LwipImage@@SAXAEBV?$FunctionCallbackInfo@VValue@v8@@@Nan@@@Z 0000000180044ad0     * CIL library *:* CIL module *
 0002:00017b00       $cppxdata$?opacify@LwipImage@@SAXAEBV?$FunctionCallbackInfo@VValue@v8@@@Nan@@@Z 0000000180044b00     * CIL library *:* CIL module *
 0002:00017b30       $cppxdata$?hslaAdj@LwipImage@@SAXAEBV?$FunctionCallbackInfo@VValue@v8@@@Nan@@@Z 0000000180044b30     * CIL library *:* CIL module *
 0002:00017b60       $cppxdata$?sharpen@LwipImage@@SAXAEBV?$FunctionCallbackInfo@VValue@v8@@@Nan@@@Z 0000000180044b60     * CIL library *:* CIL module *
 0002:00017b90       $cppxdata$?pad@LwipImage@@SAXAEBV?$FunctionCallbackInfo@VValue@v8@@@Nan@@@Z 0000000180044b90     * CIL library *:* CIL module *
 0002:00017bc0       $cppxdata$?mirror@LwipImage@@SAXAEBV?$FunctionCallbackInfo@VValue@v8@@@Nan@@@Z 0000000180044bc0     * CIL library *:* CIL module *
 0002:00017bf0       $cppxdata$?crop@LwipImage@@SAXAEBV?$FunctionCallbackInfo@VValue@v8@@@Nan@@@Z 0000000180044bf0     * CIL library *:* CIL module *
 0002:00017c20       $cppxdata$?blur@LwipImage@@SAXAEBV?$FunctionCallbackInfo@VValue@v8@@@Nan@@@Z 0000000180044c20     * CIL library *:* CIL module *
 0002:00017c50       $cppxdata$?rotate@LwipImage@@SAXAEBV?$FunctionCallbackInfo@VValue@v8@@@Nan@@@Z 0000000180044c50     * CIL library *:* CIL module *
 0002:00017c80       $cppxdata$?resize@LwipImage@@SAXAEBV?$FunctionCallbackInfo@VValue@v8@@@Nan@@@Z 0000000180044c80     * CIL library *:* CIL module *
 0002:00017cb0       $cppxdata$?New@LwipImage@@SAXAEBV?$FunctionCallbackInfo@VValue@v8@@@Nan@@@Z 0000000180044cb0     * CIL library *:* CIL module *
 0002:00017ce0       $cppxdata$??_GLwipImage@@UEAAPEAXI@Z 0000000180044ce0     * CIL library *:* CIL module *
 0002:00017d10       $cppxdata$??0LwipImage@@QEAA@PEAE_K1@Z 0000000180044d10     * CIL library *:* CIL module *
 0002:00017d40       $cppxdata$?strbuffersize@cimg@cimg_library@@YAPEBDK@Z 0000000180044d40     * CIL library *:* CIL module *
 0002:00017d70       $cppxdata$?temporary_path@cimg@cimg_library@@YAPEBDQEBD_N@Z 0000000180044d70     * CIL library *:* CIL module *
 0002:00017da0       $cppxdata$??0CImgIOException@cimg_library@@QEAA@AEBU01@@Z 0000000180044da0     * CIL library *:* CIL module *
 0002:00017da0       $cppxdata$??0CImgArgumentException@cimg_library@@QEAA@AEBU01@@Z 0000000180044da0     * CIL library *:* CIL module *
 0002:00017da0       $cppxdata$??0CImgInstanceException@cimg_library@@QEAA@AEBU01@@Z 0000000180044da0     * CIL library *:* CIL module *
 0002:00017dd0       $cppxdata$??0CImgIOException@cimg_library@@QEAA@QEBDZZ 0000000180044dd0     * CIL library *:* CIL module *
 0002:00017e00       $cppxdata$??0CImgInstanceException@cimg_library@@QEAA@QEBDZZ 0000000180044e00     * CIL library *:* CIL module *
 0002:00017e30       $cppxdata$??0CImgArgumentException@cimg_library@@QEAA@QEBDZZ 0000000180044e30     * CIL library *:* CIL module *
 0002:00017e60       $cppxdata$??0CImgException@cimg_library@@QEAA@AEBU01@@Z 0000000180044e60     * CIL library *:* CIL module *
 0002:00017e90       $cppxdata$?SetPrototypeMethod@Nan@@YAXV?$Local@VFunctionTemplate@v8@@@v8@@PEBDP6AXAEBV?$FunctionCallbackInfo@VValue@v8@@@1@@Z@Z 0000000180044e90     * CIL library *:* CIL module *
 0002:00017ec0       $cppxdata$?SetFunction@Callback@Nan@@QEAAXAEBV?$Local@VFunction@v8@@@v8@@@Z 0000000180044ec0     * CIL library *:* CIL module *
 0002:00017ef0       $cppxdata$??0Callback@Nan@@QEAA@AEBV?$Local@VFunction@v8@@@v8@@@Z 0000000180044ef0     * CIL library *:* CIL module *
 0002:00017f20       $cppxdata$?New@?$Factory@VFunctionTemplate@v8@@@imp@Nan@@SA?AV?$Local@VFunctionTemplate@v8@@@v8@@P6AXAEBV?$FunctionCallbackInfo@VValue@v8@@@3@@ZV?$Local@VValue@v8@@@5@V?$Local@VSignature@v8@@@5@@Z 0000000180044f20     * CIL library *:* CIL module *
 0002:00017f50       $cppxdata$??1ObjectWrap@node@@UEAA@XZ 0000000180044f50     * CIL library *:* CIL module *
 0002:00017f80       $cppxdata$?assign@?$CImg@E@cimg_library@@QEAAAEAU12@QEBEIIII@Z 0000000180044f80     * CIL library *:* CIL module *
 0002:00017fb0       $cppxdata$??0?$CImg@E@cimg_library@@QEAA@AEBU01@_N@Z 0000000180044fb0     * CIL library *:* CIL module *
 0002:00017fe0       $cppxdata$??0?$CImg@I@cimg_library@@QEAA@IIII@Z 0000000180044fe0     * CIL library *:* CIL module *
 0002:00018010       $cppxdata$?draw_image@?$CImg@E@cimg_library@@QEAAAEAU12@HHHHAEBU12@M@Z 0000000180045010     * CIL library *:* CIL module *
 0002:00018040       $cppxdata$?get_crop@?$CImg@E@cimg_library@@QEBA?AU12@HHHHHHHH_N@Z 0000000180045040     * CIL library *:* CIL module *
 0002:00018070       $cppxdata$?assign@?$CImg@E@cimg_library@@QEAAAEAU12@IIII@Z 0000000180045070     * CIL library *:* CIL module *
 0002:000180a0       $cppxdata$??0?$CImg@E@cimg_library@@QEAA@IIIIAEBE@Z 00000001800450a0     * CIL library *:* CIL module *
 0002:000180d0       $cppxdata$??0?$CImg@M@cimg_library@@QEAA@IIIIAEBM@Z 00000001800450d0     * CIL library *:* CIL module *
 0002:00018100       $cppxdata$??0?$CImg@M@cimg_library@@QEAA@IIII@Z 0000000180045100     * CIL library *:* CIL module *
 0002:00018130       $cppxdata$?get_resize@?$CImg@E@cimg_library@@QEBA?AU12@HHHHHIMMMM@Z 0000000180045130     * CIL library *:* CIL module *
 0002:00018160       $cppxdata$?resize@?$CImg@E@cimg_library@@QEAAAEAU12@HHHHHIMMMM@Z 0000000180045160     * CIL library *:* CIL module *
 0002:00018190       $cppxdata$??0?$CImg@K@cimg_library@@QEAA@IIII@Z 0000000180045190     * CIL library *:* CIL module *
 0002:000181c0       $cppxdata$?Execute@ResizeWorker@@UEAAXXZ 00000001800451c0     * CIL library *:* CIL module *
 0002:000181f0       $cppxdata$?HandleErrorCallback@AsyncWorker@Nan@@MEAAXXZ 00000001800451f0     * CIL library *:* CIL module *
 0002:00018220       $cppxdata$?WorkComplete@AsyncWorker@Nan@@UEAAXXZ 0000000180045220     * CIL library *:* CIL module *
 0002:00018250       $cppxdata$??1AsyncWorker@Nan@@UEAA@XZ 0000000180045250     * CIL library *:* CIL module *
 0002:00018280       $cppxdata$??0AsyncWorker@Nan@@QEAA@PEAVCallback@1@@Z 0000000180045280     * CIL library *:* CIL module *
 0002:000182b0       $cppxdata$?Call_@Callback@Nan@@AEBA?AV?$Local@VValue@v8@@@v8@@PEAVIsolate@4@V?$Local@VObject@v8@@@4@HQEAV34@@Z 00000001800452b0     * CIL library *:* CIL module *
 0002:000182e0       $cppxdata$?get_rotate@?$CImg@E@cimg_library@@QEBA?AU12@MII@Z 00000001800452e0     * CIL library *:* CIL module *
 0002:00018310       $cppxdata$?Execute@RotateWorker@@UEAAXXZ 0000000180045310     * CIL library *:* CIL module *
 0002:00018340       $cppxdata$?crop@?$CImg@E@cimg_library@@QEAAAEAU12@HHHHHHHH_N@Z 0000000180045340     * CIL library *:* CIL module *
 0002:00018370       $cppxdata$?Execute@CropWorker@@UEAAXXZ 0000000180045370     * CIL library *:* CIL module *
 0002:000183a0       $cppxdata$?Execute@MirrorWorker@@UEAAXXZ 00000001800453a0     * CIL library *:* CIL module *
 0002:000183d0       $cppxdata$?Execute@PadWorker@@UEAAXXZ 00000001800453d0     * CIL library *:* CIL module *
 0002:00018400       $cppxdata$??$?YE@?$CImg@M@cimg_library@@QEAAAEAU01@AEBU?$CImg@E@1@@Z 0000000180045400     * CIL library *:* CIL module *
 0002:00018430       $cppxdata$?sharpen@?$CImg@E@cimg_library@@QEAAAEAU12@M_NMMM@Z 0000000180045430     * CIL library *:* CIL module *
 0002:00018460       $cppxdata$?Execute@SharpenWorker@@UEAAXXZ 0000000180045460     * CIL library *:* CIL module *
 0002:00018490       $cppxdata$?Execute@PasteWorker@@UEAAXXZ 0000000180045490     * CIL library *:* CIL module *
 0002:000184c0       $cppxdata$?SaveToPersistent@AsyncWorker@Nan@@QEAAXPEBDAEBV?$Local@VValue@v8@@@v8@@@Z 00000001800454c0     * CIL library *:* CIL module *
 0002:000184f0       ?atan_jby256_lead@?1??atan2@@9@9 00000001800454f0     LIBCMT:atan2.obj
 0002:00018c80       ?atan_jby256_tail@?1??atan2@@9@9 0000000180045c80     LIBCMT:atan2.obj
 0002:00019410       L_real_piby2_1             0000000180046410     LIBCMT:cos.obj
 0002:00019420       L_real_piby2_1tail         0000000180046420     LIBCMT:cos.obj
 0002:00019430       L_real_piby2_2             0000000180046430     LIBCMT:cos.obj
 0002:00019440       L_real_piby2_2tail         0000000180046440     LIBCMT:cos.obj
 0002:00019450       L_one                      0000000180046450     LIBCMT:cos.obj
 0002:00019460       L_signbit                  0000000180046460     LIBCMT:cos.obj
 0002:00019470       L_int_one                  0000000180046470     LIBCMT:cos.obj
 0002:00019480       L_int_two                  0000000180046480     LIBCMT:cos.obj
 0002:00019490       L_2_by_pi                  0000000180046490     LIBCMT:cos.obj
 0002:00019498       L_one_half                 0000000180046498     LIBCMT:cos.obj
 0002:000194a0       L_neg_one_half             00000001800464a0     LIBCMT:cos.obj
 0002:000194a8       L_two_to_neg_27            00000001800464a8     LIBCMT:cos.obj
 0002:000194b0       L_two_to_neg_13            00000001800464b0     LIBCMT:cos.obj
 0002:000194b8       L_piby4                    00000001800464b8     LIBCMT:cos.obj
 0002:000194c0       L_small_arg_cw             00000001800464c0     LIBCMT:cos.obj
 0002:000194c8       L_small_arg_bdl            00000001800464c8     LIBCMT:cos.obj
 0002:000194d0       L_sign_mask                00000001800464d0     LIBCMT:cos.obj
 0002:000194d8       L__inf_mask_64             00000001800464d8     LIBCMT:cos.obj
 0002:000194e0       L_real_one                 00000001800464e0     LIBCMT:cosf.obj
 0002:000194f0       L_one_half                 00000001800464f0     LIBCMT:cosf.obj
 0002:00019500       L_2bypi                    0000000180046500     LIBCMT:cosf.obj
 0002:00019510       L_one_sixth                0000000180046510     LIBCMT:cosf.obj
 0002:00019520       L_piby2                    0000000180046520     LIBCMT:cosf.obj
 0002:00019530       L_piby2_1                  0000000180046530     LIBCMT:cosf.obj
 0002:00019540       L_piby2_1tail              0000000180046540     LIBCMT:cosf.obj
 0002:00019550       L_piby2_2                  0000000180046550     LIBCMT:cosf.obj
 0002:00019560       L_piby2_2tail              0000000180046560     LIBCMT:cosf.obj
 0002:00019570       L_large_x_sse2             0000000180046570     LIBCMT:cosf.obj
 0002:00019580       L_large_x_fma3             0000000180046580     LIBCMT:cosf.obj
 0002:00019590       L_sign_mask                0000000180046590     LIBCMT:cosf.obj
 0002:000195a0       L__int_three               00000001800465a0     LIBCMT:cosf.obj
 0002:000195b0       L__min_norm_double         00000001800465b0     LIBCMT:cosf.obj
 0002:000195c0       L_two_to_neg_7             00000001800465c0     LIBCMT:cosf.obj
 0002:000195d0       L_two_to_neg_13            00000001800465d0     LIBCMT:cosf.obj
 0002:000195e0       L_inf_mask_32              00000001800465e0     LIBCMT:cosf.obj
 0002:000195f0       __real_inf                 00000001800465f0     LIBCMT:expf.obj
 0002:00019600       __real_ninf                0000000180046600     LIBCMT:expf.obj
 0002:00019610       __real_qnanbit             0000000180046610     LIBCMT:expf.obj
 0002:00019620       __real_zero                0000000180046620     LIBCMT:expf.obj
 0002:00019630       __real_p8192               0000000180046630     LIBCMT:expf.obj
 0002:00019640       __real_m9600               0000000180046640     LIBCMT:expf.obj
 0002:00019650       __real_64_by_log2          0000000180046650     LIBCMT:expf.obj
 0002:00019660       __real_log2_by_64          0000000180046660     LIBCMT:expf.obj
 0002:00019670       __real_1_by_6              0000000180046670     LIBCMT:expf.obj
 0002:00019680       __real_1_by_2              0000000180046680     LIBCMT:expf.obj
 0002:00019690       __flag_x_nan               0000000180046690     LIBCMT:expf.obj
 0002:00019694       __flag_y_zero              0000000180046694     LIBCMT:expf.obj
 0002:00019698       __flag_y_inf               0000000180046698     LIBCMT:expf.obj
 0002:000196b0       L__xexp_bits_xmantissa_bits 00000001800466b0     LIBCMT:powf.obj
 0002:000196c0       L__1_by_2                  00000001800466c0     LIBCMT:powf.obj
 0002:000196d0       L__1023                    00000001800466d0     LIBCMT:powf.obj
 0002:000196d8       L__1_by_3                  00000001800466d8     LIBCMT:powf.obj
 0002:000196e0       L__log2                    00000001800466e0     LIBCMT:powf.obj
 0002:000196e8       L__max_exp_arg             00000001800466e8     LIBCMT:powf.obj
 0002:000196f0       L__min_exp_arg             00000001800466f0     LIBCMT:powf.obj
 0002:000196f8       L__real_log2_by_64         00000001800466f8     LIBCMT:powf.obj
 0002:00019700       L__real_64_by_log2         0000000180046700     LIBCMT:powf.obj
 0002:00019710       L__1_by_6                  0000000180046710     LIBCMT:powf.obj
 0002:00019718       L__real_threshold          0000000180046718     LIBCMT:powf.obj
 0002:00019720       L__real_one                0000000180046720     LIBCMT:powf.obj
 0002:00019728       L__real_two                0000000180046728     LIBCMT:powf.obj
 0002:00019730       L__neg_zero                0000000180046730     LIBCMT:powf.obj
 0002:00019740       L__real_ca42               0000000180046740     LIBCMT:powf.obj
 0002:00019748       L__real_ca4                0000000180046748     LIBCMT:powf.obj
 0002:00019750       L__real_ca31               0000000180046750     LIBCMT:powf.obj
 0002:00019758       L__real_ca3                0000000180046758     LIBCMT:powf.obj
 0002:00019760       L__clear_sign              0000000180046760     LIBCMT:powf.obj
 0002:00019f80       L_real_piby2_1             0000000180046f80     LIBCMT:sin.obj
 0002:00019f90       L_real_piby2_1tail         0000000180046f90     LIBCMT:sin.obj
 0002:00019fa0       L_real_piby2_2             0000000180046fa0     LIBCMT:sin.obj
 0002:00019fb0       L_real_piby2_2tail         0000000180046fb0     LIBCMT:sin.obj
 0002:00019fc0       L_one                      0000000180046fc0     LIBCMT:sin.obj
 0002:00019fd0       L_signbit                  0000000180046fd0     LIBCMT:sin.obj
 0002:00019fe0       L_int_one                  0000000180046fe0     LIBCMT:sin.obj
 0002:00019ff0       L_int_two                  0000000180046ff0     LIBCMT:sin.obj
 0002:0001a000       L_int_three                0000000180047000     LIBCMT:sin.obj
 0002:0001a010       L_2_by_pi                  0000000180047010     LIBCMT:sin.obj
 0002:0001a018       L_one_half                 0000000180047018     LIBCMT:sin.obj
 0002:0001a020       L_one_sixth                0000000180047020     LIBCMT:sin.obj
 0002:0001a028       L_two_to_neg_27            0000000180047028     LIBCMT:sin.obj
 0002:0001a030       L_two_to_neg_13            0000000180047030     LIBCMT:sin.obj
 0002:0001a038       L_piby4                    0000000180047038     LIBCMT:sin.obj
 0002:0001a040       L_small_arg_cw             0000000180047040     LIBCMT:sin.obj
 0002:0001a048       L_small_arg_bdl            0000000180047048     LIBCMT:sin.obj
 0002:0001a050       L__inf_mask_64             0000000180047050     LIBCMT:sin.obj
 0002:0001a060       L_signbit                  0000000180047060     LIBCMT:sinf.obj
 0002:0001a070       L_sign_mask                0000000180047070     LIBCMT:sinf.obj
 0002:0001a080       L_one                      0000000180047080     LIBCMT:sinf.obj
 0002:0001a090       L_int_three                0000000180047090     LIBCMT:sinf.obj
 0002:0001a0a0       L_one_half                 00000001800470a0     LIBCMT:sinf.obj
 0002:0001a0b0       L_twobypi                  00000001800470b0     LIBCMT:sinf.obj
 0002:0001a0c0       L_piby2_1                  00000001800470c0     LIBCMT:sinf.obj
 0002:0001a0d0       L_one_sixth                00000001800470d0     LIBCMT:sinf.obj
 0002:0001a0e0       L_piby2_1tail              00000001800470e0     LIBCMT:sinf.obj
 0002:0001a0f0       L_piby2_2                  00000001800470f0     LIBCMT:sinf.obj
 0002:0001a100       L_piby2_2tail              0000000180047100     LIBCMT:sinf.obj
 0002:0001a110       L_inf_mask_32              0000000180047110     LIBCMT:sinf.obj
 0002:0001a120       L_int_two                  0000000180047120     LIBCMT:sinf.obj
 0002:0001a130       L_piby2_lead               0000000180047130     LIBCMT:sinf.obj
 0002:0001a140       L_piby4                    0000000180047140     LIBCMT:sinf.obj
 0002:0001a150       L_mask_3f2                 0000000180047150     LIBCMT:sinf.obj
 0002:0001a160       L_mask_3f8                 0000000180047160     LIBCMT:sinf.obj
 0002:0001a170       L_large_x_fma3             0000000180047170     LIBCMT:sinf.obj
 0002:0001a178       L_large_x_sse2             0000000180047178     LIBCMT:sinf.obj
 0002:0001a240       L__piby2_part3_piby2_lead  0000000180047240     LIBCMT:remainder_piby2_forAsm.obj
 0002:0001a250       L__piby2_part1             0000000180047250     LIBCMT:remainder_piby2_forAsm.obj
 0002:0001a260       L__piby2_part2             0000000180047260     LIBCMT:remainder_piby2_forAsm.obj
 0002:0001a270       L_piby2_1                  0000000180047270     LIBCMT:remainder_piby2_forAsm.obj
 0002:0001a280       L_piby2_2                  0000000180047280     LIBCMT:remainder_piby2_forAsm.obj
 0002:0001a290       L_piby2_3                  0000000180047290     LIBCMT:remainder_piby2_forAsm.obj
 0002:0001a2a0       L_piby2_1tail              00000001800472a0     LIBCMT:remainder_piby2_forAsm.obj
 0002:0001a2b0       L_piby2_2tail              00000001800472b0     LIBCMT:remainder_piby2_forAsm.obj
 0002:0001a2c0       L_piby2_3tail              00000001800472c0     LIBCMT:remainder_piby2_forAsm.obj
 0002:0001a2d0       L_twobypi                  00000001800472d0     LIBCMT:remainder_piby2_forAsm.obj
 0002:0001a2e0       L_point_five               00000001800472e0     LIBCMT:remainder_piby2_forAsm.obj
 0002:0001a2f0       L_int_three                00000001800472f0     LIBCMT:remainder_piby2_forAsm.obj
 0002:0001a300       L_inf_mask_64              0000000180047300     LIBCMT:remainder_piby2_forAsm.obj
 0002:0001a310       L_signbit                  0000000180047310     LIBCMT:remainder_piby2_forAsm.obj
 0002:0001a320       L_int_1                    0000000180047320     LIBCMT:remainder_piby2_forAsm.obj
 0002:0001a330       L_int_15                   0000000180047330     LIBCMT:remainder_piby2_forAsm.obj
 0002:0001a338       L_int_48                   0000000180047338     LIBCMT:remainder_piby2_forAsm.obj
 0002:0001a340       L_3pio4                    0000000180047340     LIBCMT:remainder_piby2_forAsm.obj
 0002:0001a348       L_5pio4                    0000000180047348     LIBCMT:remainder_piby2_forAsm.obj
 0002:0001a350       L_7pio4                    0000000180047350     LIBCMT:remainder_piby2_forAsm.obj
 0002:0001a358       L_9pio4                    0000000180047358     LIBCMT:remainder_piby2_forAsm.obj
 0002:0001a360       L__2_by_pi_bits            0000000180047360     LIBCMT:remainder_piby2_forAsm.obj
 0002:0001a400       L_piby2_lead               0000000180047400     LIBCMT:remainder_piby2_forFMA3.obj
 0002:0001a410       L_fff800                   0000000180047410     LIBCMT:remainder_piby2_forFMA3.obj
 0002:0001a420       L_piby2_part1              0000000180047420     LIBCMT:remainder_piby2_forFMA3.obj
 0002:0001a430       L_piby2_part2              0000000180047430     LIBCMT:remainder_piby2_forFMA3.obj
 0002:0001a440       L_piby2_part3              0000000180047440     LIBCMT:remainder_piby2_forFMA3.obj
 0002:0001a450       L_piby2_1                  0000000180047450     LIBCMT:remainder_piby2_forFMA3.obj
 0002:0001a460       L_piby2_2                  0000000180047460     LIBCMT:remainder_piby2_forFMA3.obj
 0002:0001a470       L_piby2_3                  0000000180047470     LIBCMT:remainder_piby2_forFMA3.obj
 0002:0001a480       L_piby2_1tail              0000000180047480     LIBCMT:remainder_piby2_forFMA3.obj
 0002:0001a490       L_piby2_2tail              0000000180047490     LIBCMT:remainder_piby2_forFMA3.obj
 0002:0001a4a0       L_piby2_3tail              00000001800474a0     LIBCMT:remainder_piby2_forFMA3.obj
 0002:0001a4b0       L_sign_mask                00000001800474b0     LIBCMT:remainder_piby2_forFMA3.obj
 0002:0001a4c0       L_twobypi                  00000001800474c0     LIBCMT:remainder_piby2_forFMA3.obj
 0002:0001a4d0       L_point_five               00000001800474d0     LIBCMT:remainder_piby2_forFMA3.obj
 0002:0001a4e0       L_int_three                00000001800474e0     LIBCMT:remainder_piby2_forFMA3.obj
 0002:0001a4f0       L_inf_mask_64              00000001800474f0     LIBCMT:remainder_piby2_forFMA3.obj
 0002:0001a500       L_signbit                  0000000180047500     LIBCMT:remainder_piby2_forFMA3.obj
 0002:0001a510       L_r                        0000000180047510     LIBCMT:remainder_piby2_forFMA3.obj
 0002:0001a520       L_xc1                      0000000180047520     LIBCMT:remainder_piby2_forFMA3.obj
 0002:0001a530       L_xc2                      0000000180047530     LIBCMT:remainder_piby2_forFMA3.obj
 0002:0001a540       L_xc3                      0000000180047540     LIBCMT:remainder_piby2_forFMA3.obj
 0002:0001a550       L_sigma                    0000000180047550     LIBCMT:remainder_piby2_forFMA3.obj
 0002:0001a570       L__piby2                   0000000180047570     LIBCMT:remainder_piby2f_forAsm.obj
 0002:0001b0a0       L__piby2                   00000001800480a0     LIBCMT:remainder_piby2f_forC.obj
 0002:0001b0b0       L__2_by_pi_bits            00000001800480b0     LIBCMT:remainder_piby2f_forC.obj
 0002:0001b5d8       $unwind$_invoke_watson     00000001800485d8     * CIL library *:* CIL module *
 0002:0001b5d8       $unwind$??8type_info@@QEBA_NAEBV0@@Z 00000001800485d8     * CIL library *:* CIL module *
 0002:0001b5d8       $unwind$__endstdio         00000001800485d8     * CIL library *:* CIL module *
 0002:0001b5d8       $unwind$__GSHandlerCheck   00000001800485d8     * CIL library *:* CIL module *
 0002:0001b5d8       $unwind$_wremove           00000001800485d8     * CIL library *:* CIL module *
 0002:0001b5d8       $unwind$_fileno            00000001800485d8     * CIL library *:* CIL module *
 0002:0001b5d8       $unwind$_stricmp           00000001800485d8     * CIL library *:* CIL module *
 0002:0001b5d8       $unwind$_errno             00000001800485d8     * CIL library *:* CIL module *
 0002:0001b5d8       $unwind$abort              00000001800485d8     * CIL library *:* CIL module *
 0002:0001b5d8       $unwind$_statfp            00000001800485d8     * CIL library *:* CIL module *
 0002:0001b5d8       $unwind$__initmbctable     00000001800485d8     * CIL library *:* CIL module *
 0002:0001b5d8       $unwind$__crtInitializeCriticalSectionEx 00000001800485d8     * CIL library *:* CIL module *
 0002:0001b5d8       $unwind$?__GetCurrentState@@YAHPEA_KPEAU_xDISPATCHER_CONTEXT@@PEBU_s_FuncInfo@@@Z 00000001800485d8     * CIL library *:* CIL module *
 0002:0001b5d8       $unwind$__crtDownlevelLocaleNameToLCID 00000001800485d8     * CIL library *:* CIL module *
 0002:0001b5d8       $unwind$_FF_MSGBANNER      00000001800485d8     * CIL library *:* CIL module *
 0002:0001b5d8       $unwind$_heap_init         00000001800485d8     * CIL library *:* CIL module *
 0002:0001b5d8       $unwind$_initp_eh_hooks    00000001800485d8     * CIL library *:* CIL module *
 0002:0001b5d8       $unwind$_msize             00000001800485d8     * CIL library *:* CIL module *
 0002:0001b5d8       $unwind$rand               00000001800485d8     * CIL library *:* CIL module *
 0002:0001b5d8       $unwind$_GetThrowImageBase 00000001800485d8     * CIL library *:* CIL module *
 0002:0001b5d8       $unwind$_purecall          00000001800485d8     * CIL library *:* CIL module *
 0002:0001b5d8       $unwind$_GetImageBase      00000001800485d8     * CIL library *:* CIL module *
 0002:0001b5d8       $unwind$__FrameUnwindFilter 00000001800485d8     * CIL library *:* CIL module *
 0002:0001b5d8       $unwind$atexit             00000001800485d8     * CIL library *:* CIL module *
 0002:0001b5d8       $unwind$__doserrno         00000001800485d8     * CIL library *:* CIL module *
 0002:0001b5d8       $unwind$_isatty            00000001800485d8     * CIL library *:* CIL module *
 0002:0001b5d8       $unwind$_strnicmp          00000001800485d8     * CIL library *:* CIL module *
 0002:0001b5d8       $unwind$_mtterm            00000001800485d8     * CIL library *:* CIL module *
 0002:0001b5d8       $unwind$_set_error_mode    00000001800485d8     * CIL library *:* CIL module *
 0002:0001b5d8       $unwind$__termconout       00000001800485d8     * CIL library *:* CIL module *
 0002:0001b5d8       $unwind$_set_errno_from_matherr 00000001800485d8     * CIL library *:* CIL module *
 0002:0001b5d8       $unwind$_get_fmode         00000001800485d8     * CIL library *:* CIL module *
 0002:0001b5d8       $unwind$_get_osfhandle     00000001800485d8     * CIL library *:* CIL module *
 0002:0001b5d8       $unwind$?InitAll@@YAXV?$Local@VObject@v8@@@v8@@@Z 00000001800485d8     * CIL library *:* CIL module *
 0002:0001b5e0       $unwind$__crtUnhandledException 00000001800485e0     * CIL library *:* CIL module *
 0002:0001b5e0       $unwind$wcsncat_s          00000001800485e0     * CIL library *:* CIL module *
 0002:0001b5e0       $unwind$??0logic_error@std@@QEAA@AEBV01@@Z 00000001800485e0     * CIL library *:* CIL module *
 0002:0001b5e0       $unwind$?AsyncExecuteComplete@Nan@@YAXPEAUuv_work_s@@@Z 00000001800485e0     * CIL library *:* CIL module *
 0002:0001b5e0       $unwind$??0length_error@std@@QEAA@AEBV01@@Z 00000001800485e0     * CIL library *:* CIL module *
 0002:0001b5e0       $unwind$wcscpy_s           00000001800485e0     * CIL library *:* CIL module *
 0002:0001b5e0       $unwind$wcscat_s           00000001800485e0     * CIL library *:* CIL module *
 0002:0001b5e0       $unwind$??0out_of_range@std@@QEAA@AEBV01@@Z 00000001800485e0     * CIL library *:* CIL module *
 0002:0001b5e0       $unwind$??0bad_exception@std@@QEAA@AEBV01@@Z 00000001800485e0     * CIL library *:* CIL module *
 0002:0001b5e0       $unwind$??0bad_alloc@std@@QEAA@AEBV01@@Z 00000001800485e0     * CIL library *:* CIL module *
 0002:0001b5e0       $unwind$__GSHandlerCheckCommon 00000001800485e0     * CIL library *:* CIL module *
 0002:0001b5e0       $unwind$??1CImgException@cimg_library@@UEAA@XZ 00000001800485e0     * CIL library *:* CIL module *
 0002:0001b5e0       $unwind$?Mutex_attr@cimg@cimg_library@@YAAEAUMutex_info@12@XZ 00000001800485e0     * CIL library *:* CIL module *
 0002:0001b5e0       $unwind$_callnewh          00000001800485e0     * CIL library *:* CIL module *
 0002:0001b5e0       $unwind$strcpy_s           00000001800485e0     * CIL library *:* CIL module *
 0002:0001b5e0       $unwind$??1CImgArgumentException@cimg_library@@UEAA@XZ 00000001800485e0     * CIL library *:* CIL module *
 0002:0001b5e0       $unwind$??1CImgInstanceException@cimg_library@@UEAA@XZ 00000001800485e0     * CIL library *:* CIL module *
 0002:0001b5e0       $unwind$?fill@?$CImg@M@cimg_library@@QEAAAEAU12@AEBM@Z 00000001800485e0     * CIL library *:* CIL module *
 0002:0001b5e0       $unwind$??1CImgIOException@cimg_library@@UEAA@XZ 00000001800485e0     * CIL library *:* CIL module *
 0002:0001b5e0       $unwind$_fflush_nolock     00000001800485e0     * CIL library *:* CIL module *
 0002:0001b5e0       $unwind$?_Tidy@exception@std@@AEAAXXZ 00000001800485e0     * CIL library *:* CIL module *
 0002:0001b5e0       $unwind$load_exe_hook      00000001800485e0     * CIL library *:* CIL module *
 0002:0001b5e0       $unwind$??0exception@std@@QEAA@AEBV01@@Z 00000001800485e0     * CIL library *:* CIL module *
 0002:0001b5e0       $unwind$?fclose@cimg@cimg_library@@YAHPEAU_iobuf@@@Z 00000001800485e0     * CIL library *:* CIL module *
 0002:0001b5e0       $unwind$??0exception@std@@QEAA@AEBQEBD@Z 00000001800485e0     * CIL library *:* CIL module *
 0002:0001b5e0       $unwind$_getbuf            00000001800485e0     * CIL library *:* CIL module *
 0002:0001b5e0       $unwind$_freebuf           00000001800485e0     * CIL library *:* CIL module *
 0002:0001b5e0       $unwind$remove             00000001800485e0     * CIL library *:* CIL module *
 0002:0001b5e0       $unwind$write_char         00000001800485e0     * CIL library *:* CIL module *
 0002:0001b5e0       $unwind$_clrfp             00000001800485e0     * CIL library *:* CIL module *
 0002:0001b5e0       $unwind$_lock_file2        00000001800485e0     * CIL library *:* CIL module *
 0002:0001b5e0       $unwind$_lock_file         00000001800485e0     * CIL library *:* CIL module *
 0002:0001b5e0       $unwind$write_char         00000001800485e0     * CIL library *:* CIL module *
 0002:0001b5e0       $unwind$_set_statfp        00000001800485e0     * CIL library *:* CIL module *
 0002:0001b5e0       $unwind$write_char         00000001800485e0     * CIL library *:* CIL module *
 0002:0001b5e0       $unwind$??0_LocaleUpdate@@QEAA@PEAUlocaleinfo_struct@@@Z 00000001800485e0     * CIL library *:* CIL module *
 0002:0001b5e0       $unwind$??_Gexception@stdext@@UEAAPEAXI@Z 00000001800485e0     * CIL library *:* CIL module *
 0002:0001b5e0       $unwind$?WeakCallback@ObjectWrap@node@@CAXAEBV?$WeakCallbackInfo@VObjectWrap@node@@@v8@@@Z 00000001800485e0     * CIL library *:* CIL module *
 0002:0001b5e0       $unwind$__crtLoadWinApiPointers 00000001800485e0     * CIL library *:* CIL module *
 0002:0001b5e0       $unwind$?__GetUnwindTryBlock@@YAHPEA_KPEAU_xDISPATCHER_CONTEXT@@PEBU_s_FuncInfo@@@Z 00000001800485e0     * CIL library *:* CIL module *
 0002:0001b5e0       $unwind$__crtTerminateProcess 00000001800485e0     * CIL library *:* CIL module *
 0002:0001b5e0       $unwind$wcsncpy_s          00000001800485e0     * CIL library *:* CIL module *
 0002:0001b5e0       $unwind$__crtIsPackagedApp 00000001800485e0     * CIL library *:* CIL module *
 0002:0001b5e0       $unwind$srand              00000001800485e0     * CIL library *:* CIL module *
 0002:0001b5e0       $unwind$_SetThrowImageBase 00000001800485e0     * CIL library *:* CIL module *
 0002:0001b5e0       $unwind$_SetImageBase      00000001800485e0     * CIL library *:* CIL module *
 0002:0001b5e0       $unwind$__onexitinit       00000001800485e0     * CIL library *:* CIL module *
 0002:0001b5e0       $unwind$_getptd            00000001800485e0     * CIL library *:* CIL module *
 0002:0001b5e0       $unwind$_IsExceptionObjectToBeDestroyed 00000001800485e0     * CIL library *:* CIL module *
 0002:0001b5e0       $unwind$_CreateFrameInfo   00000001800485e0     * CIL library *:* CIL module *
 0002:0001b5e0       $unwind$?Ref@ObjectWrap@node@@MEAAXXZ 00000001800485e0     * CIL library *:* CIL module *
 0002:0001b5e0       $unwind$_freeptd           00000001800485e0     * CIL library *:* CIL module *
 0002:0001b5e0       $unwind$_mtinit            00000001800485e0     * CIL library *:* CIL module *
 0002:0001b5e0       $unwind$_init_pointers     00000001800485e0     * CIL library *:* CIL module *
 0002:0001b5e0       $unwind$?Unref@ObjectWrap@node@@MEAAXXZ 00000001800485e0     * CIL library *:* CIL module *
 0002:0001b5e0       $unwind$_cinit             00000001800485e0     * CIL library *:* CIL module *
 0002:0001b5e0       $unwind$?assign@?$CImg@E@cimg_library@@QEAAAEAU12@XZ 00000001800485e0     * CIL library *:* CIL module *
 0002:0001b5e0       $unwind$__crtCorExitProcess 00000001800485e0     * CIL library *:* CIL module *
 0002:0001b5e0       $unwind$__crtExitProcess   00000001800485e0     * CIL library *:* CIL module *
 0002:0001b5e0       $unwind$_amsg_exit         00000001800485e0     * CIL library *:* CIL module *
 0002:0001b5e0       $unwind$??1?$basic_string@DU?$char_traits@D@std@@V?$allocator@D@2@@std@@QEAA@XZ 00000001800485e0     * CIL library *:* CIL module *
 0002:0001b5e0       $unwind$__raise_securityfailure 00000001800485e0     * CIL library *:* CIL module *
 0002:0001b5e8       $unwind$?_Copy@?$basic_string@DU?$char_traits@D@std@@V?$allocator@D@2@@std@@QEAAX_K0@Z 00000001800485e8     * CIL library *:* CIL module *
 0002:0001b5e8       $unwind$_XcptFilter        00000001800485e8     * CIL library *:* CIL module *
 0002:0001b5e8       $unwind$_mtdeletelocks     00000001800485e8     * CIL library *:* CIL module *
 0002:0001b5e8       $unwind$?setSBCS@@YAXPEAUthreadmbcinfostruct@@@Z 00000001800485e8     * CIL library *:* CIL module *
 0002:0001b5e8       $unwind$xtow_s             00000001800485e8     * CIL library *:* CIL module *
 0002:0001b5e8       $unwind$_initterm          00000001800485e8     * CIL library *:* CIL module *
 0002:0001b5e8       $unwind$?assign@?$basic_string@DU?$char_traits@D@std@@V?$allocator@D@2@@std@@QEAAAEAV12@AEBV12@_K1@Z 00000001800485e8     * CIL library *:* CIL module *
 0002:0001b5e8       $unwind$__freetlocinfo     00000001800485e8     * CIL library *:* CIL module *
 0002:0001b5e8       $unwind$?__StateFromIp@@YAHPEBU_s_FuncInfo@@PEAU_xDISPATCHER_CONTEXT@@_J@Z 00000001800485e8     * CIL library *:* CIL module *
 0002:0001b5fc       $unwind$_flush             00000001800485fc     * CIL library *:* CIL module *
 0002:0001b5fc       $unwind$?SetErrorMessage@AsyncWorker@Nan@@IEAAXPEBD@Z 00000001800485fc     * CIL library *:* CIL module *
 0002:0001b5fc       $unwind$_getenv_helper_nolock 00000001800485fc     * CIL library *:* CIL module *
 0002:0001b5fc       $unwind$memcpy_s           00000001800485fc     * CIL library *:* CIL module *
 0002:0001b5fc       $unwind$_exception_enabled 00000001800485fc     * CIL library *:* CIL module *
 0002:0001b5fc       $unwind$_mtinitlocks       00000001800485fc     * CIL library *:* CIL module *
 0002:0001b5fc       $unwind$_lseeki64_nolock   00000001800485fc     * CIL library *:* CIL module *
 0002:0001b5fc       $unwind$?assign@?$basic_string@DU?$char_traits@D@std@@V?$allocator@D@2@@std@@QEAAAEAV12@PEBD_K@Z 00000001800485fc     * CIL library *:* CIL module *
 0002:0001b5fc       $unwind$malloc             00000001800485fc     * CIL library *:* CIL module *
 0002:0001b5fc       $unwind$_ioterm            00000001800485fc     * CIL library *:* CIL module *
 0002:0001b5fc       $unwind$realloc            00000001800485fc     * CIL library *:* CIL module *
 0002:0001b5fc       $unwind$_DllMainCRTStartup 00000001800485fc     * CIL library *:* CIL module *
 0002:0001b5fc       $unwind$_recalloc          00000001800485fc     * CIL library *:* CIL module *
 0002:0001b60c       $unwind$??_GMirrorWorker@@UEAAPEAXI@Z 000000018004860c     * CIL library *:* CIL module *
 0002:0001b60c       $unwind$_close_nolock      000000018004860c     * CIL library *:* CIL module *
 0002:0001b60c       $unwind$??_GRotateWorker@@UEAAPEAXI@Z 000000018004860c     * CIL library *:* CIL module *
 0002:0001b60c       $unwind$?__SetUnwindTryBlock@@YAXPEA_KPEAU_xDISPATCHER_CONTEXT@@PEBU_s_FuncInfo@@H@Z 000000018004860c     * CIL library *:* CIL module *
 0002:0001b60c       $unwind$??_Glogic_error@std@@UEAAPEAXI@Z 000000018004860c     * CIL library *:* CIL module *
 0002:0001b60c       $unwind$??_GCropWorker@@UEAAPEAXI@Z 000000018004860c     * CIL library *:* CIL module *
 0002:0001b60c       $unwind$??_GOpacifyWorker@@UEAAPEAXI@Z 000000018004860c     * CIL library *:* CIL module *
 0002:0001b60c       $unwind$??_GPasteWorker@@UEAAPEAXI@Z 000000018004860c     * CIL library *:* CIL module *
 0002:0001b60c       $unwind$??_GResizeWorker@@UEAAPEAXI@Z 000000018004860c     * CIL library *:* CIL module *
 0002:0001b60c       $unwind$??_Gbad_alloc@std@@UEAAPEAXI@Z 000000018004860c     * CIL library *:* CIL module *
 0002:0001b60c       $unwind$??_Glength_error@std@@UEAAPEAXI@Z 000000018004860c     * CIL library *:* CIL module *
 0002:0001b60c       $unwind$_getptd_noexit     000000018004860c     * CIL library *:* CIL module *
 0002:0001b60c       $unwind$?erase@?$basic_string@DU?$char_traits@D@std@@V?$allocator@D@2@@std@@QEAAAEAV12@_K0@Z 000000018004860c     * CIL library *:* CIL module *
 0002:0001b60c       $unwind$??_GHSLAWorker@@UEAAPEAXI@Z 000000018004860c     * CIL library *:* CIL module *
 0002:0001b60c       $unwind$??_GAsyncWorker@Nan@@UEAAPEAXI@Z 000000018004860c     * CIL library *:* CIL module *
 0002:0001b60c       $unwind$??_Gbad_exception@std@@UEAAPEAXI@Z 000000018004860c     * CIL library *:* CIL module *
 0002:0001b60c       $unwind$??_Gout_of_range@std@@UEAAPEAXI@Z 000000018004860c     * CIL library *:* CIL module *
 0002:0001b60c       $unwind$_initp_misc_cfltcvt_tab 000000018004860c     * CIL library *:* CIL module *
 0002:0001b60c       $unwind$_fptostr           000000018004860c     * CIL library *:* CIL module *
 0002:0001b60c       $unwind$??_GCImgException@cimg_library@@UEAAPEAXI@Z 000000018004860c     * CIL library *:* CIL module *
 0002:0001b60c       $unwind$_RTC_Initialize    000000018004860c     * CIL library *:* CIL module *
 0002:0001b60c       $unwind$??_GPadWorker@@UEAAPEAXI@Z 000000018004860c     * CIL library *:* CIL module *
 0002:0001b60c       $unwind$__initstdio        000000018004860c     * CIL library *:* CIL module *
 0002:0001b60c       $unwind$_calloc_impl       000000018004860c     * CIL library *:* CIL module *
 0002:0001b60c       $unwind$_dosmaperr         000000018004860c     * CIL library *:* CIL module *
 0002:0001b60c       $unwind$??_GBlurWorker@@UEAAPEAXI@Z 000000018004860c     * CIL library *:* CIL module *
 0002:0001b60c       $unwind$??_Gtype_info@@UEAAPEAXI@Z 000000018004860c     * CIL library *:* CIL module *
 0002:0001b60c       $unwind$??_GObjectWrap@node@@UEAAPEAXI@Z 000000018004860c     * CIL library *:* CIL module *
 0002:0001b60c       $unwind$_FindAndUnlinkFrame 000000018004860c     * CIL library *:* CIL module *
 0002:0001b60c       $unwind$_updatetlocinfoEx_nolock 000000018004860c     * CIL library *:* CIL module *
 0002:0001b60c       $unwind$??_GCImgArgumentException@cimg_library@@UEAAPEAXI@Z 000000018004860c     * CIL library *:* CIL module *
 0002:0001b60c       $unwind$??_GSharpenWorker@@UEAAPEAXI@Z 000000018004860c     * CIL library *:* CIL module *
 0002:0001b60c       $unwind$_initterm_e        000000018004860c     * CIL library *:* CIL module *
 0002:0001b60c       $unwind$??4exception@std@@QEAAAEAV01@AEBV01@@Z 000000018004860c     * CIL library *:* CIL module *
 0002:0001b60c       $unwind$_RTC_Terminate     000000018004860c     * CIL library *:* CIL module *
 0002:0001b60c       $unwind$_fclose_nolock     000000018004860c     * CIL library *:* CIL module *
 0002:0001b60c       $unwind$??_GCImgIOException@cimg_library@@UEAAPEAXI@Z 000000018004860c     * CIL library *:* CIL module *
 0002:0001b60c       $unwind$??_Gexception@std@@UEAAPEAXI@Z 000000018004860c     * CIL library *:* CIL module *
 0002:0001b60c       $unwind$??_GCImgInstanceException@cimg_library@@UEAAPEAXI@Z 000000018004860c     * CIL library *:* CIL module *
 0002:0001b60c       $unwind$__freeCrtMemory    000000018004860c     * CIL library *:* CIL module *
 0002:0001b60c       $unwind$_lock              000000018004860c     * CIL library *:* CIL module *
 0002:0001b60c       $unwind$??_GSetPixelWorker@@UEAAPEAXI@Z 000000018004860c     * CIL library *:* CIL module *
 0002:0001b618       $unwind$??1ObjectWrap@node@@UEAA@XZ 0000000180048618     * CIL library *:* CIL module *
 0002:0001b628       $stateUnwindMap$??1ObjectWrap@node@@UEAA@XZ 0000000180048628     * CIL library *:* CIL module *
 0002:0001b630       $ip2state$??1ObjectWrap@node@@UEAA@XZ 0000000180048630     * CIL library *:* CIL module *
 0002:0001b648       $unwind$?Wrap@ObjectWrap@node@@IEAAXV?$Local@VObject@v8@@@v8@@@Z 0000000180048648     * CIL library *:* CIL module *
 0002:0001b654       $unwind$_setargv           0000000180048654     * CIL library *:* CIL module *
 0002:0001b654       $unwind$?FunctionCallbackWrapper@imp@Nan@@YAXAEBV?$FunctionCallbackInfo@VValue@v8@@@v8@@@Z 0000000180048654     * CIL library *:* CIL module *
 0002:0001b664       $unwind$?New@?$Factory@VFunctionTemplate@v8@@@imp@Nan@@SA?AV?$Local@VFunctionTemplate@v8@@@v8@@P6AXAEBV?$FunctionCallbackInfo@VValue@v8@@@3@@ZV?$Local@VValue@v8@@@5@V?$Local@VSignature@v8@@@5@@Z 0000000180048664     * CIL library *:* CIL module *
 0002:0001b67c       $stateUnwindMap$?New@?$Factory@VFunctionTemplate@v8@@@imp@Nan@@SA?AV?$Local@VFunctionTemplate@v8@@@v8@@P6AXAEBV?$FunctionCallbackInfo@VValue@v8@@@3@@ZV?$Local@VValue@v8@@@5@V?$Local@VSignature@v8@@@5@@Z 000000018004867c     * CIL library *:* CIL module *
 0002:0001b684       $ip2state$?New@?$Factory@VFunctionTemplate@v8@@@imp@Nan@@SA?AV?$Local@VFunctionTemplate@v8@@@v8@@P6AXAEBV?$FunctionCallbackInfo@VValue@v8@@@3@@ZV?$Local@VValue@v8@@@5@V?$Local@VSignature@v8@@@5@@Z 0000000180048684     * CIL library *:* CIL module *
 0002:0001b69c       $unwind$??0Callback@Nan@@QEAA@AEBV?$Local@VFunction@v8@@@v8@@@Z 000000018004869c     * CIL library *:* CIL module *
 0002:0001b6b4       $stateUnwindMap$??0Callback@Nan@@QEAA@AEBV?$Local@VFunction@v8@@@v8@@@Z 00000001800486b4     * CIL library *:* CIL module *
 0002:0001b6c4       $ip2state$??0Callback@Nan@@QEAA@AEBV?$Local@VFunction@v8@@@v8@@@Z 00000001800486c4     * CIL library *:* CIL module *
 0002:0001b6ec       $unwind$?SetFunction@Callback@Nan@@QEAAXAEBV?$Local@VFunction@v8@@@v8@@@Z 00000001800486ec     * CIL library *:* CIL module *
 0002:0001b700       $stateUnwindMap$?SetFunction@Callback@Nan@@QEAAXAEBV?$Local@VFunction@v8@@@v8@@@Z 0000000180048700     * CIL library *:* CIL module *
 0002:0001b700       $stateUnwindMap$?SaveToPersistent@AsyncWorker@Nan@@QEAAXPEBDAEBV?$Local@VValue@v8@@@v8@@@Z 0000000180048700     * CIL library *:* CIL module *
 0002:0001b700       $stateUnwindMap$?HandleErrorCallback@AsyncWorker@Nan@@MEAAXXZ 0000000180048700     * CIL library *:* CIL module *
 0002:0001b700       $stateUnwindMap$?Call_@Callback@Nan@@AEBA?AV?$Local@VValue@v8@@@v8@@PEAVIsolate@4@V?$Local@VObject@v8@@@4@HQEAV34@@Z 0000000180048700     * CIL library *:* CIL module *
 0002:0001b708       $ip2state$?SetFunction@Callback@Nan@@QEAAXAEBV?$Local@VFunction@v8@@@v8@@@Z 0000000180048708     * CIL library *:* CIL module *
 0002:0001b720       $unwind$?SetPrototypeMethod@Nan@@YAXV?$Local@VFunctionTemplate@v8@@@v8@@PEBDP6AXAEBV?$FunctionCallbackInfo@VValue@v8@@@1@@Z@Z 0000000180048720     * CIL library *:* CIL module *
 0002:0001b734       $stateUnwindMap$?SetPrototypeMethod@Nan@@YAXV?$Local@VFunctionTemplate@v8@@@v8@@PEBDP6AXAEBV?$FunctionCallbackInfo@VValue@v8@@@1@@Z@Z 0000000180048734     * CIL library *:* CIL module *
 0002:0001b73c       $ip2state$?SetPrototypeMethod@Nan@@YAXV?$Local@VFunctionTemplate@v8@@@v8@@PEBDP6AXAEBV?$FunctionCallbackInfo@VValue@v8@@@1@@Z@Z 000000018004873c     * CIL library *:* CIL module *
 0002:0001b754       $unwind$?_snprintf@cimg@cimg_library@@YAHQEAD_KQEBDZZ 0000000180048754     * CIL library *:* CIL module *
 0002:0001b75c       $unwind$_strdup            000000018004875c     * CIL library *:* CIL module *
 0002:0001b75c       $unwind$?_vsnprintf@cimg@cimg_library@@YAHQEAD_KQEBDPEAD@Z 000000018004875c     * CIL library *:* CIL module *
 0002:0001b76c       $unwind$??0CImgException@cimg_library@@QEAA@AEBU01@@Z 000000018004876c     * CIL library *:* CIL module *
 0002:0001b780       $stateUnwindMap$??0CImgArgumentException@cimg_library@@QEAA@AEBU01@@Z 0000000180048780     * CIL library *:* CIL module *
 0002:0001b780       $stateUnwindMap$??0CImgIOException@cimg_library@@QEAA@AEBU01@@Z 0000000180048780     * CIL library *:* CIL module *
 0002:0001b780       $stateUnwindMap$??0CImgException@cimg_library@@QEAA@AEBU01@@Z 0000000180048780     * CIL library *:* CIL module *
 0002:0001b780       $stateUnwindMap$??0CImgInstanceException@cimg_library@@QEAA@AEBU01@@Z 0000000180048780     * CIL library *:* CIL module *
 0002:0001b788       $ip2state$??0CImgException@cimg_library@@QEAA@AEBU01@@Z 0000000180048788     * CIL library *:* CIL module *
 0002:0001b7a0       $unwind$??0CImgArgumentException@cimg_library@@QEAA@QEBDZZ 00000001800487a0     * CIL library *:* CIL module *
 0002:0001b7b0       $stateUnwindMap$??0CImgInstanceException@cimg_library@@QEAA@QEBDZZ 00000001800487b0     * CIL library *:* CIL module *
 0002:0001b7b0       $stateUnwindMap$??0CImgIOException@cimg_library@@QEAA@QEBDZZ 00000001800487b0     * CIL library *:* CIL module *
 0002:0001b7b0       $stateUnwindMap$??0CImgArgumentException@cimg_library@@QEAA@QEBDZZ 00000001800487b0     * CIL library *:* CIL module *
 0002:0001b7d8       $ip2state$??0CImgArgumentException@cimg_library@@QEAA@QEBDZZ 00000001800487d8     * CIL library *:* CIL module *
 0002:0001b7f8       $unwind$??0CImgInstanceException@cimg_library@@QEAA@QEBDZZ 00000001800487f8     * CIL library *:* CIL module *
 0002:0001b808       $ip2state$??0CImgInstanceException@cimg_library@@QEAA@QEBDZZ 0000000180048808     * CIL library *:* CIL module *
 0002:0001b828       $unwind$??0CImgIOException@cimg_library@@QEAA@QEBDZZ 0000000180048828     * CIL library *:* CIL module *
 0002:0001b838       $ip2state$??0CImgIOException@cimg_library@@QEAA@QEBDZZ 0000000180048838     * CIL library *:* CIL module *
 0002:0001b858       $chain$1$?Mutex_attr@cimg@cimg_library@@YAAEAUMutex_info@12@XZ 0000000180048858     * CIL library *:* CIL module *
 0002:0001b870       $chain$2$?Mutex_attr@cimg@cimg_library@@YAAEAUMutex_info@12@XZ 0000000180048870     * CIL library *:* CIL module *
 0002:0001b880       $unwind$?warn@cimg@cimg_library@@YAXQEBDZZ 0000000180048880     * CIL library *:* CIL module *
 0002:0001b888       $chain$0$?warn@cimg@cimg_library@@YAXQEBDZZ 0000000180048888     * CIL library *:* CIL module *
 0002:0001b89c       $chain$1$?warn@cimg@cimg_library@@YAXQEBDZZ 000000018004889c     * CIL library *:* CIL module *
 0002:0001b8ac       $unwind$?filenamerand@cimg@cimg_library@@YAPEBDXZ 00000001800488ac     * CIL library *:* CIL module *
 0002:0001b8c0       $unwind$free               00000001800488c0     * CIL library *:* CIL module *
 0002:0001b8c0       $unwind$__free_lconv_num   00000001800488c0     * CIL library *:* CIL module *
 0002:0001b8c0       $unwind$?winformat_string@cimg@cimg_library@@YAXQEAD@Z 00000001800488c0     * CIL library *:* CIL module *
 0002:0001b8c8       $chain$0$?winformat_string@cimg@cimg_library@@YAXQEAD@Z 00000001800488c8     * CIL library *:* CIL module *
 0002:0001b8dc       $chain$1$?winformat_string@cimg@cimg_library@@YAXQEAD@Z 00000001800488dc     * CIL library *:* CIL module *
 0002:0001b8ec       $unwind$??0CImgArgumentException@cimg_library@@QEAA@AEBU01@@Z 00000001800488ec     * CIL library *:* CIL module *
 0002:0001b8ec       $unwind$??0CImgInstanceException@cimg_library@@QEAA@AEBU01@@Z 00000001800488ec     * CIL library *:* CIL module *
 0002:0001b8ec       $unwind$??0CImgIOException@cimg_library@@QEAA@AEBU01@@Z 00000001800488ec     * CIL library *:* CIL module *
 0002:0001b900       $ip2state$??0CImgIOException@cimg_library@@QEAA@AEBU01@@Z 0000000180048900     * CIL library *:* CIL module *
 0002:0001b900       $ip2state$??0CImgArgumentException@cimg_library@@QEAA@AEBU01@@Z 0000000180048900     * CIL library *:* CIL module *
 0002:0001b900       $ip2state$??0CImgInstanceException@cimg_library@@QEAA@AEBU01@@Z 0000000180048900     * CIL library *:* CIL module *
 0002:0001b918       $unwind$?info@cimg@cimg_library@@YAXXZ 0000000180048918     * CIL library *:* CIL module *
 0002:0001b924       $unwind$?temporary_path@cimg@cimg_library@@YAPEBDQEBD_N@Z 0000000180048924     * CIL library *:* CIL module *
 0002:0001b944       $stateUnwindMap$?temporary_path@cimg@cimg_library@@YAPEBDQEBD_N@Z 0000000180048944     * CIL library *:* CIL module *
 0002:0001b954       $ip2state$?temporary_path@cimg@cimg_library@@YAPEBDQEBD_N@Z 0000000180048954     * CIL library *:* CIL module *
 0002:0001b98c       $unwind$_sopen_s           000000018004898c     * CIL library *:* CIL module *
 0002:0001b98c       $unwind$_vsnprintf_s       000000018004898c     * CIL library *:* CIL module *
 0002:0001b98c       $unwind$_vswprintf_c_l     000000018004898c     * CIL library *:* CIL module *
 0002:0001b98c       $unwind$?medcon_path@cimg@cimg_library@@YAPEBDQEBD_N@Z 000000018004898c     * CIL library *:* CIL module *
 0002:0001b98c       $unwind$_vsnprintf         000000018004898c     * CIL library *:* CIL module *
 0002:0001b98c       $unwind$_invalid_parameter_noinfo 000000018004898c     * CIL library *:* CIL module *
 0002:0001b98c       $unwind$_itow_s            000000018004898c     * CIL library *:* CIL module *
 0002:0001b98c       $unwind$wctomb_s           000000018004898c     * CIL library *:* CIL module *
 0002:0001b98c       $unwind$_cfltcvt_l         000000018004898c     * CIL library *:* CIL module *
 0002:0001b98c       $unwind$?programfiles_path@cimg@cimg_library@@YAPEBDQEBD_N@Z 000000018004898c     * CIL library *:* CIL module *
 0002:0001b994       $unwind$?graphicsmagick_path@cimg@cimg_library@@YAPEBDQEBD_N@Z 0000000180048994     * CIL library *:* CIL module *
 0002:0001b994       $unwind$?imagemagick_path@cimg@cimg_library@@YAPEBDQEBD_N@Z 0000000180048994     * CIL library *:* CIL module *
 0002:0001b9a0       $chain$4$?imagemagick_path@cimg@cimg_library@@YAPEBDQEBD_N@Z 00000001800489a0     * CIL library *:* CIL module *
 0002:0001b9c0       $chain$5$?imagemagick_path@cimg@cimg_library@@YAPEBDQEBD_N@Z 00000001800489c0     * CIL library *:* CIL module *
 0002:0001b9dc       $chain$6$?imagemagick_path@cimg@cimg_library@@YAPEBDQEBD_N@Z 00000001800489dc     * CIL library *:* CIL module *
 0002:0001b9f4       $chain$7$?imagemagick_path@cimg@cimg_library@@YAPEBDQEBD_N@Z 00000001800489f4     * CIL library *:* CIL module *
 0002:0001ba08       $chain$8$?imagemagick_path@cimg@cimg_library@@YAPEBDQEBD_N@Z 0000000180048a08     * CIL library *:* CIL module *
 0002:0001ba18       $chain$4$?graphicsmagick_path@cimg@cimg_library@@YAPEBDQEBD_N@Z 0000000180048a18     * CIL library *:* CIL module *
 0002:0001ba38       $chain$5$?graphicsmagick_path@cimg@cimg_library@@YAPEBDQEBD_N@Z 0000000180048a38     * CIL library *:* CIL module *
 0002:0001ba54       $chain$6$?graphicsmagick_path@cimg@cimg_library@@YAPEBDQEBD_N@Z 0000000180048a54     * CIL library *:* CIL module *
 0002:0001ba6c       $chain$7$?graphicsmagick_path@cimg@cimg_library@@YAPEBDQEBD_N@Z 0000000180048a6c     * CIL library *:* CIL module *
 0002:0001ba80       $chain$8$?graphicsmagick_path@cimg@cimg_library@@YAPEBDQEBD_N@Z 0000000180048a80     * CIL library *:* CIL module *
 0002:0001ba90       $chain$0$?medcon_path@cimg@cimg_library@@YAPEBDQEBD_N@Z 0000000180048a90     * CIL library *:* CIL module *
 0002:0001baa4       $chain$1$?medcon_path@cimg@cimg_library@@YAPEBDQEBD_N@Z 0000000180048aa4     * CIL library *:* CIL module *
 0002:0001bab4       $unwind$?strbuffersize@cimg@cimg_library@@YAPEBDK@Z 0000000180048ab4     * CIL library *:* CIL module *
 0002:0001bac4       $stateUnwindMap$?strbuffersize@cimg@cimg_library@@YAPEBDK@Z 0000000180048ac4     * CIL library *:* CIL module *
 0002:0001bacc       $ip2state$?strbuffersize@cimg@cimg_library@@YAPEBDK@Z 0000000180048acc     * CIL library *:* CIL module *
 0002:0001bae4       $unwind$?dtor$0@?0??strbuffersize@cimg@cimg_library@@YAPEBDK@Z@4HA 0000000180048ae4     * CIL library *:* CIL module *
 0002:0001baec       $unwind$?Init@LwipImage@@SAXV?$Local@VObject@v8@@@v8@@@Z 0000000180048aec     * CIL library *:* CIL module *
 0002:0001baf8       $unwind$??0LwipImage@@QEAA@PEAE_K1@Z 0000000180048af8     * CIL library *:* CIL module *
 0002:0001bb14       $stateUnwindMap$??0LwipImage@@QEAA@PEAE_K1@Z 0000000180048b14     * CIL library *:* CIL module *
 0002:0001bb24       $ip2state$??0LwipImage@@QEAA@PEAE_K1@Z 0000000180048b24     * CIL library *:* CIL module *
 0002:0001bb4c       $unwind$??_GLwipImage@@UEAAPEAXI@Z 0000000180048b4c     * CIL library *:* CIL module *
 0002:0001bb64       $stateUnwindMap$??_GLwipImage@@UEAAPEAXI@Z 0000000180048b64     * CIL library *:* CIL module *
 0002:0001bb6c       $ip2state$??_GLwipImage@@UEAAPEAXI@Z 0000000180048b6c     * CIL library *:* CIL module *
 0002:0001bb84       $unwind$?New@LwipImage@@SAXAEBV?$FunctionCallbackInfo@VValue@v8@@@Nan@@@Z 0000000180048b84     * CIL library *:* CIL module *
 0002:0001bba4       $stateUnwindMap$?New@LwipImage@@SAXAEBV?$FunctionCallbackInfo@VValue@v8@@@Nan@@@Z 0000000180048ba4     * CIL library *:* CIL module *
 0002:0001bbac       $ip2state$?New@LwipImage@@SAXAEBV?$FunctionCallbackInfo@VValue@v8@@@Nan@@@Z 0000000180048bac     * CIL library *:* CIL module *
 0002:0001bbc4       $unwind$?height@LwipImage@@SAXAEBV?$FunctionCallbackInfo@VValue@v8@@@Nan@@@Z 0000000180048bc4     * CIL library *:* CIL module *
 0002:0001bbc4       $unwind$?width@LwipImage@@SAXAEBV?$FunctionCallbackInfo@VValue@v8@@@Nan@@@Z 0000000180048bc4     * CIL library *:* CIL module *
 0002:0001bbd0       $unwind$?getPixel@LwipImage@@SAXAEBV?$FunctionCallbackInfo@VValue@v8@@@Nan@@@Z 0000000180048bd0     * CIL library *:* CIL module *
 0002:0001bbe8       $unwind$__CxxFrameHandler3 0000000180048be8     * CIL library *:* CIL module *
 0002:0001bbe8       $unwind$?buffer@LwipImage@@SAXAEBV?$FunctionCallbackInfo@VValue@v8@@@Nan@@@Z 0000000180048be8     * CIL library *:* CIL module *
 0002:0001bbf8       $unwind$?resize@LwipImage@@SAXAEBV?$FunctionCallbackInfo@VValue@v8@@@Nan@@@Z 0000000180048bf8     * CIL library *:* CIL module *
 0002:0001bc14       $stateUnwindMap$?resize@LwipImage@@SAXAEBV?$FunctionCallbackInfo@VValue@v8@@@Nan@@@Z 0000000180048c14     * CIL library *:* CIL module *
 0002:0001bc24       $ip2state$?resize@LwipImage@@SAXAEBV?$FunctionCallbackInfo@VValue@v8@@@Nan@@@Z 0000000180048c24     * CIL library *:* CIL module *
 0002:0001bc4c       $unwind$?rotate@LwipImage@@SAXAEBV?$FunctionCallbackInfo@VValue@v8@@@Nan@@@Z 0000000180048c4c     * CIL library *:* CIL module *
 0002:0001bc70       $stateUnwindMap$?rotate@LwipImage@@SAXAEBV?$FunctionCallbackInfo@VValue@v8@@@Nan@@@Z 0000000180048c70     * CIL library *:* CIL module *
 0002:0001bc70       $stateUnwindMap$?crop@LwipImage@@SAXAEBV?$FunctionCallbackInfo@VValue@v8@@@Nan@@@Z 0000000180048c70     * CIL library *:* CIL module *
 0002:0001bc80       $ip2state$?rotate@LwipImage@@SAXAEBV?$FunctionCallbackInfo@VValue@v8@@@Nan@@@Z 0000000180048c80     * CIL library *:* CIL module *
 0002:0001bca8       $unwind$?blur@LwipImage@@SAXAEBV?$FunctionCallbackInfo@VValue@v8@@@Nan@@@Z 0000000180048ca8     * CIL library *:* CIL module *
 0002:0001bcc4       $stateUnwindMap$?blur@LwipImage@@SAXAEBV?$FunctionCallbackInfo@VValue@v8@@@Nan@@@Z 0000000180048cc4     * CIL library *:* CIL module *
 0002:0001bcc4       $stateUnwindMap$?sharpen@LwipImage@@SAXAEBV?$FunctionCallbackInfo@VValue@v8@@@Nan@@@Z 0000000180048cc4     * CIL library *:* CIL module *
 0002:0001bcc4       $stateUnwindMap$?mirror@LwipImage@@SAXAEBV?$FunctionCallbackInfo@VValue@v8@@@Nan@@@Z 0000000180048cc4     * CIL library *:* CIL module *
 0002:0001bcd4       $ip2state$?blur@LwipImage@@SAXAEBV?$FunctionCallbackInfo@VValue@v8@@@Nan@@@Z 0000000180048cd4     * CIL library *:* CIL module *
 0002:0001bcfc       $unwind$?crop@LwipImage@@SAXAEBV?$FunctionCallbackInfo@VValue@v8@@@Nan@@@Z 0000000180048cfc     * CIL library *:* CIL module *
 0002:0001bd20       $ip2state$?crop@LwipImage@@SAXAEBV?$FunctionCallbackInfo@VValue@v8@@@Nan@@@Z 0000000180048d20     * CIL library *:* CIL module *
 0002:0001bd48       $unwind$?mirror@LwipImage@@SAXAEBV?$FunctionCallbackInfo@VValue@v8@@@Nan@@@Z 0000000180048d48     * CIL library *:* CIL module *
 0002:0001bd64       $ip2state$?mirror@LwipImage@@SAXAEBV?$FunctionCallbackInfo@VValue@v8@@@Nan@@@Z 0000000180048d64     * CIL library *:* CIL module *
 0002:0001bd8c       $unwind$?pad@LwipImage@@SAXAEBV?$FunctionCallbackInfo@VValue@v8@@@Nan@@@Z 0000000180048d8c     * CIL library *:* CIL module *
 0002:0001bdb0       $stateUnwindMap$?pad@LwipImage@@SAXAEBV?$FunctionCallbackInfo@VValue@v8@@@Nan@@@Z 0000000180048db0     * CIL library *:* CIL module *
 0002:0001bdc0       $ip2state$?pad@LwipImage@@SAXAEBV?$FunctionCallbackInfo@VValue@v8@@@Nan@@@Z 0000000180048dc0     * CIL library *:* CIL module *
 0002:0001bde8       $unwind$?sharpen@LwipImage@@SAXAEBV?$FunctionCallbackInfo@VValue@v8@@@Nan@@@Z 0000000180048de8     * CIL library *:* CIL module *
 0002:0001be04       $ip2state$?sharpen@LwipImage@@SAXAEBV?$FunctionCallbackInfo@VValue@v8@@@Nan@@@Z 0000000180048e04     * CIL library *:* CIL module *
 0002:0001be2c       $unwind$?hslaAdj@LwipImage@@SAXAEBV?$FunctionCallbackInfo@VValue@v8@@@Nan@@@Z 0000000180048e2c     * CIL library *:* CIL module *
 0002:0001be54       $stateUnwindMap$?hslaAdj@LwipImage@@SAXAEBV?$FunctionCallbackInfo@VValue@v8@@@Nan@@@Z 0000000180048e54     * CIL library *:* CIL module *
 0002:0001be64       $ip2state$?hslaAdj@LwipImage@@SAXAEBV?$FunctionCallbackInfo@VValue@v8@@@Nan@@@Z 0000000180048e64     * CIL library *:* CIL module *
 0002:0001be8c       $unwind$?opacify@LwipImage@@SAXAEBV?$FunctionCallbackInfo@VValue@v8@@@Nan@@@Z 0000000180048e8c     * CIL library *:* CIL module *
 0002:0001bea4       $stateUnwindMap$?opacify@LwipImage@@SAXAEBV?$FunctionCallbackInfo@VValue@v8@@@Nan@@@Z 0000000180048ea4     * CIL library *:* CIL module *
 0002:0001beb4       $ip2state$?opacify@LwipImage@@SAXAEBV?$FunctionCallbackInfo@VValue@v8@@@Nan@@@Z 0000000180048eb4     * CIL library *:* CIL module *
 0002:0001bedc       $unwind$?paste@LwipImage@@SAXAEBV?$FunctionCallbackInfo@VValue@v8@@@Nan@@@Z 0000000180048edc     * CIL library *:* CIL module *
 0002:0001bf00       $stateUnwindMap$?paste@LwipImage@@SAXAEBV?$FunctionCallbackInfo@VValue@v8@@@Nan@@@Z 0000000180048f00     * CIL library *:* CIL module *
 0002:0001bf18       $ip2state$?paste@LwipImage@@SAXAEBV?$FunctionCallbackInfo@VValue@v8@@@Nan@@@Z 0000000180048f18     * CIL library *:* CIL module *
 0002:0001bf50       $unwind$?setPixel@LwipImage@@SAXAEBV?$FunctionCallbackInfo@VValue@v8@@@Nan@@@Z 0000000180048f50     * CIL library *:* CIL module *
 0002:0001bf74       $stateUnwindMap$?setPixel@LwipImage@@SAXAEBV?$FunctionCallbackInfo@VValue@v8@@@Nan@@@Z 0000000180048f74     * CIL library *:* CIL module *
 0002:0001bf84       $ip2state$?setPixel@LwipImage@@SAXAEBV?$FunctionCallbackInfo@VValue@v8@@@Nan@@@Z 0000000180048f84     * CIL library *:* CIL module *
 0002:0001bfac       $unwind$??0?$CImg@D@cimg_library@@QEAA@IIII@Z 0000000180048fac     * CIL library *:* CIL module *
 0002:0001bfc0       $stateUnwindMap$??0?$CImg@E@cimg_library@@QEAA@IIIIAEBE@Z 0000000180048fc0     * CIL library *:* CIL module *
 0002:0001bfc0       $stateUnwindMap$??0?$CImg@E@cimg_library@@QEAA@IIII@Z 0000000180048fc0     * CIL library *:* CIL module *
 0002:0001bfc0       $stateUnwindMap$??0?$CImg@D@cimg_library@@QEAA@IIII@Z 0000000180048fc0     * CIL library *:* CIL module *
 0002:0001bfc0       $stateUnwindMap$??0?$CImg@K@cimg_library@@QEAA@IIII@Z 0000000180048fc0     * CIL library *:* CIL module *
 0002:0001bfc0       $stateUnwindMap$?assign@?$CImg@E@cimg_library@@QEAAAEAU12@QEBEIIII@Z 0000000180048fc0     * CIL library *:* CIL module *
 0002:0001bfc0       $stateUnwindMap$??0?$CImg@M@cimg_library@@QEAA@IIIIAEBM@Z 0000000180048fc0     * CIL library *:* CIL module *
 0002:0001bfc0       $stateUnwindMap$??0?$CImg@E@cimg_library@@QEAA@AEBU01@@Z 0000000180048fc0     * CIL library *:* CIL module *
 0002:0001bfc0       $stateUnwindMap$??0?$CImg@E@cimg_library@@QEAA@QEBEIIII_N@Z 0000000180048fc0     * CIL library *:* CIL module *
 0002:0001bfc0       $stateUnwindMap$??0?$CImg@E@cimg_library@@QEAA@AEBU01@_N@Z 0000000180048fc0     * CIL library *:* CIL module *
 0002:0001bfc0       $stateUnwindMap$??0?$CImg@M@cimg_library@@QEAA@IIII@Z 0000000180048fc0     * CIL library *:* CIL module *
 0002:0001bfc0       $stateUnwindMap$??0?$CImg@I@cimg_library@@QEAA@IIII@Z 0000000180048fc0     * CIL library *:* CIL module *
 0002:0001bfc0       $stateUnwindMap$?assign@?$CImg@D@cimg_library@@QEAAAEAU12@IIII@Z 0000000180048fc0     * CIL library *:* CIL module *
 0002:0001bfc0       $stateUnwindMap$?assign@?$CImg@E@cimg_library@@QEAAAEAU12@IIII@Z 0000000180048fc0     * CIL library *:* CIL module *
 0002:0001bfd0       $tryMap$??0?$CImg@D@cimg_library@@QEAA@IIII@Z 0000000180048fd0     * CIL library *:* CIL module *
 0002:0001bfe4       $handlerMap$0$??0?$CImg@D@cimg_library@@QEAA@IIII@Z 0000000180048fe4     * CIL library *:* CIL module *
 0002:0001bff8       $ip2state$??0?$CImg@D@cimg_library@@QEAA@IIII@Z 0000000180048ff8     * CIL library *:* CIL module *
 0002:0001c020       $unwind$?catch$0@?0???0?$CImg@D@cimg_library@@QEAA@IIII@Z@4HA 0000000180049020     * CIL library *:* CIL module *
 0002:0001c034       $unwind$?assign@?$CImg@D@cimg_library@@QEAAAEAU12@IIII@Z 0000000180049034     * CIL library *:* CIL module *
 0002:0001c04c       $tryMap$?assign@?$CImg@D@cimg_library@@QEAAAEAU12@IIII@Z 000000018004904c     * CIL library *:* CIL module *
 0002:0001c060       $handlerMap$0$?assign@?$CImg@D@cimg_library@@QEAAAEAU12@IIII@Z 0000000180049060     * CIL library *:* CIL module *
 0002:0001c074       $ip2state$?assign@?$CImg@D@cimg_library@@QEAAAEAU12@IIII@Z 0000000180049074     * CIL library *:* CIL module *
 0002:0001c09c       $unwind$?catch$0@?0??assign@?$CImg@D@cimg_library@@QEAAAEAU12@IIII@Z@4HA 000000018004909c     * CIL library *:* CIL module *
 0002:0001c0b0       $unwind$??0?$CImg@E@cimg_library@@QEAA@QEBEIIII_N@Z 00000001800490b0     * CIL library *:* CIL module *
 0002:0001c0c8       $tryMap$??0?$CImg@E@cimg_library@@QEAA@QEBEIIII_N@Z 00000001800490c8     * CIL library *:* CIL module *
 0002:0001c0dc       $handlerMap$0$??0?$CImg@E@cimg_library@@QEAA@QEBEIIII_N@Z 00000001800490dc     * CIL library *:* CIL module *
 0002:0001c0f0       $ip2state$??0?$CImg@E@cimg_library@@QEAA@QEBEIIII_N@Z 00000001800490f0     * CIL library *:* CIL module *
 0002:0001c118       $unwind$?catch$0@?0???0?$CImg@E@cimg_library@@QEAA@QEBEIIII_N@Z@4HA 0000000180049118     * CIL library *:* CIL module *
 0002:0001c130       $unwind$??0?$CImg@E@cimg_library@@QEAA@IIII@Z 0000000180049130     * CIL library *:* CIL module *
 0002:0001c144       $tryMap$??0?$CImg@E@cimg_library@@QEAA@IIII@Z 0000000180049144     * CIL library *:* CIL module *
 0002:0001c158       $handlerMap$0$??0?$CImg@E@cimg_library@@QEAA@IIII@Z 0000000180049158     * CIL library *:* CIL module *
 0002:0001c16c       $ip2state$??0?$CImg@E@cimg_library@@QEAA@IIII@Z 000000018004916c     * CIL library *:* CIL module *
 0002:0001c194       $unwind$?catch$0@?0???0?$CImg@E@cimg_library@@QEAA@IIII@Z@4HA 0000000180049194     * CIL library *:* CIL module *
 0002:0001c1b0       $unwind$??0?$CImg@E@cimg_library@@QEAA@AEBU01@@Z 00000001800491b0     * CIL library *:* CIL module *
 0002:0001c1cc       $tryMap$??0?$CImg@E@cimg_library@@QEAA@AEBU01@@Z 00000001800491cc     * CIL library *:* CIL module *
 0002:0001c1e0       $handlerMap$0$??0?$CImg@E@cimg_library@@QEAA@AEBU01@@Z 00000001800491e0     * CIL library *:* CIL module *
 0002:0001c1f4       $ip2state$??0?$CImg@E@cimg_library@@QEAA@AEBU01@@Z 00000001800491f4     * CIL library *:* CIL module *
 0002:0001c21c       $unwind$?catch$0@?0???0?$CImg@E@cimg_library@@QEAA@AEBU01@@Z@4HA 000000018004921c     * CIL library *:* CIL module *
 0002:0001c238       $unwind$??$Unwrap@VLwipImage@@@ObjectWrap@node@@SAPEAVLwipImage@@V?$Local@VObject@v8@@@v8@@@Z 0000000180049238     * CIL library *:* CIL module *
 0002:0001c240       $unwind$?Call_@Callback@Nan@@AEBA?AV?$Local@VValue@v8@@@v8@@PEAVIsolate@4@V?$Local@VObject@v8@@@4@HQEAV34@@Z 0000000180049240     * CIL library *:* CIL module *
 0002:0001c258       $ip2state$?Call_@Callback@Nan@@AEBA?AV?$Local@VValue@v8@@@v8@@PEAVIsolate@4@V?$Local@VObject@v8@@@4@HQEAV34@@Z 0000000180049258     * CIL library *:* CIL module *
 0002:0001c270       $unwind$??0AsyncWorker@Nan@@QEAA@PEAVCallback@1@@Z 0000000180049270     * CIL library *:* CIL module *
 0002:0001c284       $stateUnwindMap$??0AsyncWorker@Nan@@QEAA@PEAVCallback@1@@Z 0000000180049284     * CIL library *:* CIL module *
 0002:0001c294       $ip2state$??0AsyncWorker@Nan@@QEAA@PEAVCallback@1@@Z 0000000180049294     * CIL library *:* CIL module *
 0002:0001c2bc       $unwind$??1AsyncWorker@Nan@@UEAA@XZ 00000001800492bc     * CIL library *:* CIL module *
 0002:0001c2d0       $stateUnwindMap$??1AsyncWorker@Nan@@UEAA@XZ 00000001800492d0     * CIL library *:* CIL module *
 0002:0001c2e8       $ip2state$??1AsyncWorker@Nan@@UEAA@XZ 00000001800492e8     * CIL library *:* CIL module *
 0002:0001c320       $unwind$?WorkComplete@AsyncWorker@Nan@@UEAAXXZ 0000000180049320     * CIL library *:* CIL module *
 0002:0001c334       $stateUnwindMap$?WorkComplete@AsyncWorker@Nan@@UEAAXXZ 0000000180049334     * CIL library *:* CIL module *
 0002:0001c344       $ip2state$?WorkComplete@AsyncWorker@Nan@@UEAAXXZ 0000000180049344     * CIL library *:* CIL module *
 0002:0001c36c       $unwind$?HandleOKCallback@AsyncWorker@Nan@@MEAAXXZ 000000018004936c     * CIL library *:* CIL module *
 0002:0001c378       $unwind$?HandleErrorCallback@AsyncWorker@Nan@@MEAAXXZ 0000000180049378     * CIL library *:* CIL module *
 0002:0001c38c       $ip2state$?HandleErrorCallback@AsyncWorker@Nan@@MEAAXXZ 000000018004938c     * CIL library *:* CIL module *
 0002:0001c3a4       $unwind$?Execute@ResizeWorker@@UEAAXXZ 00000001800493a4     * CIL library *:* CIL module *
 0002:0001c3b4       $stateUnwindMap$?Execute@ResizeWorker@@UEAAXXZ 00000001800493b4     * CIL library *:* CIL module *
 0002:0001c3cc       $tryMap$?Execute@ResizeWorker@@UEAAXXZ 00000001800493cc     * CIL library *:* CIL module *
 0002:0001c3e0       $handlerMap$0$?Execute@ResizeWorker@@UEAAXXZ 00000001800493e0     * CIL library *:* CIL module *
 0002:0001c3f4       $ip2state$?Execute@ResizeWorker@@UEAAXXZ 00000001800493f4     * CIL library *:* CIL module *
 0002:0001c42c       $unwind$?catch$0@?0??Execute@ResizeWorker@@UEAAXXZ@4HA 000000018004942c     * CIL library *:* CIL module *
 0002:0001c43c       $unwind$?HandleOKCallback@SetPixelWorker@@UEAAXXZ 000000018004943c     * CIL library *:* CIL module *
 0002:0001c43c       $unwind$?HandleOKCallback@PasteWorker@@UEAAXXZ 000000018004943c     * CIL library *:* CIL module *
 0002:0001c43c       $unwind$?HandleOKCallback@ResizeWorker@@UEAAXXZ 000000018004943c     * CIL library *:* CIL module *
 0002:0001c43c       $unwind$?HandleOKCallback@RotateWorker@@UEAAXXZ 000000018004943c     * CIL library *:* CIL module *
 0002:0001c43c       $unwind$?HandleOKCallback@OpacifyWorker@@UEAAXXZ 000000018004943c     * CIL library *:* CIL module *
 0002:0001c43c       $unwind$?HandleOKCallback@CropWorker@@UEAAXXZ 000000018004943c     * CIL library *:* CIL module *
 0002:0001c43c       $unwind$?HandleOKCallback@HSLAWorker@@UEAAXXZ 000000018004943c     * CIL library *:* CIL module *
 0002:0001c43c       $unwind$?HandleOKCallback@MirrorWorker@@UEAAXXZ 000000018004943c     * CIL library *:* CIL module *
 0002:0001c43c       $unwind$?HandleOKCallback@BlurWorker@@UEAAXXZ 000000018004943c     * CIL library *:* CIL module *
 0002:0001c43c       $unwind$?HandleOKCallback@SharpenWorker@@UEAAXXZ 000000018004943c     * CIL library *:* CIL module *
 0002:0001c43c       $unwind$?HandleOKCallback@PadWorker@@UEAAXXZ 000000018004943c     * CIL library *:* CIL module *
 0002:0001c448       $unwind$??0?$CImg@K@cimg_library@@QEAA@IIII@Z 0000000180049448     * CIL library *:* CIL module *
 0002:0001c45c       $tryMap$??0?$CImg@K@cimg_library@@QEAA@IIII@Z 000000018004945c     * CIL library *:* CIL module *
 0002:0001c470       $handlerMap$0$??0?$CImg@K@cimg_library@@QEAA@IIII@Z 0000000180049470     * CIL library *:* CIL module *
 0002:0001c484       $ip2state$??0?$CImg@K@cimg_library@@QEAA@IIII@Z 0000000180049484     * CIL library *:* CIL module *
 0002:0001c4ac       $unwind$?catch$0@?0???0?$CImg@K@cimg_library@@QEAA@IIII@Z@4HA 00000001800494ac     * CIL library *:* CIL module *
 0002:0001c4c0       $unwind$?resize@?$CImg@E@cimg_library@@QEAAAEAU12@HHHHHIMMMM@Z 00000001800494c0     * CIL library *:* CIL module *
 0002:0001c4dc       $stateUnwindMap$?crop@?$CImg@E@cimg_library@@QEAAAEAU12@HHHHHHHH_N@Z 00000001800494dc     * CIL library *:* CIL module *
 0002:0001c4dc       $stateUnwindMap$?resize@?$CImg@E@cimg_library@@QEAAAEAU12@HHHHHIMMMM@Z 00000001800494dc     * CIL library *:* CIL module *
 0002:0001c4e4       $ip2state$?resize@?$CImg@E@cimg_library@@QEAAAEAU12@HHHHHIMMMM@Z 00000001800494e4     * CIL library *:* CIL module *
 0002:0001c4fc       $unwind$?move_to@?$CImg@E@cimg_library@@QEAAAEAU12@AEAU12@@Z 00000001800494fc     * CIL library *:* CIL module *
 0002:0001c4fc       $unwind$??$assign@M@?$CImg@E@cimg_library@@QEAAAEAU01@QEBMIIII@Z 00000001800494fc     * CIL library *:* CIL module *
 0002:0001c508       $unwind$?get_resize@?$CImg@E@cimg_library@@QEBA?AU12@HHHHHIMMMM@Z 0000000180049508     * CIL library *:* CIL module *
 0002:0001c54c       $stateUnwindMap$?get_resize@?$CImg@E@cimg_library@@QEBA?AU12@HHHHHIMMMM@Z 000000018004954c     * CIL library *:* CIL module *
 0002:0001c86c       $ip2state$?get_resize@?$CImg@E@cimg_library@@QEBA?AU12@HHHHHIMMMM@Z 000000018004986c     * CIL library *:* CIL module *
 0002:0001cedc       $unwind$__lock_fhandle$fin$0 0000000180049edc     * CIL library *:* CIL module *
 0002:0001cedc       $unwind$setvbuf$fin$0      0000000180049edc     * CIL library *:* CIL module *
 0002:0001cedc       $unwind$?dtor$52@?0??get_resize@?$CImg@E@cimg_library@@QEBA?AU12@HHHHHIMMMM@Z@4HA 0000000180049edc     * CIL library *:* CIL module *
 0002:0001cedc       $unwind$?dtor$51@?0??get_resize@?$CImg@E@cimg_library@@QEBA?AU12@HHHHHIMMMM@Z@4HA 0000000180049edc     * CIL library *:* CIL module *
 0002:0001cedc       $unwind$?dtor$53@?0??get_resize@?$CImg@E@cimg_library@@QEBA?AU12@HHHHHIMMMM@Z@4HA 0000000180049edc     * CIL library *:* CIL module *
 0002:0001cedc       $unwind$_CRT_INIT$fin$0    0000000180049edc     * CIL library *:* CIL module *
 0002:0001cedc       $unwind$?dtor$100@?0??get_resize@?$CImg@E@cimg_library@@QEBA?AU12@HHHHHIMMMM@Z@4HA 0000000180049edc     * CIL library *:* CIL module *
 0002:0001cedc       $unwind$__DestructExceptionObject$filt$0 0000000180049edc     * CIL library *:* CIL module *
 0002:0001cedc       $unwind$_getstream$fin$0   0000000180049edc     * CIL library *:* CIL module *
 0002:0001cedc       $unwind$?dtor$38@?0??get_resize@?$CImg@E@cimg_library@@QEBA?AU12@HHHHHIMMMM@Z@4HA 0000000180049edc     * CIL library *:* CIL module *
 0002:0001cedc       $unwind$fwprintf$fin$0     0000000180049edc     * CIL library *:* CIL module *
 0002:0001cedc       $unwind$?dtor$37@?0??get_resize@?$CImg@E@cimg_library@@QEBA?AU12@HHHHHIMMMM@Z@4HA 0000000180049edc     * CIL library *:* CIL module *
 0002:0001cedc       $unwind$_ioinit$fin$0      0000000180049edc     * CIL library *:* CIL module *
 0002:0001cedc       $unwind$_alloc_osfhnd$fin$1 0000000180049edc     * CIL library *:* CIL module *
 0002:0001cedc       $unwind$?dtor$99@?0??get_resize@?$CImg@E@cimg_library@@QEBA?AU12@HHHHHIMMMM@Z@4HA 0000000180049edc     * CIL library *:* CIL module *
 0002:0001cedc       $unwind$_IsNonwritableInCurrentImage$filt$0 0000000180049edc     * CIL library *:* CIL module *
 0002:0001cedc       $unwind$?dtor$54@?0??get_resize@?$CImg@E@cimg_library@@QEBA?AU12@HHHHHIMMMM@Z@4HA 0000000180049edc     * CIL library *:* CIL module *
 0002:0001cedc       $unwind$?dtor$98@?0??get_resize@?$CImg@E@cimg_library@@QEBA?AU12@HHHHHIMMMM@Z@4HA 0000000180049edc     * CIL library *:* CIL module *
 0002:0001cedc       $unwind$_write$fin$0       0000000180049edc     * CIL library *:* CIL module *
 0002:0001cedc       $unwind$?dtor$36@?0??get_resize@?$CImg@E@cimg_library@@QEBA?AU12@HHHHHIMMMM@Z@4HA 0000000180049edc     * CIL library *:* CIL module *
 0002:0001cedc       $unwind$?dtor$50@?0??get_resize@?$CImg@E@cimg_library@@QEBA?AU12@HHHHHIMMMM@Z@4HA 0000000180049edc     * CIL library *:* CIL module *
 0002:0001cedc       $unwind$_setmbcp$fin$0     0000000180049edc     * CIL library *:* CIL module *
 0002:0001cedc       $unwind$?dtor$35@?0??get_resize@?$CImg@E@cimg_library@@QEBA?AU12@HHHHHIMMMM@Z@4HA 0000000180049edc     * CIL library *:* CIL module *
 0002:0001cedc       $unwind$flsall$fin$0       0000000180049edc     * CIL library *:* CIL module *
 0002:0001cedc       $unwind$_alloc_osfhnd$fin$0 0000000180049edc     * CIL library *:* CIL module *
 0002:0001cedc       $unwind$?dtor$56@?0??get_resize@?$CImg@E@cimg_library@@QEBA?AU12@HHHHHIMMMM@Z@4HA 0000000180049edc     * CIL library *:* CIL module *
 0002:0001cedc       $unwind$?dtor$97@?0??get_resize@?$CImg@E@cimg_library@@QEBA?AU12@HHHHHIMMMM@Z@4HA 0000000180049edc     * CIL library *:* CIL module *
 0002:0001cedc       $unwind$fprintf$fin$0      0000000180049edc     * CIL library *:* CIL module *
 0002:0001cedc       $unwind$?dtor$49@?0??get_resize@?$CImg@E@cimg_library@@QEBA?AU12@HHHHHIMMMM@Z@4HA 0000000180049edc     * CIL library *:* CIL module *
 0002:0001cedc       $unwind$__FrameUnwindToState$fin$1 0000000180049edc     * CIL library *:* CIL module *
 0002:0001cedc       $unwind$__FrameUnwindToState$filt$0 0000000180049edc     * CIL library *:* CIL module *
 0002:0001cedc       $unwind$?fin$0@?0??_Type_info_dtor@type_info@@CAXPEAV1@@Z@4HA 0000000180049edc     * CIL library *:* CIL module *
 0002:0001cedc       $unwind$?dtor$34@?0??get_resize@?$CImg@E@cimg_library@@QEBA?AU12@HHHHHIMMMM@Z@4HA 0000000180049edc     * CIL library *:* CIL module *
 0002:0001cedc       $unwind$_commit$fin$0      0000000180049edc     * CIL library *:* CIL module *
 0002:0001cedc       $unwind$?dtor$33@?0??get_resize@?$CImg@E@cimg_library@@QEBA?AU12@HHHHHIMMMM@Z@4HA 0000000180049edc     * CIL library *:* CIL module *
 0002:0001cedc       $unwind$?dtor$71@?0??get_resize@?$CImg@E@cimg_library@@QEBA?AU12@HHHHHIMMMM@Z@4HA 0000000180049edc     * CIL library *:* CIL module *
 0002:0001cedc       $unwind$?dtor$0@?0??get_resize@?$CImg@E@cimg_library@@QEBA?AU12@HHHHHIMMMM@Z@4HA 0000000180049edc     * CIL library *:* CIL module *
 0002:0001cedc       $unwind$__DllMainCRTStartup$filt$0 0000000180049edc     * CIL library *:* CIL module *
 0002:0001cedc       $unwind$__updatetmbcinfo$fin$0 0000000180049edc     * CIL library *:* CIL module *
 0002:0001cedc       $unwind$_close$fin$0       0000000180049edc     * CIL library *:* CIL module *
 0002:0001cedc       $unwind$_freefls$fin$1     0000000180049edc     * CIL library *:* CIL module *
 0002:0001cedc       $unwind$_mtinitlocknum$fin$0 0000000180049edc     * CIL library *:* CIL module *
 0002:0001cedc       $unwind$?dtor$96@?0??get_resize@?$CImg@E@cimg_library@@QEBA?AU12@HHHHHIMMMM@Z@4HA 0000000180049edc     * CIL library *:* CIL module *
 0002:0001cedc       $unwind$?dtor$72@?0??get_resize@?$CImg@E@cimg_library@@QEBA?AU12@HHHHHIMMMM@Z@4HA 0000000180049edc     * CIL library *:* CIL module *
 0002:0001cedc       $unwind$?dtor$39@?0??get_resize@?$CImg@E@cimg_library@@QEBA?AU12@HHHHHIMMMM@Z@4HA 0000000180049edc     * CIL library *:* CIL module *
 0002:0001cedc       $unwind$?dtor$55@?0??get_resize@?$CImg@E@cimg_library@@QEBA?AU12@HHHHHIMMMM@Z@4HA 0000000180049edc     * CIL library *:* CIL module *
 0002:0001cedc       $unwind$_freefls$fin$0     0000000180049edc     * CIL library *:* CIL module *
 0002:0001cedc       $unwind$fflush$fin$0       0000000180049edc     * CIL library *:* CIL module *
 0002:0001cedc       $unwind$raise$fin$0        0000000180049edc     * CIL library *:* CIL module *
 0002:0001cedc       $unwind$_ctrlfp$filt$0     0000000180049edc     * CIL library *:* CIL module *
 0002:0001cedc       $unwind$_lseeki64$fin$0    0000000180049edc     * CIL library *:* CIL module *
 0002:0001cedc       $unwind$?dtor$95@?0??get_resize@?$CImg@E@cimg_library@@QEBA?AU12@HHHHHIMMMM@Z@4HA 0000000180049edc     * CIL library *:* CIL module *
 0002:0001cedc       $unwind$_fcloseall$fin$0   0000000180049edc     * CIL library *:* CIL module *
 0002:0001cedc       $unwind$?dtor$1@?0??get_crop@?$CImg@E@cimg_library@@QEBA?AU12@HHHHHHHH_N@Z@4HA 0000000180049edc     * CIL library *:* CIL module *
 0002:0001cedc       $unwind$__CxxCallCatchBlock$filt$0 0000000180049edc     * CIL library *:* CIL module *
 0002:0001cedc       $unwind$?dtor$73@?0??get_resize@?$CImg@E@cimg_library@@QEBA?AU12@HHHHHIMMMM@Z@4HA 0000000180049edc     * CIL library *:* CIL module *
 0002:0001cedc       $unwind$fclose$fin$0       0000000180049edc     * CIL library *:* CIL module *
 0002:0001cedc       $unwind$getenv$fin$0       0000000180049edc     * CIL library *:* CIL module *
 0002:0001cedc       $unwind$?dtor$40@?0??get_resize@?$CImg@E@cimg_library@@QEBA?AU12@HHHHHIMMMM@Z@4HA 0000000180049edc     * CIL library *:* CIL module *
 0002:0001cedc       $unwind$?dtor$74@?0??get_resize@?$CImg@E@cimg_library@@QEBA?AU12@HHHHHIMMMM@Z@4HA 0000000180049edc     * CIL library *:* CIL module *
 0002:0001cedc       $unwind$?dtor$94@?0??get_resize@?$CImg@E@cimg_library@@QEBA?AU12@HHHHHIMMMM@Z@4HA 0000000180049edc     * CIL library *:* CIL module *
 0002:0001cedc       $unwind$?dtor$0@?0??get_rotate@?$CImg@E@cimg_library@@QEBA?AU12@MII@Z@4HA 0000000180049edc     * CIL library *:* CIL module *
 0002:0001cedc       $unwind$__updatetlocinfo$fin$0 0000000180049edc     * CIL library *:* CIL module *
 0002:0001cedc       $unwind$_initptd$fin$1     0000000180049edc     * CIL library *:* CIL module *
 0002:0001cedc       $unwind$_fsopen$fin$0      0000000180049edc     * CIL library *:* CIL module *
 0002:0001cedc       $unwind$?dtor$75@?0??get_resize@?$CImg@E@cimg_library@@QEBA?AU12@HHHHHIMMMM@Z@4HA 0000000180049edc     * CIL library *:* CIL module *
 0002:0001cedc       $unwind$flsall$fin$1       0000000180049edc     * CIL library *:* CIL module *
 0002:0001cedc       $unwind$_initptd$fin$0     0000000180049edc     * CIL library *:* CIL module *
 0002:0001cedc       $unwind$?dtor$93@?0??get_resize@?$CImg@E@cimg_library@@QEBA?AU12@HHHHHIMMMM@Z@4HA 0000000180049edc     * CIL library *:* CIL module *
 0002:0001cedc       $unwind$?dtor$76@?0??get_resize@?$CImg@E@cimg_library@@QEBA?AU12@HHHHHIMMMM@Z@4HA 0000000180049edc     * CIL library *:* CIL module *
 0002:0001cedc       $unwind$?dtor$77@?0??get_resize@?$CImg@E@cimg_library@@QEBA?AU12@HHHHHIMMMM@Z@4HA 0000000180049edc     * CIL library *:* CIL module *
 0002:0001cedc       $unwind$?dtor$78@?0??get_resize@?$CImg@E@cimg_library@@QEBA?AU12@HHHHHIMMMM@Z@4HA 0000000180049edc     * CIL library *:* CIL module *
 0002:0001cedc       $unwind$_locterm$fin$0     0000000180049edc     * CIL library *:* CIL module *
 0002:0001cedc       $unwind$_onexit$fin$0      0000000180049edc     * CIL library *:* CIL module *
 0002:0001cedc       $unwind$doexit$fin$0       0000000180049edc     * CIL library *:* CIL module *
 0002:0001cee4       $unwind$??0?$CImg@M@cimg_library@@QEAA@IIII@Z 0000000180049ee4     * CIL library *:* CIL module *
 0002:0001cef8       $tryMap$??0?$CImg@M@cimg_library@@QEAA@IIII@Z 0000000180049ef8     * CIL library *:* CIL module *
 0002:0001cf0c       $handlerMap$0$??0?$CImg@M@cimg_library@@QEAA@IIII@Z 0000000180049f0c     * CIL library *:* CIL module *
 0002:0001cf20       $ip2state$??0?$CImg@M@cimg_library@@QEAA@IIII@Z 0000000180049f20     * CIL library *:* CIL module *
 0002:0001cf48       $unwind$?catch$0@?0???0?$CImg@M@cimg_library@@QEAA@IIII@Z@4HA 0000000180049f48     * CIL library *:* CIL module *
 0002:0001cf64       $unwind$??0?$CImg@M@cimg_library@@QEAA@IIIIAEBM@Z 0000000180049f64     * CIL library *:* CIL module *
 0002:0001cf78       $tryMap$??0?$CImg@M@cimg_library@@QEAA@IIIIAEBM@Z 0000000180049f78     * CIL library *:* CIL module *
 0002:0001cf8c       $handlerMap$0$??0?$CImg@M@cimg_library@@QEAA@IIIIAEBM@Z 0000000180049f8c     * CIL library *:* CIL module *
 0002:0001cfa0       $ip2state$??0?$CImg@M@cimg_library@@QEAA@IIIIAEBM@Z 0000000180049fa0     * CIL library *:* CIL module *
 0002:0001cfc8       $unwind$?catch$0@?0???0?$CImg@M@cimg_library@@QEAA@IIIIAEBM@Z@4HA 0000000180049fc8     * CIL library *:* CIL module *
 0002:0001cfe4       $unwind$??0?$CImg@E@cimg_library@@QEAA@IIIIAEBE@Z 0000000180049fe4     * CIL library *:* CIL module *
 0002:0001cff8       $tryMap$??0?$CImg@E@cimg_library@@QEAA@IIIIAEBE@Z 0000000180049ff8     * CIL library *:* CIL module *
 0002:0001d00c       $handlerMap$0$??0?$CImg@E@cimg_library@@QEAA@IIIIAEBE@Z 000000018004a00c     * CIL library *:* CIL module *
 0002:0001d020       $ip2state$??0?$CImg@E@cimg_library@@QEAA@IIIIAEBE@Z 000000018004a020     * CIL library *:* CIL module *
 0002:0001d048       $unwind$?catch$0@?0???0?$CImg@E@cimg_library@@QEAA@IIIIAEBE@Z@4HA 000000018004a048     * CIL library *:* CIL module *
 0002:0001d064       $unwind$?assign@?$CImg@E@cimg_library@@QEAAAEAU12@IIII@Z 000000018004a064     * CIL library *:* CIL module *
 0002:0001d080       $tryMap$?assign@?$CImg@E@cimg_library@@QEAAAEAU12@IIII@Z 000000018004a080     * CIL library *:* CIL module *
 0002:0001d094       $handlerMap$0$?assign@?$CImg@E@cimg_library@@QEAAAEAU12@IIII@Z 000000018004a094     * CIL library *:* CIL module *
 0002:0001d0a8       $ip2state$?assign@?$CImg@E@cimg_library@@QEAAAEAU12@IIII@Z 000000018004a0a8     * CIL library *:* CIL module *
 0002:0001d0d0       $unwind$?catch$0@?0??assign@?$CImg@E@cimg_library@@QEAAAEAU12@IIII@Z@4HA 000000018004a0d0     * CIL library *:* CIL module *
 0002:0001d0ec       $unwind$??H?$CImg@E@cimg_library@@QEBA?AU01@XZ 000000018004a0ec     * CIL library *:* CIL module *
 0002:0001d0ec       $unwind$_fassign_l         000000018004a0ec     * CIL library *:* CIL module *
 0002:0001d0f4       $unwind$?_cimg_lanczos@?$CImg@E@cimg_library@@SAMM@Z 000000018004a0f4     * CIL library *:* CIL module *
 0002:0001d0f4       $unwind$_sincosf_special   000000018004a0f4     * CIL library *:* CIL module *
 0002:0001d0f4       $unwind$_sincos_special    000000018004a0f4     * CIL library *:* CIL module *
 0002:0001d0f4       $unwind$floor              000000018004a0f4     * CIL library *:* CIL module *
 0002:0001d0fc       $chain$2$?_cimg_lanczos@?$CImg@E@cimg_library@@SAMM@Z 000000018004a0fc     * CIL library *:* CIL module *
 0002:0001d118       $chain$3$?_cimg_lanczos@?$CImg@E@cimg_library@@SAMM@Z 000000018004a118     * CIL library *:* CIL module *
 0002:0001d128       $unwind$?get_crop@?$CImg@E@cimg_library@@QEBA?AU12@HHHHHHHH_N@Z 000000018004a128     * CIL library *:* CIL module *
 0002:0001d14c       $stateUnwindMap$?get_crop@?$CImg@E@cimg_library@@QEBA?AU12@HHHHHHHH_N@Z 000000018004a14c     * CIL library *:* CIL module *
 0002:0001d15c       $ip2state$?get_crop@?$CImg@E@cimg_library@@QEBA?AU12@HHHHHHHH_N@Z 000000018004a15c     * CIL library *:* CIL module *
 0002:0001d184       $unwind$?draw_image@?$CImg@E@cimg_library@@QEAAAEAU12@HHHHAEBU12@M@Z 000000018004a184     * CIL library *:* CIL module *
 0002:0001d1b0       $stateUnwindMap$?draw_image@?$CImg@E@cimg_library@@QEAAAEAU12@HHHHAEBU12@M@Z 000000018004a1b0     * CIL library *:* CIL module *
 0002:0001d1b8       $ip2state$?draw_image@?$CImg@E@cimg_library@@QEAAAEAU12@HHHHAEBU12@M@Z 000000018004a1b8     * CIL library *:* CIL module *
 0002:0001d1d0       $unwind$??0?$CImg@I@cimg_library@@QEAA@IIII@Z 000000018004a1d0     * CIL library *:* CIL module *
 0002:0001d1e4       $tryMap$??0?$CImg@I@cimg_library@@QEAA@IIII@Z 000000018004a1e4     * CIL library *:* CIL module *
 0002:0001d1f8       $handlerMap$0$??0?$CImg@I@cimg_library@@QEAA@IIII@Z 000000018004a1f8     * CIL library *:* CIL module *
 0002:0001d20c       $ip2state$??0?$CImg@I@cimg_library@@QEAA@IIII@Z 000000018004a20c     * CIL library *:* CIL module *
 0002:0001d234       $unwind$?catch$0@?0???0?$CImg@I@cimg_library@@QEAA@IIII@Z@4HA 000000018004a234     * CIL library *:* CIL module *
 0002:0001d248       $unwind$??0?$CImg@E@cimg_library@@QEAA@AEBU01@_N@Z 000000018004a248     * CIL library *:* CIL module *
 0002:0001d264       $tryMap$??0?$CImg@E@cimg_library@@QEAA@AEBU01@_N@Z 000000018004a264     * CIL library *:* CIL module *
 0002:0001d278       $handlerMap$0$??0?$CImg@E@cimg_library@@QEAA@AEBU01@_N@Z 000000018004a278     * CIL library *:* CIL module *
 0002:0001d28c       $ip2state$??0?$CImg@E@cimg_library@@QEAA@AEBU01@_N@Z 000000018004a28c     * CIL library *:* CIL module *
 0002:0001d2b4       $unwind$?catch$0@?0???0?$CImg@E@cimg_library@@QEAA@AEBU01@_N@Z@4HA 000000018004a2b4     * CIL library *:* CIL module *
 0002:0001d2d0       $unwind$?assign@?$CImg@E@cimg_library@@QEAAAEAU12@QEBEIIII@Z 000000018004a2d0     * CIL library *:* CIL module *
 0002:0001d2f0       $tryMap$?assign@?$CImg@E@cimg_library@@QEAAAEAU12@QEBEIIII@Z 000000018004a2f0     * CIL library *:* CIL module *
 0002:0001d304       $handlerMap$0$?assign@?$CImg@E@cimg_library@@QEAAAEAU12@QEBEIIII@Z 000000018004a304     * CIL library *:* CIL module *
 0002:0001d318       $ip2state$?assign@?$CImg@E@cimg_library@@QEAAAEAU12@QEBEIIII@Z 000000018004a318     * CIL library *:* CIL module *
 0002:0001d340       $unwind$?catch$0@?0??assign@?$CImg@E@cimg_library@@QEAAAEAU12@QEBEIIII@Z@4HA 000000018004a340     * CIL library *:* CIL module *
 0002:0001d35c       $unwind$?assign@?$CImg@E@cimg_library@@QEAAAEAU12@QEBEIIII_N@Z 000000018004a35c     * CIL library *:* CIL module *
 0002:0001d374       $unwind$?Execute@RotateWorker@@UEAAXXZ 000000018004a374     * CIL library *:* CIL module *
 0002:0001d3a4       $stateUnwindMap$?Execute@RotateWorker@@UEAAXXZ 000000018004a3a4     * CIL library *:* CIL module *
 0002:0001d3e4       $tryMap$?Execute@RotateWorker@@UEAAXXZ 000000018004a3e4     * CIL library *:* CIL module *
 0002:0001d40c       $handlerMap$0$?Execute@RotateWorker@@UEAAXXZ 000000018004a40c     * CIL library *:* CIL module *
 0002:0001d420       $handlerMap$1$?Execute@RotateWorker@@UEAAXXZ 000000018004a420     * CIL library *:* CIL module *
 0002:0001d434       $ip2state$?Execute@RotateWorker@@UEAAXXZ 000000018004a434     * CIL library *:* CIL module *
 0002:0001d4ac       $unwind$?catch$1@?0??Execute@RotateWorker@@UEAAXXZ@4HA 000000018004a4ac     * CIL library *:* CIL module *
 0002:0001d4ac       $unwind$?catch$0@?0??Execute@RotateWorker@@UEAAXXZ@4HA 000000018004a4ac     * CIL library *:* CIL module *
 0002:0001d4bc       $unwind$?fillC@?$CImg@E@cimg_library@@QEAAAEAU12@IIIHZZ 000000018004a4bc     * CIL library *:* CIL module *
 0002:0001d4c4       $chain$0$?fillC@?$CImg@E@cimg_library@@QEAAAEAU12@IIIHZZ 000000018004a4c4     * CIL library *:* CIL module *
 0002:0001d4d8       $chain$1$?fillC@?$CImg@E@cimg_library@@QEAAAEAU12@IIIHZZ 000000018004a4d8     * CIL library *:* CIL module *
 0002:0001d4e8       $unwind$?get_rotate@?$CImg@E@cimg_library@@QEBA?AU12@MII@Z 000000018004a4e8     * CIL library *:* CIL module *
 0002:0001d52c       $stateUnwindMap$?get_rotate@?$CImg@E@cimg_library@@QEBA?AU12@MII@Z 000000018004a52c     * CIL library *:* CIL module *
 0002:0001d53c       $ip2state$?get_rotate@?$CImg@E@cimg_library@@QEBA?AU12@MII@Z 000000018004a53c     * CIL library *:* CIL module *
 0002:0001d564       $unwind$_setmode_nolock    000000018004a564     * CIL library *:* CIL module *
 0002:0001d564       $unwind$?_linear_atXY@?$CImg@E@cimg_library@@QEBAMMMHH@Z 000000018004a564     * CIL library *:* CIL module *
 0002:0001d570       $unwind$?Execute@BlurWorker@@UEAAXXZ 000000018004a570     * CIL library *:* CIL module *
 0002:0001d578       $unwind$?vanvliet@?$CImg@E@cimg_library@@QEAAAEAU12@MID_N@Z 000000018004a578     * CIL library *:* CIL module *
 0002:0001d588       $chain$3$?vanvliet@?$CImg@E@cimg_library@@QEAAAEAU12@MID_N@Z 000000018004a588     * CIL library *:* CIL module *
 0002:0001d5a8       $chain$4$?vanvliet@?$CImg@E@cimg_library@@QEAAAEAU12@MID_N@Z 000000018004a5a8     * CIL library *:* CIL module *
 0002:0001d5c4       $chain$5$?vanvliet@?$CImg@E@cimg_library@@QEAAAEAU12@MID_N@Z 000000018004a5c4     * CIL library *:* CIL module *
 0002:0001d5d4       $unwind$?_cimg_recursive_apply@?$CImg@E@cimg_library@@SAXPEAEQEBNHKI_N@Z 000000018004a5d4     * CIL library *:* CIL module *
 0002:0001d610       $unwind$?Execute@CropWorker@@UEAAXXZ 000000018004a610     * CIL library *:* CIL module *
 0002:0001d620       $stateUnwindMap$?Execute@CropWorker@@UEAAXXZ 000000018004a620     * CIL library *:* CIL module *
 0002:0001d638       $tryMap$?Execute@CropWorker@@UEAAXXZ 000000018004a638     * CIL library *:* CIL module *
 0002:0001d64c       $handlerMap$0$?Execute@CropWorker@@UEAAXXZ 000000018004a64c     * CIL library *:* CIL module *
 0002:0001d660       $ip2state$?Execute@CropWorker@@UEAAXXZ 000000018004a660     * CIL library *:* CIL module *
 0002:0001d698       $unwind$?catch$0@?0??Execute@CropWorker@@UEAAXXZ@4HA 000000018004a698     * CIL library *:* CIL module *
 0002:0001d6a8       $unwind$?crop@?$CImg@E@cimg_library@@QEAAAEAU12@HHHHHHHH_N@Z 000000018004a6a8     * CIL library *:* CIL module *
 0002:0001d6bc       $ip2state$?crop@?$CImg@E@cimg_library@@QEAAAEAU12@HHHHHHHH_N@Z 000000018004a6bc     * CIL library *:* CIL module *
 0002:0001d6d4       $unwind$?Execute@MirrorWorker@@UEAAXXZ 000000018004a6d4     * CIL library *:* CIL module *
 0002:0001d6ec       $stateUnwindMap$?Execute@MirrorWorker@@UEAAXXZ 000000018004a6ec     * CIL library *:* CIL module *
 0002:0001d70c       $tryMap$?Execute@MirrorWorker@@UEAAXXZ 000000018004a70c     * CIL library *:* CIL module *
 0002:0001d720       $handlerMap$0$?Execute@MirrorWorker@@UEAAXXZ 000000018004a720     * CIL library *:* CIL module *
 0002:0001d734       $ip2state$?Execute@MirrorWorker@@UEAAXXZ 000000018004a734     * CIL library *:* CIL module *
 0002:0001d774       $unwind$?catch$0@?0??Execute@MirrorWorker@@UEAAXXZ@4HA 000000018004a774     * CIL library *:* CIL module *
 0002:0001d784       $unwind$?append@?$basic_string@DU?$char_traits@D@std@@V?$allocator@D@2@@std@@QEAAAEAV12@AEBV12@_K1@Z 000000018004a784     * CIL library *:* CIL module *
 0002:0001d798       $chain$0$?append@?$basic_string@DU?$char_traits@D@std@@V?$allocator@D@2@@std@@QEAAAEAV12@AEBV12@_K1@Z 000000018004a798     * CIL library *:* CIL module *
 0002:0001d7ac       $chain$1$?append@?$basic_string@DU?$char_traits@D@std@@V?$allocator@D@2@@std@@QEAAAEAV12@AEBV12@_K1@Z 000000018004a7ac     * CIL library *:* CIL module *
 0002:0001d7bc       $chain$2$?append@?$basic_string@DU?$char_traits@D@std@@V?$allocator@D@2@@std@@QEAAAEAV12@AEBV12@_K1@Z 000000018004a7bc     * CIL library *:* CIL module *
 0002:0001d7d0       $unwind$?append@?$basic_string@DU?$char_traits@D@std@@V?$allocator@D@2@@std@@QEAAAEAV12@PEBD_K@Z 000000018004a7d0     * CIL library *:* CIL module *
 0002:0001d7e0       $chain$0$?append@?$basic_string@DU?$char_traits@D@std@@V?$allocator@D@2@@std@@QEAAAEAV12@PEBD_K@Z 000000018004a7e0     * CIL library *:* CIL module *
 0002:0001d7f4       $chain$1$?append@?$basic_string@DU?$char_traits@D@std@@V?$allocator@D@2@@std@@QEAAAEAV12@PEBD_K@Z 000000018004a7f4     * CIL library *:* CIL module *
 0002:0001d804       $chain$2$?append@?$basic_string@DU?$char_traits@D@std@@V?$allocator@D@2@@std@@QEAAAEAV12@PEBD_K@Z 000000018004a804     * CIL library *:* CIL module *
 0002:0001d818       $unwind$?mirror@?$CImg@E@cimg_library@@QEAAAEAU12@D@Z 000000018004a818     * CIL library *:* CIL module *
 0002:0001d824       $chain$4$?mirror@?$CImg@E@cimg_library@@QEAAAEAU12@D@Z 000000018004a824     * CIL library *:* CIL module *
 0002:0001d848       $chain$5$?mirror@?$CImg@E@cimg_library@@QEAAAEAU12@D@Z 000000018004a848     * CIL library *:* CIL module *
 0002:0001d858       $chain$6$?mirror@?$CImg@E@cimg_library@@QEAAAEAU12@D@Z 000000018004a858     * CIL library *:* CIL module *
 0002:0001d87c       $unwind$?Execute@PadWorker@@UEAAXXZ 000000018004a87c     * CIL library *:* CIL module *
 0002:0001d898       $stateUnwindMap$?Execute@PadWorker@@UEAAXXZ 000000018004a898     * CIL library *:* CIL module *
 0002:0001d8b8       $tryMap$?Execute@PadWorker@@UEAAXXZ 000000018004a8b8     * CIL library *:* CIL module *
 0002:0001d8cc       $handlerMap$0$?Execute@PadWorker@@UEAAXXZ 000000018004a8cc     * CIL library *:* CIL module *
 0002:0001d8e0       $ip2state$?Execute@PadWorker@@UEAAXXZ 000000018004a8e0     * CIL library *:* CIL module *
 0002:0001d920       $unwind$?catch$0@?0??Execute@PadWorker@@UEAAXXZ@4HA 000000018004a920     * CIL library *:* CIL module *
 0002:0001d930       $unwind$?Execute@SharpenWorker@@UEAAXXZ 000000018004a930     * CIL library *:* CIL module *
 0002:0001d940       $stateUnwindMap$?Execute@SharpenWorker@@UEAAXXZ 000000018004a940     * CIL library *:* CIL module *
 0002:0001d958       $tryMap$?Execute@SharpenWorker@@UEAAXXZ 000000018004a958     * CIL library *:* CIL module *
 0002:0001d96c       $handlerMap$0$?Execute@SharpenWorker@@UEAAXXZ 000000018004a96c     * CIL library *:* CIL module *
 0002:0001d980       $ip2state$?Execute@SharpenWorker@@UEAAXXZ 000000018004a980     * CIL library *:* CIL module *
 0002:0001d9b8       $unwind$?catch$0@?0??Execute@SharpenWorker@@UEAAXXZ@4HA 000000018004a9b8     * CIL library *:* CIL module *
 0002:0001d9c8       $unwind$?sharpen@?$CImg@E@cimg_library@@QEAAAEAU12@M_NMMM@Z 000000018004a9c8     * CIL library *:* CIL module *
 0002:0001da18       $stateUnwindMap$?sharpen@?$CImg@E@cimg_library@@QEAAAEAU12@M_NMMM@Z 000000018004aa18     * CIL library *:* CIL module *
 0002:0001dac8       $ip2state$?sharpen@?$CImg@E@cimg_library@@QEAAAEAU12@M_NMMM@Z 000000018004aac8     * CIL library *:* CIL module *
 0002:0001daf0       $unwind$?max@?$CImg@M@cimg_library@@QEAAAEAMXZ 000000018004aaf0     * CIL library *:* CIL module *
 0002:0001daf8       $unwind$??$?YE@?$CImg@M@cimg_library@@QEAAAEAU01@AEBU?$CImg@E@1@@Z 000000018004aaf8     * CIL library *:* CIL module *
 0002:0001db14       $stateUnwindMap$??$?YE@?$CImg@M@cimg_library@@QEAAAEAU01@AEBU?$CImg@E@1@@Z 000000018004ab14     * CIL library *:* CIL module *
 0002:0001db1c       $ip2state$??$?YE@?$CImg@M@cimg_library@@QEAAAEAU01@AEBU?$CImg@E@1@@Z 000000018004ab1c     * CIL library *:* CIL module *
 0002:0001db34       $unwind$?Execute@HSLAWorker@@UEAAXXZ 000000018004ab34     * CIL library *:* CIL module *
 0002:0001db64       $unwind$?rgb_to_hsl@@YAXEEEPEAM00@Z 000000018004ab64     * CIL library *:* CIL module *
 0002:0001db78       $unwind$?hsl_to_rgb@@YAXMMMPEAE00@Z 000000018004ab78     * CIL library *:* CIL module *
 0002:0001db94       $unwind$?Execute@OpacifyWorker@@UEAAXXZ 000000018004ab94     * CIL library *:* CIL module *
 0002:0001dba4       $unwind$?SaveToPersistent@AsyncWorker@Nan@@QEAAXPEBDAEBV?$Local@VValue@v8@@@v8@@@Z 000000018004aba4     * CIL library *:* CIL module *
 0002:0001dbbc       $ip2state$?SaveToPersistent@AsyncWorker@Nan@@QEAAXPEBDAEBV?$Local@VValue@v8@@@v8@@@Z 000000018004abbc     * CIL library *:* CIL module *
 0002:0001dbd4       $unwind$?Execute@PasteWorker@@UEAAXXZ 000000018004abd4     * CIL library *:* CIL module *
 0002:0001dc00       $stateUnwindMap$?Execute@PasteWorker@@UEAAXXZ 000000018004ac00     * CIL library *:* CIL module *
 0002:0001dc18       $tryMap$?Execute@PasteWorker@@UEAAXXZ 000000018004ac18     * CIL library *:* CIL module *
 0002:0001dc2c       $handlerMap$0$?Execute@PasteWorker@@UEAAXXZ 000000018004ac2c     * CIL library *:* CIL module *
 0002:0001dc40       $ip2state$?Execute@PasteWorker@@UEAAXXZ 000000018004ac40     * CIL library *:* CIL module *
 0002:0001dc78       $unwind$?catch$0@?0??Execute@PasteWorker@@UEAAXXZ@4HA 000000018004ac78     * CIL library *:* CIL module *
 0002:0001dc88       $unwind$?Execute@SetPixelWorker@@UEAAXXZ 000000018004ac88     * CIL library *:* CIL module *
 0002:0001dc90       xdata                      000000018004ac90     node:node.exe
 0002:0001dc98       $unwind$_cfltcvt           000000018004ac98     libcpmt:xthrow.obj
 0002:0001dc98       $unwind$__initconout       000000018004ac98     libcpmt:xthrow.obj
 0002:0001dc98       $unwind$?_Xbad_alloc@std@@YAXXZ 000000018004ac98     libcpmt:xthrow.obj
 0002:0001dc98       $unwind$_raise_exc         000000018004ac98     libcpmt:xthrow.obj
 0002:0001dc98       $unwind$?_Xout_of_range@std@@YAXPEBD@Z 000000018004ac98     libcpmt:xthrow.obj
 0002:0001dc98       $unwind$?_Xlength_error@std@@YAXPEBD@Z 000000018004ac98     libcpmt:xthrow.obj
 0002:0001dc98       $unwind$_raise_excf        000000018004ac98     libcpmt:xthrow.obj
 0002:0001dca0       $xdatasym                  000000018004aca0     LIBCMT:amdsecgs.obj
 0002:0001dca8       $xdatasym                  000000018004aca8     LIBCMT:memcpy.obj
 0002:0001dcac       $unwind$_onexit            000000018004acac     LIBCMT:onexit.obj
 0002:0001dcdc       $unwind$_vsnprintf_s_l     000000018004acdc     LIBCMT:vsnprnc.obj
 0002:0001dcf4       $unwind$swprintf           000000018004acf4     LIBCMT:wassert.obj
 0002:0001dcfc       $unwind$_wassert           000000018004acfc     LIBCMT:wassert.obj
 0002:0001dd20       $xdatasym                  000000018004ad20     LIBCMT:strncpy.obj
 0002:0001dd24       $unwind$_fsopen            000000018004ad24     LIBCMT:fopen.obj
 0002:0001dd60       $unwind$fprintf            000000018004ad60     LIBCMT:fprintf.obj
 0002:0001dd88       $unwind$_vsnprintf_l       000000018004ad88     LIBCMT:vsnprint.obj
 0002:0001dd88       $unwind$_vscprintf_helper  000000018004ad88     LIBCMT:vsnprint.obj
 0002:0001dd9c       $unwind$getenv             000000018004ad9c     LIBCMT:getenv.obj
 0002:0001ddbc       $unwind$fclose             000000018004adbc     LIBCMT:fclose.obj
 0002:0001dde0       $unwind$_CRT_INIT          000000018004ade0     LIBCMT:dllcrt0.obj
 0002:0001de00       $unwind$__DllMainCRTStartup 000000018004ae00     LIBCMT:dllcrt0.obj
 0002:0001de28       $xdatasym                  000000018004ae28     LIBCMT:strlen.obj
 0002:0001de2c       $unwind$_CxxThrowException 000000018004ae2c     LIBCMT:throw.obj
 0002:0001de3c       $unwind$?__FrameUnwindToEmptyState@@YAXPEA_KPEAU_xDISPATCHER_CONTEXT@@PEBU_s_FuncInfo@@@Z 000000018004ae3c     LIBCMT:trnsctrl.obj
 0002:0001de50       $unwind$_UnwindNestedFrames 000000018004ae50     LIBCMT:trnsctrl.obj
 0002:0001de64       $unwind$_CallSETranslator  000000018004ae64     LIBCMT:trnsctrl.obj
 0002:0001de84       $unwind$_CallSETranslator$filt$0 000000018004ae84     LIBCMT:trnsctrl.obj
 0002:0001de84       $unwind$_sopen_helper$fin$0 000000018004ae84     LIBCMT:trnsctrl.obj
 0002:0001de8c       $unwind$?_GetEstablisherFrame@@YAPEA_KPEA_KPEAU_xDISPATCHER_CONTEXT@@PEBU_s_FuncInfo@@0@Z 000000018004ae8c     LIBCMT:trnsctrl.obj
 0002:0001dea4       $unwind$_mbsnbicmp_l       000000018004aea4     LIBCMT:trnsctrl.obj
 0002:0001dea4       $unwind$?__SehTransFilter@@YAHPEAU_EXCEPTION_POINTERS@@PEAUEHExceptionRecord@@PEA_KPEAU_CONTEXT@@PEAU_xDISPATCHER_CONTEXT@@PEBU_s_FuncInfo@@PEAH@Z 000000018004aea4     LIBCMT:trnsctrl.obj
 0002:0001dea4       $unwind$_strnicmp_l        000000018004aea4     LIBCMT:trnsctrl.obj
 0002:0001dea4       $unwind$_mbsnbcmp_l        000000018004aea4     LIBCMT:trnsctrl.obj
 0002:0001deb8       $unwind$?_Copy_str@exception@std@@AEAAXPEBD@Z 000000018004aeb8     LIBCMT:stdexcpt.obj
 0002:0001dec8       $unwind$_putwch_nolock     000000018004aec8     LIBCMT:gs_report.obj
 0002:0001dec8       $unwind$__report_gsfailure 000000018004aec8     LIBCMT:gs_report.obj
 0002:0001ded0       $unwind$__isa_available_init 000000018004aed0     LIBCMT:cpu_disp.obj
 0002:0001dee4       $unwind$?terminate@@YAXXZ  000000018004aee4     LIBCMT:hooks.obj
 0002:0001df04       $unwind$?_inconsistency@@YAXXZ 000000018004af04     LIBCMT:hooks.obj
 0002:0001df24       $unwind$__C_specific_handler 000000018004af24     LIBCMT:chandler.obj
 0002:0001df40       $unwind$__copy_path_to_wide_string 000000018004af40     LIBCMT:crt0dat.obj
 0002:0001df58       $unwind$doexit             000000018004af58     LIBCMT:crt0dat.obj
 0002:0001df88       $unwind$_realloc_crt       000000018004af88     LIBCMT:crtheap.obj
 0002:0001df88       $unwind$_calloc_crt        000000018004af88     LIBCMT:crtheap.obj
 0002:0001df88       $unwind$__TypeMatch        000000018004af88     LIBCMT:crtheap.obj
 0002:0001df88       $unwind$_malloc_crt        000000018004af88     LIBCMT:crtheap.obj
 0002:0001df88       $unwind$__GSHandlerCheck_EH 000000018004af88     LIBCMT:crtheap.obj
 0002:0001df88       $unwind$GetTableIndexFromLocaleName 000000018004af88     LIBCMT:crtheap.obj
 0002:0001dfa0       $unwind$_ctrlfp            000000018004afa0     LIBCMT:fpctrl.obj
 0002:0001dfc8       $unwind$_call_matherr      000000018004afc8     LIBCMT:libm_error.obj
 0002:0001dfd0       $unwind$_handle_errorf     000000018004afd0     LIBCMT:libm_error.obj
 0002:0001dfd0       $unwind$_handle_error      000000018004afd0     LIBCMT:libm_error.obj
 0002:0001dff0       $unwind$_call_reportfault  000000018004aff0     LIBCMT:invarg.obj
 0002:0001e010       $unwind$_flsbuf            000000018004b010     LIBCMT:_flsbuf.obj
 0002:0001e024       $unwind$_output_l          000000018004b024     LIBCMT:output.obj
 0002:0001e024       $unwind$_output_s_l        000000018004b024     LIBCMT:output.obj
 0002:0001e048       $xdatasym                  000000018004b048     LIBCMT:memset.obj
 0002:0001e04c       $unwind$_fcloseall         000000018004b04c     LIBCMT:closeall.obj
 0002:0001e074       $unwind$fflush             000000018004b074     LIBCMT:fflush.obj
 0002:0001e098       $unwind$flsall             000000018004b098     LIBCMT:fflush.obj
 0002:0001e0d8       $unwind$_mtinitlocknum     000000018004b0d8     LIBCMT:mlock.obj
 0002:0001e100       $unwind$setvbuf            000000018004b100     LIBCMT:setvbuf.obj
 0002:0001e12c       $unwind$fwprintf           000000018004b12c     LIBCMT:fwprintf.obj
 0002:0001e150       $unwind$_vswprintf_helper  000000018004b150     LIBCMT:vswprnc.obj
 0002:0001e150       $unwind$_vsnprintf_helper  000000018004b150     LIBCMT:vswprnc.obj
 0002:0001e168       $unwind$raise              000000018004b168     LIBCMT:winsig.obj
 0002:0001e198       $unwind$__crtMessageBoxW   000000018004b198     LIBCMT:crtmboxw.obj
 0002:0001e1b4       $unwind$_NMSG_WRITE        000000018004b1b4     LIBCMT:crt0msg.obj
 0002:0001e1d8       $unwind$_getstream         000000018004b1d8     LIBCMT:stream.obj
 0002:0001e200       $unwind$_openfile          000000018004b200     LIBCMT:_open.obj
 0002:0001e218       $xdatasym                  000000018004b218     LIBCMT:jmpuwind.obj
 0002:0001e22c       $unwind$_ftbuf             000000018004b22c     LIBCMT:_sftbuf.obj
 0002:0001e234       $unwind$_ioinit            000000018004b234     LIBCMT:ioinit.obj
 0002:0001e27c       $unwind$_freefls           000000018004b27c     LIBCMT:tidtable.obj
 0002:0001e2b0       $unwind$_initptd           000000018004b2b0     LIBCMT:tidtable.obj
 0002:0001e2e4       $unwind$__wtomb_environ    000000018004b2e4     LIBCMT:wtombenv.obj
 0002:0001e2f4       $unwind$_mbsnbicoll_l      000000018004b2f4     LIBCMT:mbsnbico.obj
 0002:0001e310       $xdatasym                  000000018004b310     LIBCMT:strcmp.obj
 0002:0001e314       $unwind$?_Type_info_dtor@type_info@@CAXPEAV1@@Z 000000018004b314     LIBCMT:typname.obj
 0002:0001e334       $unwind$_close             000000018004b334     LIBCMT:close.obj
 0002:0001e35c       $unwind$__updatetlocinfo   000000018004b35c     LIBCMT:localref.obj
 0002:0001e37c       $unwind$__updatetmbcinfo   000000018004b37c     LIBCMT:mbctype.obj
 0002:0001e3a0       $unwind$_setmbcp           000000018004b3a0     LIBCMT:mbctype.obj
 0002:0001e3d0       $unwind$_setmbcp_nolock    000000018004b3d0     LIBCMT:mbctype.obj
 0002:0001e3f0       $unwind$?setSBUpLow@@YAXPEAUthreadmbcinfostruct@@@Z 000000018004b3f0     LIBCMT:mbctype.obj
 0002:0001e40c       $unwind$_tolower_l         000000018004b40c     LIBCMT:tolower.obj
 0002:0001e41c       $unwind$_locterm           000000018004b41c     LIBCMT:wsetloca.obj
 0002:0001e43c       $unwind$parse_cmdline      000000018004b43c     LIBCMT:stdargv.obj
 0002:0001e43c       $unwind$?_GetRangeOfTrysToCheck@@YAPEBU_s_TryBlockMapEntry@@PEA_KPEBU_s_FuncInfo@@HHPEAI2PEAU_xDISPATCHER_CONTEXT@@@Z 000000018004b43c     LIBCMT:stdargv.obj
 0002:0001e458       $unwind$_setenvp           000000018004b458     LIBCMT:stdenvp.obj
 0002:0001e458       $unwind$_invalid_parameter 000000018004b458     LIBCMT:stdenvp.obj
 0002:0001e46c       $unwind$__security_init_cookie 000000018004b46c     LIBCMT:gs_support.obj
 0002:0001e478       $unwind$_cftof2_l          000000018004b478     LIBCMT:a_env.obj
 0002:0001e478       $unwind$__crtGetEnvironmentStringsA 000000018004b478     LIBCMT:a_env.obj
 0002:0001e490       $unwind$__crtCaptureCurrentContext 000000018004b490     LIBCMT:winapisupp.obj
 0002:0001e49c       $unwind$__crtCapturePreviousContext 000000018004b49c     LIBCMT:winapisupp.obj
 0002:0001e4a8       $unwind$__CxxCallCatchBlock 000000018004b4a8     LIBCMT:frame.obj
 0002:0001e4e8       $unwind$__CxxCallCatchBlock$fin$1 000000018004b4e8     LIBCMT:frame.obj
 0002:0001e4f4       $unwind$__FrameUnwindToState 000000018004b4f4     LIBCMT:frame.obj
 0002:0001e530       $unwind$?FindHandler@@YAXPEAUEHExceptionRecord@@PEA_KPEAU_CONTEXT@@PEAU_xDISPATCHER_CONTEXT@@PEBU_s_FuncInfo@@EH1@Z 000000018004b530     LIBCMT:frame.obj
 0002:0001e54c       $unwind$?CatchIt@@YAXPEAUEHExceptionRecord@@PEA_KPEAU_CONTEXT@@PEAU_xDISPATCHER_CONTEXT@@PEBU_s_FuncInfo@@PEBU_s_HandlerType@@PEBU_s_CatchableType@@PEBU_s_TryBlockMapEntry@@H1EE@Z 000000018004b54c     LIBCMT:frame.obj
 0002:0001e564       $unwind$__BuildCatchObject 000000018004b564     LIBCMT:frame.obj
 0002:0001e590       $unwind$?FindHandlerForForeignException@@YAXPEAUEHExceptionRecord@@PEA_KPEAU_CONTEXT@@PEAU_xDISPATCHER_CONTEXT@@PEBU_s_FuncInfo@@HH1@Z 000000018004b590     LIBCMT:frame.obj
 0002:0001e5a8       $unwind$__DestructExceptionObject 000000018004b5a8     LIBCMT:frame.obj
 0002:0001e5c8       $unwind$?IsInExceptionSpec@@YAEPEAUEHExceptionRecord@@PEBU_s_ESTypeList@@@Z 000000018004b5c8     LIBCMT:frame.obj
 0002:0001e5e4       $unwind$__InternalCxxFrameHandler 000000018004b5e4     LIBCMT:frame.obj
 0002:0001e5fc       $unwind$__BuildCatchObjectHelper 000000018004b5fc     LIBCMT:frame.obj
 0002:0001e62c       $unwind$_cftoe2_l          000000018004b62c     LIBCMT:cvt.obj
 0002:0001e648       $unwind$_cftoe_l           000000018004b648     LIBCMT:cvt.obj
 0002:0001e660       $unwind$_cftoa_l           000000018004b660     LIBCMT:cvt.obj
 0002:0001e67c       $unwind$_cftof_l           000000018004b67c     LIBCMT:cvt.obj
 0002:0001e694       $unwind$_cftog_l           000000018004b694     LIBCMT:cvt.obj
 0002:0001e6ac       $unwind$_IsNonwritableInCurrentImage 000000018004b6ac     LIBCMT:pesect.obj
 0002:0001e6d0       $unwind$__crtCompareStringEx 000000018004b6d0     LIBCMT:winapinls.obj
 0002:0001e6d0       $unwind$__crtLCMapStringEx 000000018004b6d0     LIBCMT:winapinls.obj
 0002:0001e6d0       $unwind$_sopen_nolock      000000018004b6d0     LIBCMT:winapinls.obj
 0002:0001e6e0       $xdatasym                  000000018004b6e0     LIBCMT:fpsr.obj
 0002:0001e6e8       $unwind$_raise_exc_ex      000000018004b6e8     LIBCMT:fpexcept.obj
 0002:0001e6fc       $unwind$_write             000000018004b6fc     LIBCMT:write.obj
 0002:0001e728       $unwind$_write_nolock      000000018004b728     LIBCMT:write.obj
 0002:0001e74c       $unwind$_lseeki64          000000018004b74c     LIBCMT:lseeki64.obj
 0002:0001e778       $unwind$_wctomb_s_l        000000018004b778     LIBCMT:wctomb.obj
 0002:0001e788       $unwind$_commit            000000018004b788     LIBCMT:commit.obj
 0002:0001e7b0       $unwind$_woutput_l         000000018004b7b0     LIBCMT:woutput.obj
 0002:0001e7d4       $unwind$write_multi_char   000000018004b7d4     LIBCMT:woutput.obj
 0002:0001e7d4       $unwind$write_multi_char   000000018004b7d4     LIBCMT:woutput.obj
 0002:0001e7d4       $unwind$write_multi_char   000000018004b7d4     LIBCMT:woutput.obj
 0002:0001e7e8       $unwind$_recalloc_crt      000000018004b7e8     LIBCMT:woutput.obj
 0002:0001e7e8       $unwind$write_string       000000018004b7e8     LIBCMT:woutput.obj
 0002:0001e7e8       $unwind$write_string       000000018004b7e8     LIBCMT:woutput.obj
 0002:0001e7e8       $unwind$write_string       000000018004b7e8     LIBCMT:woutput.obj
 0002:0001e800       $unwind$_sopen_helper      000000018004b800     LIBCMT:open.obj
 0002:0001e824       $unwind$__crtsetenv        000000018004b824     LIBCMT:setenv.obj
 0002:0001e840       $unwind$__createFile       000000018004b840     LIBCMT:strnicol.obj
 0002:0001e840       $unwind$_strnicoll_l       000000018004b840     LIBCMT:strnicol.obj
 0002:0001e854       $unwind$?__crtCompareStringA_stat@@YAHPEAUlocaleinfo_struct@@PEB_WKPEBDH2HH@Z 000000018004b854     LIBCMT:a_cmp.obj
 0002:0001e874       $unwind$_alloc_osfhnd      000000018004b874     LIBCMT:osfinfo.obj
 0002:0001e8b8       $unwind$_stbuf             000000018004b8b8     LIBCMT:osfinfo.obj
 0002:0001e8b8       $unwind$_free_osfhnd       000000018004b8b8     LIBCMT:osfinfo.obj
 0002:0001e8c8       $unwind$_set_osfhnd        000000018004b8c8     LIBCMT:osfinfo.obj
 0002:0001e8dc       $unwind$__lock_fhandle     000000018004b8dc     LIBCMT:osfinfo.obj
 0002:0001e908       $unwind$__free_lc_time     000000018004b908     LIBCMT:initmon.obj
 0002:0001e908       $unwind$__free_lconv_mon   000000018004b908     LIBCMT:initmon.obj
 0002:0001e910       $unwind$__crtLCMapStringA  000000018004b910     LIBCMT:a_map.obj
 0002:0001e920       $unwind$?__crtLCMapStringA_stat@@YAHPEAUlocaleinfo_struct@@PEB_WKPEBDHPEADHHH@Z 000000018004b920     LIBCMT:a_map.obj
 0002:0001e948       $unwind$__crtGetStringTypeA 000000018004b948     LIBCMT:a_str.obj
 0002:0001e948       $unwind$__crtCompareStringA 000000018004b948     LIBCMT:a_str.obj
 0002:0001e958       $unwind$?__crtGetStringTypeA_stat@@YAHPEAUlocaleinfo_struct@@KPEBDHPEAGHH@Z 000000018004b958     LIBCMT:a_str.obj
 0002:0001e980       $unwind$_isctype_l         000000018004b980     LIBCMT:isctype.obj
 0002:0001e990       $xdatasym                  000000018004b990     LIBCMT:memcmp.obj
 0002:0001e994       $unwind$?x_ismbbtype_l@@YAHPEAUlocaleinfo_struct@@IHH@Z 000000018004b994     LIBCMT:ismbbyte.obj
 0002:0001e994       $unwind$_stricmp_l         000000018004b994     LIBCMT:ismbbyte.obj
 0002:0001e994       $unwind$_mbschr_l          000000018004b994     LIBCMT:ismbbyte.obj
 0002:0001e9a8       $xdatasym                  000000018004b9a8     LIBCMT:handlers.obj
 0002:0001e9b0       $unwind$_cropzeros_l       000000018004b9b0     LIBCMT:_ctype.obj
 0002:0001e9b0       $unwind$??2@YAPEAX_K@Z     000000018004b9b0     LIBCMT:_ctype.obj
 0002:0001e9b0       $unwind$_isleadbyte_l      000000018004b9b0     LIBCMT:_ctype.obj
 0002:0001e9b0       $unwind$?getSystemCP@@YAHH@Z 000000018004b9b0     LIBCMT:_ctype.obj
 0002:0001e9b0       $unwind$isdigit            000000018004b9b0     LIBCMT:_ctype.obj
 0002:0001e9b0       $unwind$isleadbyte         000000018004b9b0     LIBCMT:_ctype.obj
 0002:0001e9b0       $unwind$_forcdecpt_l       000000018004b9b0     LIBCMT:_ctype.obj
 0002:0001e9b8       $unwind$strchr             000000018004b9b8     LIBCMT:strrchr.obj
 0002:0001e9b8       $unwind$strrchr            000000018004b9b8     LIBCMT:strrchr.obj
 0002:0001e9c0       $unwind$_atodbl_l          000000018004b9c0     LIBCMT:atodbl.obj
 0002:0001e9d4       $unwind$__crt_atoflt_l     000000018004b9d4     LIBCMT:atodbl.obj
 0002:0001e9e8       $unwind$_fltout2           000000018004b9e8     LIBCMT:cfout.obj
 0002:0001ea00       $unwind$__dtold            000000018004ba00     LIBCMT:cfout.obj
 0002:0001ea08       $xdatasym                  000000018004ba08     LIBCMT:chkstk.obj
 0002:0001ea10       $unwind$_mbtowc_l          000000018004ba10     LIBCMT:mbtowc.obj
 0002:0001ea28       $unwind$_fputwc_nolock     000000018004ba28     LIBCMT:fputwc.obj
 0002:0001ea44       $unwind$_wsopen_nolock     000000018004ba44     LIBCMT:wopen.obj
 0002:0001ea60       $xdatasym                  000000018004ba60     LIBCMT:strncmp.obj
 0002:0001ea64       $unwind$_ld12tod           000000018004ba64     LIBCMT:intrncvt.obj
 0002:0001ea64       $unwind$_ld12tof           000000018004ba64     LIBCMT:intrncvt.obj
 0002:0001ea88       $unwind$__strgtold12_l     000000018004ba88     LIBCMT:strgtold.obj
 0002:0001eaac       $unwind$$I10_OUTPUT        000000018004baac     LIBCMT:x10fout.obj
 0002:0001ead0       $unwind$_flswbuf           000000018004bad0     LIBCMT:_flswbuf.obj
 0002:0001eae4       $unwind$_chsize_nolock     000000018004bae4     LIBCMT:chsize.obj
 0002:0001eb00       $unwind$_read_nolock       000000018004bb00     LIBCMT:read.obj
 0002:0001eb18       $unwind$__mtold12          000000018004bb18     LIBCMT:mantold.obj
 0002:0001eb30       $unwind$__delayLoadHelper2 000000018004bb30     DelayImp:delayhlp.obj
 0002:0001eb48       $xdatasym                  000000018004bb48     LIBCMT:cos.obj
 0002:0001eb50       $xdatasym                  000000018004bb50     LIBCMT:cosf.obj
 0002:0001eb58       $xdatasym                  000000018004bb58     LIBCMT:expf.obj
 0002:0001eb60       $xdatasym                  000000018004bb60     LIBCMT:powf.obj
 0002:0001eb70       $xdatasym                  000000018004bb70     LIBCMT:sin.obj
 0002:0001eb78       $xdatasym                  000000018004bb78     LIBCMT:sinf.obj
 0002:0001eb80       $unwind$__fma3_lib_init    000000018004bb80     LIBCMT:fma3_available.obj
 0002:0001eb88       $xdatasym                  000000018004bb88     LIBCMT:remainder_piby2_forAsm.obj
 0002:0001eb98       $xdatasym                  000000018004bb98     LIBCMT:remainder_piby2_forFMA3.obj
 0002:0001eba8       $xdatasym                  000000018004bba8     LIBCMT:remainder_piby2f_forAsm.obj
 0002:0001ebac       $unwind$_expf_special      000000018004bbac     LIBCMT:exp_special.obj
 0002:0001ebb8       $unwind$_powf_special      000000018004bbb8     LIBCMT:pow_special.obj
 0002:0001ebc8       $xdatasym                  000000018004bbc8     LIBCMT:remainder_piby2f_forC.obj
 0002:00020080       .edata                     000000018004d080     lwip_image.exp
 0002:000200a8       rgpv                       000000018004d0a8     lwip_image.exp
 0002:000200ac       rgszName                   000000018004d0ac     lwip_image.exp
 0002:000200b0       rgwOrd                     000000018004d0b0     lwip_image.exp
 0002:000200b2       szName                     000000018004d0b2     lwip_image.exp
 0002:000200c2       $N00001                    000000018004d0c2     lwip_image.exp
 0002:0002041e       .idata$6                   000000018004d41e     kernel32:KERNEL32.dll
 0002:00020446       .idata$6                   000000018004d446     shell32:SHELL32.dll
 0003:000003c0       _assertstring              000000018004e3c0     LIBCMT:wassert.obj
 0003:00000410       dotdotdot                  000000018004e410     LIBCMT:wassert.obj
 0003:00000418       newline                    000000018004e418     LIBCMT:wassert.obj
 0003:00000420       dblnewline                 000000018004e420     LIBCMT:wassert.obj
 0003:00000454       ?dazSupported@?1??_ctrlfp@@9@9 000000018004e454     LIBCMT:fpctrl.obj
 0003:00000470       errtable                   000000018004e470     LIBCMT:dosmap.obj
 0003:000005d8       ErrnoNoMem                 000000018004e5d8     LIBCMT:dosmap.obj
 0003:000005dc       DoserrorNoMem              000000018004e5dc     LIBCMT:dosmap.obj
 0003:000005e0       _locktable                 000000018004e5e0     LIBCMT:mlock.obj
 0003:00000cb8       __rgctypeflag              000000018004ecb8     LIBCMT:mbctype.obj
 0003:00000cc0       __rgcode_page_info         000000018004ecc0     LIBCMT:mbctype.obj
 0003:000011f0       _ctype_loc_style           000000018004f1f0     LIBCMT:wsetloca.obj
 0003:000011f8       ?isPackaged@?1??__crtIsPackagedApp@@9@9 000000018004f1f8     LIBCMT:winapisupp.obj
 0003:00001250       ?_names@?1??_get_fname@@9@9 000000018004f250     LIBCMT:fpexcept.obj
 0003:00001520       DoubleFormat               000000018004f520     LIBCMT:intrncvt.obj
 0003:00001538       FloatFormat                000000018004f538     LIBCMT:intrncvt.obj
 0003:00001930       _module                    000000018004f930     * CIL library *:* CIL module *
 0003:00001978       ?pi@?1??atan2@@9@9         000000018004f978     LIBCMT:atan2.obj
 0003:00001980       ?piby2@?1??atan2@@9@9      000000018004f980     LIBCMT:atan2.obj
 0003:00001988       ?piby4@?1??atan2@@9@9      000000018004f988     LIBCMT:atan2.obj
 0003:00001990       ?three_piby4@?1??atan2@@9@9 000000018004f990     LIBCMT:atan2.obj
 0003:00001998       ?pi_head@?1??atan2@@9@9    000000018004f998     LIBCMT:atan2.obj
 0003:000019a0       ?pi_tail@?1??atan2@@9@9    000000018004f9a0     LIBCMT:atan2.obj
 0003:000019a8       ?piby2_head@?1??atan2@@9@9 000000018004f9a8     LIBCMT:atan2.obj
 0003:000019b0       ?piby2_tail@?1??atan2@@9@9 000000018004f9b0     LIBCMT:atan2.obj
 0003:00001da8       allocator_arg              000000018004fda8     libcpmt:syserror.obj
 0003:00001da9       piecewise_construct        000000018004fda9     libcpmt:syserror.obj
 0003:00001daa       _Tuple_alloc               000000018004fdaa     libcpmt:xthrow.obj
 0003:00001dab       ignore                     000000018004fdab     libcpmt:xthrow.obj
 0003:00001dac       allocator_arg              000000018004fdac     libcpmt:xthrow.obj
 0003:00001dad       piecewise_construct        000000018004fdad     libcpmt:xthrow.obj
 0003:00001db8       __proc_attached            000000018004fdb8     LIBCMT:dllcrt0.obj
 0003:00001de0       GS_ExceptionRecord         000000018004fde0     LIBCMT:gs_report.obj
 0003:00001e80       GS_ContextRecord           000000018004fe80     LIBCMT:gs_report.obj
 0003:00002350       DebuggerWasPresent         0000000180050350     LIBCMT:gs_report.obj
 0003:000023e0       lclcritsects               00000001800503e0     LIBCMT:mlock.obj
 0003:00002618       ctrlc_action               0000000180050618     LIBCMT:winsig.obj
 0003:00002620       ctrlbreak_action           0000000180050620     LIBCMT:winsig.obj
 0003:00002628       abort_action               0000000180050628     LIBCMT:winsig.obj
 0003:00002630       term_action                0000000180050630     LIBCMT:winsig.obj
 0003:00002638       ConsoleCtrlHandler_Installed 0000000180050638     LIBCMT:winsig.obj
 0003:00002640       ?pfnMessageBox@?1??__crtMessageBoxW@@9@9 0000000180050640     LIBCMT:crtmboxw.obj
 0003:00002648       ?pfnGetActiveWindow@?1??__crtMessageBoxW@@9@9 0000000180050648     LIBCMT:crtmboxw.obj
 0003:00002650       ?pfnGetLastActivePopup@?1??__crtMessageBoxW@@9@9 0000000180050650     LIBCMT:crtmboxw.obj
 0003:00002658       ?pfnGetProcessWindowStation@?1??__crtMessageBoxW@@9@9 0000000180050658     LIBCMT:crtmboxw.obj
 0003:00002660       ?pfnGetUserObjectInformation@?1??__crtMessageBoxW@@9@9 0000000180050660     LIBCMT:crtmboxw.obj
 0003:00002680       ?outmsg@?8??_NMSG_WRITE@@9@9 0000000180050680     LIBCMT:crt0msg.obj
 0003:00002ec0       __type_info_root_node      0000000180050ec0     LIBCMT:typname.obj
 0003:00002ef0       fSystemSet                 0000000180050ef0     LIBCMT:mbctype.obj
 0003:00002f00       ?_pgmname@?1??_setargv@@9@9 0000000180050f00     LIBCMT:stdargv.obj
 0003:00003010       g_pfnRtlGenRandom          0000000180051010     LIBCMT:rand_s.obj
 0003:00003018       __crtCallProc              0000000180051018     LIBCMT:winapinls.obj
 0003:00003028       __enable_percent_n         0000000180051028     LIBCMT:printf.obj
 0003:00003080       heap                       0000000180051080     LIBCMT:undname.obj
 0003:000032f0       allocator_arg              00000001800512f0     * CIL library *:* CIL module *
 0003:000032f1       piecewise_construct        00000001800512f1     * CIL library *:* CIL module *
 0003:000032f2       allocator_arg              00000001800512f2     * CIL library *:* CIL module *
 0003:000032f3       piecewise_construct        00000001800512f3     * CIL library *:* CIL module *
 0003:000032f4       allocator_arg              00000001800512f4     * CIL library *:* CIL module *
 0003:000032f5       piecewise_construct        00000001800512f5     * CIL library *:* CIL module *
 0003:000032f6       allocator_arg              00000001800512f6     * CIL library *:* CIL module *
 0003:000032f7       piecewise_construct        00000001800512f7     * CIL library *:* CIL module *
 0003:00003300       allocator_arg              0000000180051300     * CIL library *:* CIL module *
 0003:00003301       piecewise_construct        0000000180051301     * CIL library *:* CIL module *
 0003:00003302       allocator_arg              0000000180051302     * CIL library *:* CIL module *
 0003:00003303       piecewise_construct        0000000180051303     * CIL library *:* CIL module *
 0003:00003304       allocator_arg              0000000180051304     * CIL library *:* CIL module *
 0003:00003305       piecewise_construct        0000000180051305     * CIL library *:* CIL module *
 0003:00003306       allocator_arg              0000000180051306     * CIL library *:* CIL module *
 0003:00003307       piecewise_construct        0000000180051307     * CIL library *:* CIL module *
 0003:00003308       allocator_arg              0000000180051308     * CIL library *:* CIL module *
 0003:00003309       piecewise_construct        0000000180051309     * CIL library *:* CIL module *
 0003:0000330a       allocator_arg              000000018005130a     * CIL library *:* CIL module *
 0003:0000330b       piecewise_construct        000000018005130b     * CIL library *:* CIL module *
 0003:0000330c       allocator_arg              000000018005130c     * CIL library *:* CIL module *
 0003:0000330d       piecewise_construct        000000018005130d     * CIL library *:* CIL module *
 0003:0000330e       allocator_arg              000000018005130e     * CIL library *:* CIL module *
 0003:0000330f       piecewise_construct        000000018005130f     * CIL library *:* CIL module *
 0003:00003310       allocator_arg              0000000180051310     * CIL library *:* CIL module *
 0003:00003311       piecewise_construct        0000000180051311     * CIL library *:* CIL module *
 0004:00000000       $pdata$?InitAll@@YAXV?$Local@VObject@v8@@@v8@@@Z 0000000180053000     * CIL library *:* CIL module *
 0004:0000000c       $pdata$??1?$basic_string@DU?$char_traits@D@std@@V?$allocator@D@2@@std@@QEAA@XZ 000000018005300c     * CIL library *:* CIL module *
 0004:00000018       $pdata$?assign@?$basic_string@DU?$char_traits@D@std@@V?$allocator@D@2@@std@@QEAAAEAV12@AEBV12@_K1@Z 0000000180053018     * CIL library *:* CIL module *
 0004:00000024       $pdata$?assign@?$basic_string@DU?$char_traits@D@std@@V?$allocator@D@2@@std@@QEAAAEAV12@PEBD_K@Z 0000000180053024     * CIL library *:* CIL module *
 0004:00000030       $pdata$?erase@?$basic_string@DU?$char_traits@D@std@@V?$allocator@D@2@@std@@QEAAAEAV12@_K0@Z 0000000180053030     * CIL library *:* CIL module *
 0004:0000003c       $pdata$?_Copy@?$basic_string@DU?$char_traits@D@std@@V?$allocator@D@2@@std@@QEAAX_K0@Z 000000018005303c     * CIL library *:* CIL module *
 0004:00000048       $pdata$??_Gexception@stdext@@UEAAPEAXI@Z 0000000180053048     * CIL library *:* CIL module *
 0004:00000054       $pdata$??1ObjectWrap@node@@UEAA@XZ 0000000180053054     * CIL library *:* CIL module *
 0004:00000060       $pdata$?Wrap@ObjectWrap@node@@IEAAXV?$Local@VObject@v8@@@v8@@@Z 0000000180053060     * CIL library *:* CIL module *
 0004:0000006c       $pdata$?Ref@ObjectWrap@node@@MEAAXXZ 000000018005306c     * CIL library *:* CIL module *
 0004:00000078       $pdata$?Unref@ObjectWrap@node@@MEAAXXZ 0000000180053078     * CIL library *:* CIL module *
 0004:00000084       $pdata$?WeakCallback@ObjectWrap@node@@CAXAEBV?$WeakCallbackInfo@VObjectWrap@node@@@v8@@@Z 0000000180053084     * CIL library *:* CIL module *
 0004:00000090       $pdata$??_GObjectWrap@node@@UEAAPEAXI@Z 0000000180053090     * CIL library *:* CIL module *
 0004:0000009c       $pdata$?FunctionCallbackWrapper@imp@Nan@@YAXAEBV?$FunctionCallbackInfo@VValue@v8@@@v8@@@Z 000000018005309c     * CIL library *:* CIL module *
 0004:000000a8       $pdata$?New@?$Factory@VFunctionTemplate@v8@@@imp@Nan@@SA?AV?$Local@VFunctionTemplate@v8@@@v8@@P6AXAEBV?$FunctionCallbackInfo@VValue@v8@@@3@@ZV?$Local@VValue@v8@@@5@V?$Local@VSignature@v8@@@5@@Z 00000001800530a8     * CIL library *:* CIL module *
 0004:000000b4       $pdata$??0Callback@Nan@@QEAA@AEBV?$Local@VFunction@v8@@@v8@@@Z 00000001800530b4     * CIL library *:* CIL module *
 0004:000000c0       $pdata$?SetFunction@Callback@Nan@@QEAAXAEBV?$Local@VFunction@v8@@@v8@@@Z 00000001800530c0     * CIL library *:* CIL module *
 0004:000000cc       $pdata$?AsyncExecuteComplete@Nan@@YAXPEAUuv_work_s@@@Z 00000001800530cc     * CIL library *:* CIL module *
 0004:000000d8       $pdata$?SetPrototypeMethod@Nan@@YAXV?$Local@VFunctionTemplate@v8@@@v8@@PEBDP6AXAEBV?$FunctionCallbackInfo@VValue@v8@@@1@@Z@Z 00000001800530d8     * CIL library *:* CIL module *
 0004:000000e4       $pdata$?_snprintf@cimg@cimg_library@@YAHQEAD_KQEBDZZ 00000001800530e4     * CIL library *:* CIL module *
 0004:000000f0       $pdata$?_vsnprintf@cimg@cimg_library@@YAHQEAD_KQEBDPEAD@Z 00000001800530f0     * CIL library *:* CIL module *
 0004:000000fc       $pdata$??0CImgException@cimg_library@@QEAA@AEBU01@@Z 00000001800530fc     * CIL library *:* CIL module *
 0004:00000108       $pdata$??1CImgIOException@cimg_library@@UEAA@XZ 0000000180053108     * CIL library *:* CIL module *
 0004:00000108       $pdata$??1CImgInstanceException@cimg_library@@UEAA@XZ 0000000180053108     * CIL library *:* CIL module *
 0004:00000108       $pdata$??1CImgException@cimg_library@@UEAA@XZ 0000000180053108     * CIL library *:* CIL module *
 0004:00000108       $pdata$??1CImgArgumentException@cimg_library@@UEAA@XZ 0000000180053108     * CIL library *:* CIL module *
 0004:00000114       $pdata$??_GCImgInstanceException@cimg_library@@UEAAPEAXI@Z 0000000180053114     * CIL library *:* CIL module *
 0004:00000114       $pdata$??_GCImgArgumentException@cimg_library@@UEAAPEAXI@Z 0000000180053114     * CIL library *:* CIL module *
 0004:00000114       $pdata$??_GCImgIOException@cimg_library@@UEAAPEAXI@Z 0000000180053114     * CIL library *:* CIL module *
 0004:00000114       $pdata$??_GCImgException@cimg_library@@UEAAPEAXI@Z 0000000180053114     * CIL library *:* CIL module *
 0004:00000120       $pdata$??0CImgArgumentException@cimg_library@@QEAA@QEBDZZ 0000000180053120     * CIL library *:* CIL module *
 0004:0000012c       $pdata$??0CImgInstanceException@cimg_library@@QEAA@QEBDZZ 000000018005312c     * CIL library *:* CIL module *
 0004:00000138       $pdata$??0CImgIOException@cimg_library@@QEAA@QEBDZZ 0000000180053138     * CIL library *:* CIL module *
 0004:00000144       $pdata$?Mutex_attr@cimg@cimg_library@@YAAEAUMutex_info@12@XZ 0000000180053144     * CIL library *:* CIL module *
 0004:00000150       $pdata$1$?Mutex_attr@cimg@cimg_library@@YAAEAUMutex_info@12@XZ 0000000180053150     * CIL library *:* CIL module *
 0004:0000015c       $pdata$2$?Mutex_attr@cimg@cimg_library@@YAAEAUMutex_info@12@XZ 000000018005315c     * CIL library *:* CIL module *
 0004:00000168       $pdata$?warn@cimg@cimg_library@@YAXQEBDZZ 0000000180053168     * CIL library *:* CIL module *
 0004:00000174       $pdata$0$?warn@cimg@cimg_library@@YAXQEBDZZ 0000000180053174     * CIL library *:* CIL module *
 0004:00000180       $pdata$1$?warn@cimg@cimg_library@@YAXQEBDZZ 0000000180053180     * CIL library *:* CIL module *
 0004:0000018c       $pdata$?filenamerand@cimg@cimg_library@@YAPEBDXZ 000000018005318c     * CIL library *:* CIL module *
 0004:00000198       $pdata$?winformat_string@cimg@cimg_library@@YAXQEAD@Z 0000000180053198     * CIL library *:* CIL module *
 0004:000001a4       $pdata$0$?winformat_string@cimg@cimg_library@@YAXQEAD@Z 00000001800531a4     * CIL library *:* CIL module *
 0004:000001b0       $pdata$1$?winformat_string@cimg@cimg_library@@YAXQEAD@Z 00000001800531b0     * CIL library *:* CIL module *
 0004:000001bc       $pdata$??0CImgIOException@cimg_library@@QEAA@AEBU01@@Z 00000001800531bc     * CIL library *:* CIL module *
 0004:000001bc       $pdata$??0CImgInstanceException@cimg_library@@QEAA@AEBU01@@Z 00000001800531bc     * CIL library *:* CIL module *
 0004:000001bc       $pdata$??0CImgArgumentException@cimg_library@@QEAA@AEBU01@@Z 00000001800531bc     * CIL library *:* CIL module *
 0004:000001c8       $pdata$?fclose@cimg@cimg_library@@YAHPEAU_iobuf@@@Z 00000001800531c8     * CIL library *:* CIL module *
 0004:000001d4       $pdata$?info@cimg@cimg_library@@YAXXZ 00000001800531d4     * CIL library *:* CIL module *
 0004:000001e0       $pdata$?temporary_path@cimg@cimg_library@@YAPEBDQEBD_N@Z 00000001800531e0     * CIL library *:* CIL module *
 0004:000001ec       $pdata$?programfiles_path@cimg@cimg_library@@YAPEBDQEBD_N@Z 00000001800531ec     * CIL library *:* CIL module *
 0004:000001f8       $pdata$?imagemagick_path@cimg@cimg_library@@YAPEBDQEBD_N@Z 00000001800531f8     * CIL library *:* CIL module *
 0004:00000204       $pdata$4$?imagemagick_path@cimg@cimg_library@@YAPEBDQEBD_N@Z 0000000180053204     * CIL library *:* CIL module *
 0004:00000210       $pdata$5$?imagemagick_path@cimg@cimg_library@@YAPEBDQEBD_N@Z 0000000180053210     * CIL library *:* CIL module *
 0004:0000021c       $pdata$6$?imagemagick_path@cimg@cimg_library@@YAPEBDQEBD_N@Z 000000018005321c     * CIL library *:* CIL module *
 0004:00000228       $pdata$7$?imagemagick_path@cimg@cimg_library@@YAPEBDQEBD_N@Z 0000000180053228     * CIL library *:* CIL module *
 0004:00000234       $pdata$8$?imagemagick_path@cimg@cimg_library@@YAPEBDQEBD_N@Z 0000000180053234     * CIL library *:* CIL module *
 0004:00000240       $pdata$?graphicsmagick_path@cimg@cimg_library@@YAPEBDQEBD_N@Z 0000000180053240     * CIL library *:* CIL module *
 0004:0000024c       $pdata$4$?graphicsmagick_path@cimg@cimg_library@@YAPEBDQEBD_N@Z 000000018005324c     * CIL library *:* CIL module *
 0004:00000258       $pdata$5$?graphicsmagick_path@cimg@cimg_library@@YAPEBDQEBD_N@Z 0000000180053258     * CIL library *:* CIL module *
 0004:00000264       $pdata$6$?graphicsmagick_path@cimg@cimg_library@@YAPEBDQEBD_N@Z 0000000180053264     * CIL library *:* CIL module *
 0004:00000270       $pdata$7$?graphicsmagick_path@cimg@cimg_library@@YAPEBDQEBD_N@Z 0000000180053270     * CIL library *:* CIL module *
 0004:0000027c       $pdata$8$?graphicsmagick_path@cimg@cimg_library@@YAPEBDQEBD_N@Z 000000018005327c     * CIL library *:* CIL module *
 0004:00000288       $pdata$?medcon_path@cimg@cimg_library@@YAPEBDQEBD_N@Z 0000000180053288     * CIL library *:* CIL module *
 0004:00000294       $pdata$0$?medcon_path@cimg@cimg_library@@YAPEBDQEBD_N@Z 0000000180053294     * CIL library *:* CIL module *
 0004:000002a0       $pdata$1$?medcon_path@cimg@cimg_library@@YAPEBDQEBD_N@Z 00000001800532a0     * CIL library *:* CIL module *
 0004:000002ac       $pdata$?strbuffersize@cimg@cimg_library@@YAPEBDK@Z 00000001800532ac     * CIL library *:* CIL module *
 0004:000002b8       $pdata$?Init@LwipImage@@SAXV?$Local@VObject@v8@@@v8@@@Z 00000001800532b8     * CIL library *:* CIL module *
 0004:000002c4       $pdata$??0LwipImage@@QEAA@PEAE_K1@Z 00000001800532c4     * CIL library *:* CIL module *
 0004:000002d0       $pdata$??_GLwipImage@@UEAAPEAXI@Z 00000001800532d0     * CIL library *:* CIL module *
 0004:000002dc       $pdata$?New@LwipImage@@SAXAEBV?$FunctionCallbackInfo@VValue@v8@@@Nan@@@Z 00000001800532dc     * CIL library *:* CIL module *
 0004:000002e8       $pdata$?width@LwipImage@@SAXAEBV?$FunctionCallbackInfo@VValue@v8@@@Nan@@@Z 00000001800532e8     * CIL library *:* CIL module *
 0004:000002f4       $pdata$?height@LwipImage@@SAXAEBV?$FunctionCallbackInfo@VValue@v8@@@Nan@@@Z 00000001800532f4     * CIL library *:* CIL module *
 0004:00000300       $pdata$?getPixel@LwipImage@@SAXAEBV?$FunctionCallbackInfo@VValue@v8@@@Nan@@@Z 0000000180053300     * CIL library *:* CIL module *
 0004:0000030c       $pdata$?buffer@LwipImage@@SAXAEBV?$FunctionCallbackInfo@VValue@v8@@@Nan@@@Z 000000018005330c     * CIL library *:* CIL module *
 0004:00000318       $pdata$?resize@LwipImage@@SAXAEBV?$FunctionCallbackInfo@VValue@v8@@@Nan@@@Z 0000000180053318     * CIL library *:* CIL module *
 0004:00000324       $pdata$?rotate@LwipImage@@SAXAEBV?$FunctionCallbackInfo@VValue@v8@@@Nan@@@Z 0000000180053324     * CIL library *:* CIL module *
 0004:00000330       $pdata$?blur@LwipImage@@SAXAEBV?$FunctionCallbackInfo@VValue@v8@@@Nan@@@Z 0000000180053330     * CIL library *:* CIL module *
 0004:0000033c       $pdata$?crop@LwipImage@@SAXAEBV?$FunctionCallbackInfo@VValue@v8@@@Nan@@@Z 000000018005333c     * CIL library *:* CIL module *
 0004:00000348       $pdata$?mirror@LwipImage@@SAXAEBV?$FunctionCallbackInfo@VValue@v8@@@Nan@@@Z 0000000180053348     * CIL library *:* CIL module *
 0004:00000354       $pdata$?pad@LwipImage@@SAXAEBV?$FunctionCallbackInfo@VValue@v8@@@Nan@@@Z 0000000180053354     * CIL library *:* CIL module *
 0004:00000360       $pdata$?sharpen@LwipImage@@SAXAEBV?$FunctionCallbackInfo@VValue@v8@@@Nan@@@Z 0000000180053360     * CIL library *:* CIL module *
 0004:0000036c       $pdata$?hslaAdj@LwipImage@@SAXAEBV?$FunctionCallbackInfo@VValue@v8@@@Nan@@@Z 000000018005336c     * CIL library *:* CIL module *
 0004:00000378       $pdata$?opacify@LwipImage@@SAXAEBV?$FunctionCallbackInfo@VValue@v8@@@Nan@@@Z 0000000180053378     * CIL library *:* CIL module *
 0004:00000384       $pdata$?paste@LwipImage@@SAXAEBV?$FunctionCallbackInfo@VValue@v8@@@Nan@@@Z 0000000180053384     * CIL library *:* CIL module *
 0004:00000390       $pdata$?setPixel@LwipImage@@SAXAEBV?$FunctionCallbackInfo@VValue@v8@@@Nan@@@Z 0000000180053390     * CIL library *:* CIL module *
 0004:0000039c       $pdata$??0?$CImg@D@cimg_library@@QEAA@IIII@Z 000000018005339c     * CIL library *:* CIL module *
 0004:000003a8       $pdata$?assign@?$CImg@D@cimg_library@@QEAAAEAU12@IIII@Z 00000001800533a8     * CIL library *:* CIL module *
 0004:000003b4       $pdata$??0?$CImg@E@cimg_library@@QEAA@QEBEIIII_N@Z 00000001800533b4     * CIL library *:* CIL module *
 0004:000003c0       $pdata$??0?$CImg@E@cimg_library@@QEAA@IIII@Z 00000001800533c0     * CIL library *:* CIL module *
 0004:000003cc       $pdata$??0?$CImg@E@cimg_library@@QEAA@AEBU01@@Z 00000001800533cc     * CIL library *:* CIL module *
 0004:000003d8       $pdata$??$Unwrap@VLwipImage@@@ObjectWrap@node@@SAPEAVLwipImage@@V?$Local@VObject@v8@@@v8@@@Z 00000001800533d8     * CIL library *:* CIL module *
 0004:000003e4       $pdata$?Call_@Callback@Nan@@AEBA?AV?$Local@VValue@v8@@@v8@@PEAVIsolate@4@V?$Local@VObject@v8@@@4@HQEAV34@@Z 00000001800533e4     * CIL library *:* CIL module *
 0004:000003f0       $pdata$??0AsyncWorker@Nan@@QEAA@PEAVCallback@1@@Z 00000001800533f0     * CIL library *:* CIL module *
 0004:000003fc       $pdata$??1AsyncWorker@Nan@@UEAA@XZ 00000001800533fc     * CIL library *:* CIL module *
 0004:00000408       $pdata$?WorkComplete@AsyncWorker@Nan@@UEAAXXZ 0000000180053408     * CIL library *:* CIL module *
 0004:00000414       $pdata$?HandleOKCallback@AsyncWorker@Nan@@MEAAXXZ 0000000180053414     * CIL library *:* CIL module *
 0004:00000420       $pdata$?HandleErrorCallback@AsyncWorker@Nan@@MEAAXXZ 0000000180053420     * CIL library *:* CIL module *
 0004:0000042c       $pdata$?SetErrorMessage@AsyncWorker@Nan@@IEAAXPEBD@Z 000000018005342c     * CIL library *:* CIL module *
 0004:00000438       $pdata$??_GAsyncWorker@Nan@@UEAAPEAXI@Z 0000000180053438     * CIL library *:* CIL module *
 0004:00000444       $pdata$??_GResizeWorker@@UEAAPEAXI@Z 0000000180053444     * CIL library *:* CIL module *
 0004:00000450       $pdata$?Execute@ResizeWorker@@UEAAXXZ 0000000180053450     * CIL library *:* CIL module *
 0004:0000045c       $pdata$?HandleOKCallback@PasteWorker@@UEAAXXZ 000000018005345c     * CIL library *:* CIL module *
 0004:0000045c       $pdata$?HandleOKCallback@HSLAWorker@@UEAAXXZ 000000018005345c     * CIL library *:* CIL module *
 0004:0000045c       $pdata$?HandleOKCallback@SetPixelWorker@@UEAAXXZ 000000018005345c     * CIL library *:* CIL module *
 0004:0000045c       $pdata$?HandleOKCallback@MirrorWorker@@UEAAXXZ 000000018005345c     * CIL library *:* CIL module *
 0004:0000045c       $pdata$?HandleOKCallback@OpacifyWorker@@UEAAXXZ 000000018005345c     * CIL library *:* CIL module *
 0004:0000045c       $pdata$?HandleOKCallback@ResizeWorker@@UEAAXXZ 000000018005345c     * CIL library *:* CIL module *
 0004:0000045c       $pdata$?HandleOKCallback@SharpenWorker@@UEAAXXZ 000000018005345c     * CIL library *:* CIL module *
 0004:0000045c       $pdata$?HandleOKCallback@BlurWorker@@UEAAXXZ 000000018005345c     * CIL library *:* CIL module *
 0004:0000045c       $pdata$?HandleOKCallback@PadWorker@@UEAAXXZ 000000018005345c     * CIL library *:* CIL module *
 0004:0000045c       $pdata$?HandleOKCallback@CropWorker@@UEAAXXZ 000000018005345c     * CIL library *:* CIL module *
 0004:0000045c       $pdata$?HandleOKCallback@RotateWorker@@UEAAXXZ 000000018005345c     * CIL library *:* CIL module *
 0004:00000468       $pdata$??0?$CImg@K@cimg_library@@QEAA@IIII@Z 0000000180053468     * CIL library *:* CIL module *
 0004:00000474       $pdata$?resize@?$CImg@E@cimg_library@@QEAAAEAU12@HHHHHIMMMM@Z 0000000180053474     * CIL library *:* CIL module *
 0004:00000480       $pdata$?assign@?$CImg@E@cimg_library@@QEAAAEAU12@XZ 0000000180053480     * CIL library *:* CIL module *
 0004:0000048c       $pdata$?move_to@?$CImg@E@cimg_library@@QEAAAEAU12@AEAU12@@Z 000000018005348c     * CIL library *:* CIL module *
 0004:00000498       $pdata$?get_resize@?$CImg@E@cimg_library@@QEBA?AU12@HHHHHIMMMM@Z 0000000180053498     * CIL library *:* CIL module *
 0004:000004a4       $pdata$??0?$CImg@M@cimg_library@@QEAA@IIII@Z 00000001800534a4     * CIL library *:* CIL module *
 0004:000004b0       $pdata$??0?$CImg@M@cimg_library@@QEAA@IIIIAEBM@Z 00000001800534b0     * CIL library *:* CIL module *
 0004:000004bc       $pdata$??0?$CImg@E@cimg_library@@QEAA@IIIIAEBE@Z 00000001800534bc     * CIL library *:* CIL module *
 0004:000004c8       $pdata$?assign@?$CImg@E@cimg_library@@QEAAAEAU12@IIII@Z 00000001800534c8     * CIL library *:* CIL module *
 0004:000004d4       $pdata$??H?$CImg@E@cimg_library@@QEBA?AU01@XZ 00000001800534d4     * CIL library *:* CIL module *
 0004:000004e0       $pdata$?_cimg_lanczos@?$CImg@E@cimg_library@@SAMM@Z 00000001800534e0     * CIL library *:* CIL module *
 0004:000004ec       $pdata$2$?_cimg_lanczos@?$CImg@E@cimg_library@@SAMM@Z 00000001800534ec     * CIL library *:* CIL module *
 0004:000004f8       $pdata$3$?_cimg_lanczos@?$CImg@E@cimg_library@@SAMM@Z 00000001800534f8     * CIL library *:* CIL module *
 0004:00000504       $pdata$?get_crop@?$CImg@E@cimg_library@@QEBA?AU12@HHHHHHHH_N@Z 0000000180053504     * CIL library *:* CIL module *
 0004:00000510       $pdata$?draw_image@?$CImg@E@cimg_library@@QEAAAEAU12@HHHHAEBU12@M@Z 0000000180053510     * CIL library *:* CIL module *
 0004:0000051c       $pdata$??0?$CImg@I@cimg_library@@QEAA@IIII@Z 000000018005351c     * CIL library *:* CIL module *
 0004:00000528       $pdata$?fill@?$CImg@M@cimg_library@@QEAAAEAU12@AEBM@Z 0000000180053528     * CIL library *:* CIL module *
 0004:00000534       $pdata$??0?$CImg@E@cimg_library@@QEAA@AEBU01@_N@Z 0000000180053534     * CIL library *:* CIL module *
 0004:00000540       $pdata$?assign@?$CImg@E@cimg_library@@QEAAAEAU12@QEBEIIII@Z 0000000180053540     * CIL library *:* CIL module *
 0004:0000054c       $pdata$?assign@?$CImg@E@cimg_library@@QEAAAEAU12@QEBEIIII_N@Z 000000018005354c     * CIL library *:* CIL module *
 0004:00000558       $pdata$??$assign@M@?$CImg@E@cimg_library@@QEAAAEAU01@QEBMIIII@Z 0000000180053558     * CIL library *:* CIL module *
 0004:00000564       $pdata$??_GRotateWorker@@UEAAPEAXI@Z 0000000180053564     * CIL library *:* CIL module *
 0004:00000570       $pdata$?Execute@RotateWorker@@UEAAXXZ 0000000180053570     * CIL library *:* CIL module *
 0004:0000057c       $pdata$?fillC@?$CImg@E@cimg_library@@QEAAAEAU12@IIIHZZ 000000018005357c     * CIL library *:* CIL module *
 0004:00000588       $pdata$0$?fillC@?$CImg@E@cimg_library@@QEAAAEAU12@IIIHZZ 0000000180053588     * CIL library *:* CIL module *
 0004:00000594       $pdata$1$?fillC@?$CImg@E@cimg_library@@QEAAAEAU12@IIIHZZ 0000000180053594     * CIL library *:* CIL module *
 0004:000005a0       $pdata$?get_rotate@?$CImg@E@cimg_library@@QEBA?AU12@MII@Z 00000001800535a0     * CIL library *:* CIL module *
 0004:000005ac       $pdata$?_linear_atXY@?$CImg@E@cimg_library@@QEBAMMMHH@Z 00000001800535ac     * CIL library *:* CIL module *
 0004:000005b8       $pdata$??_GBlurWorker@@UEAAPEAXI@Z 00000001800535b8     * CIL library *:* CIL module *
 0004:000005c4       $pdata$?Execute@BlurWorker@@UEAAXXZ 00000001800535c4     * CIL library *:* CIL module *
 0004:000005d0       $pdata$?vanvliet@?$CImg@E@cimg_library@@QEAAAEAU12@MID_N@Z 00000001800535d0     * CIL library *:* CIL module *
 0004:000005dc       $pdata$3$?vanvliet@?$CImg@E@cimg_library@@QEAAAEAU12@MID_N@Z 00000001800535dc     * CIL library *:* CIL module *
 0004:000005e8       $pdata$4$?vanvliet@?$CImg@E@cimg_library@@QEAAAEAU12@MID_N@Z 00000001800535e8     * CIL library *:* CIL module *
 0004:000005f4       $pdata$5$?vanvliet@?$CImg@E@cimg_library@@QEAAAEAU12@MID_N@Z 00000001800535f4     * CIL library *:* CIL module *
 0004:00000600       $pdata$?_cimg_recursive_apply@?$CImg@E@cimg_library@@SAXPEAEQEBNHKI_N@Z 0000000180053600     * CIL library *:* CIL module *
 0004:0000060c       $pdata$??_GCropWorker@@UEAAPEAXI@Z 000000018005360c     * CIL library *:* CIL module *
 0004:00000618       $pdata$?Execute@CropWorker@@UEAAXXZ 0000000180053618     * CIL library *:* CIL module *
 0004:00000624       $pdata$?crop@?$CImg@E@cimg_library@@QEAAAEAU12@HHHHHHHH_N@Z 0000000180053624     * CIL library *:* CIL module *
 0004:00000630       $pdata$??_GMirrorWorker@@UEAAPEAXI@Z 0000000180053630     * CIL library *:* CIL module *
 0004:0000063c       $pdata$?Execute@MirrorWorker@@UEAAXXZ 000000018005363c     * CIL library *:* CIL module *
 0004:00000648       $pdata$?append@?$basic_string@DU?$char_traits@D@std@@V?$allocator@D@2@@std@@QEAAAEAV12@AEBV12@_K1@Z 0000000180053648     * CIL library *:* CIL module *
 0004:00000654       $pdata$0$?append@?$basic_string@DU?$char_traits@D@std@@V?$allocator@D@2@@std@@QEAAAEAV12@AEBV12@_K1@Z 0000000180053654     * CIL library *:* CIL module *
 0004:00000660       $pdata$1$?append@?$basic_string@DU?$char_traits@D@std@@V?$allocator@D@2@@std@@QEAAAEAV12@AEBV12@_K1@Z 0000000180053660     * CIL library *:* CIL module *
 0004:0000066c       $pdata$2$?append@?$basic_string@DU?$char_traits@D@std@@V?$allocator@D@2@@std@@QEAAAEAV12@AEBV12@_K1@Z 000000018005366c     * CIL library *:* CIL module *
 0004:00000678       $pdata$?append@?$basic_string@DU?$char_traits@D@std@@V?$allocator@D@2@@std@@QEAAAEAV12@PEBD_K@Z 0000000180053678     * CIL library *:* CIL module *
 0004:00000684       $pdata$0$?append@?$basic_string@DU?$char_traits@D@std@@V?$allocator@D@2@@std@@QEAAAEAV12@PEBD_K@Z 0000000180053684     * CIL library *:* CIL module *
 0004:00000690       $pdata$1$?append@?$basic_string@DU?$char_traits@D@std@@V?$allocator@D@2@@std@@QEAAAEAV12@PEBD_K@Z 0000000180053690     * CIL library *:* CIL module *
 0004:0000069c       $pdata$2$?append@?$basic_string@DU?$char_traits@D@std@@V?$allocator@D@2@@std@@QEAAAEAV12@PEBD_K@Z 000000018005369c     * CIL library *:* CIL module *
 0004:000006a8       $pdata$?mirror@?$CImg@E@cimg_library@@QEAAAEAU12@D@Z 00000001800536a8     * CIL library *:* CIL module *
 0004:000006b4       $pdata$4$?mirror@?$CImg@E@cimg_library@@QEAAAEAU12@D@Z 00000001800536b4     * CIL library *:* CIL module *
 0004:000006c0       $pdata$5$?mirror@?$CImg@E@cimg_library@@QEAAAEAU12@D@Z 00000001800536c0     * CIL library *:* CIL module *
 0004:000006cc       $pdata$6$?mirror@?$CImg@E@cimg_library@@QEAAAEAU12@D@Z 00000001800536cc     * CIL library *:* CIL module *
 0004:000006d8       $pdata$??_GPadWorker@@UEAAPEAXI@Z 00000001800536d8     * CIL library *:* CIL module *
 0004:000006e4       $pdata$?Execute@PadWorker@@UEAAXXZ 00000001800536e4     * CIL library *:* CIL module *
 0004:000006f0       $pdata$??_GSharpenWorker@@UEAAPEAXI@Z 00000001800536f0     * CIL library *:* CIL module *
 0004:000006fc       $pdata$?Execute@SharpenWorker@@UEAAXXZ 00000001800536fc     * CIL library *:* CIL module *
 0004:00000708       $pdata$?sharpen@?$CImg@E@cimg_library@@QEAAAEAU12@M_NMMM@Z 0000000180053708     * CIL library *:* CIL module *
 0004:00000714       $pdata$?max@?$CImg@M@cimg_library@@QEAAAEAMXZ 0000000180053714     * CIL library *:* CIL module *
 0004:00000720       $pdata$??$?YE@?$CImg@M@cimg_library@@QEAAAEAU01@AEBU?$CImg@E@1@@Z 0000000180053720     * CIL library *:* CIL module *
 0004:0000072c       $pdata$??_GHSLAWorker@@UEAAPEAXI@Z 000000018005372c     * CIL library *:* CIL module *
 0004:00000738       $pdata$?Execute@HSLAWorker@@UEAAXXZ 0000000180053738     * CIL library *:* CIL module *
 0004:00000744       $pdata$?rgb_to_hsl@@YAXEEEPEAM00@Z 0000000180053744     * CIL library *:* CIL module *
 0004:00000750       $pdata$?hsl_to_rgb@@YAXMMMPEAE00@Z 0000000180053750     * CIL library *:* CIL module *
 0004:0000075c       $pdata$??_GOpacifyWorker@@UEAAPEAXI@Z 000000018005375c     * CIL library *:* CIL module *
 0004:00000768       $pdata$?Execute@OpacifyWorker@@UEAAXXZ 0000000180053768     * CIL library *:* CIL module *
 0004:00000774       $pdata$?SaveToPersistent@AsyncWorker@Nan@@QEAAXPEBDAEBV?$Local@VValue@v8@@@v8@@@Z 0000000180053774     * CIL library *:* CIL module *
 0004:00000780       $pdata$??_GPasteWorker@@UEAAPEAXI@Z 0000000180053780     * CIL library *:* CIL module *
 0004:0000078c       $pdata$?Execute@PasteWorker@@UEAAXXZ 000000018005378c     * CIL library *:* CIL module *
 0004:00000798       $pdata$??_GSetPixelWorker@@UEAAPEAXI@Z 0000000180053798     * CIL library *:* CIL module *
 0004:000007a4       $pdata$?Execute@SetPixelWorker@@UEAAXXZ 00000001800537a4     * CIL library *:* CIL module *
 0004:000007b0       $pdata$load_exe_hook       00000001800537b0     * CIL library *:* CIL module *
 0004:000007c8       $pdata$??0bad_alloc@std@@QEAA@AEBV01@@Z 00000001800537c8     libcpmt:xthrow.obj
 0004:000007d4       $pdata$??0length_error@std@@QEAA@AEBV01@@Z 00000001800537d4     libcpmt:xthrow.obj
 0004:000007e0       $pdata$??0logic_error@std@@QEAA@AEBV01@@Z 00000001800537e0     libcpmt:xthrow.obj
 0004:000007ec       $pdata$??0out_of_range@std@@QEAA@AEBV01@@Z 00000001800537ec     libcpmt:xthrow.obj
 0004:000007f8       $pdata$??_Gbad_alloc@std@@UEAAPEAXI@Z 00000001800537f8     libcpmt:xthrow.obj
 0004:00000804       $pdata$??_Glength_error@std@@UEAAPEAXI@Z 0000000180053804     libcpmt:xthrow.obj
 0004:00000804       $pdata$??_Glogic_error@std@@UEAAPEAXI@Z 0000000180053804     libcpmt:xthrow.obj
 0004:00000804       $pdata$??_Gout_of_range@std@@UEAAPEAXI@Z 0000000180053804     libcpmt:xthrow.obj
 0004:00000810       $pdata$?_Xbad_alloc@std@@YAXXZ 0000000180053810     libcpmt:xthrow.obj
 0004:0000081c       $pdata$?_Xlength_error@std@@YAXPEBD@Z 000000018005381c     libcpmt:xthrow.obj
 0004:00000828       $pdata$?_Xout_of_range@std@@YAXPEBD@Z 0000000180053828     libcpmt:xthrow.obj
 0004:0000084c       $pdata$__onexitinit        000000018005384c     LIBCMT:onexit.obj
 0004:00000858       $pdata$_onexit             0000000180053858     LIBCMT:onexit.obj
 0004:00000864       $pdata$atexit              0000000180053864     LIBCMT:onexit.obj
 0004:00000870       $pdata$_purecall           0000000180053870     LIBCMT:purevirt.obj
 0004:0000087c       $pdata$??2@YAPEAX_K@Z      000000018005387c     LIBCMT:new.obj
 0004:00000888       $pdata$_vsnprintf_helper   0000000180053888     LIBCMT:vsnprnc.obj
 0004:00000894       $pdata$_vsnprintf_s        0000000180053894     LIBCMT:vsnprnc.obj
 0004:000008a0       $pdata$_vsnprintf_s_l      00000001800538a0     LIBCMT:vsnprnc.obj
 0004:000008ac       $pdata$__initstdio         00000001800538ac     LIBCMT:_file.obj
 0004:000008b8       $pdata$__endstdio          00000001800538b8     LIBCMT:_file.obj
 0004:000008c4       $pdata$_lock_file          00000001800538c4     LIBCMT:_file.obj
 0004:000008d0       $pdata$_lock_file2         00000001800538d0     LIBCMT:_file.obj
 0004:000008dc       $pdata$remove              00000001800538dc     LIBCMT:unlink.obj
 0004:000008e8       $pdata$_wassert            00000001800538e8     LIBCMT:wassert.obj
 0004:000008f4       $pdata$swprintf            00000001800538f4     LIBCMT:wassert.obj
 0004:0000090c       $pdata$_fsopen             000000018005390c     LIBCMT:fopen.obj
 0004:00000918       $pdata$fprintf             0000000180053918     LIBCMT:fprintf.obj
 0004:00000924       $pdata$rand                0000000180053924     LIBCMT:rand.obj
 0004:00000930       $pdata$srand               0000000180053930     LIBCMT:rand.obj
 0004:0000093c       $pdata$_vsnprintf          000000018005393c     LIBCMT:vsnprint.obj
 0004:00000948       $pdata$_vsnprintf_l        0000000180053948     LIBCMT:vsnprint.obj
 0004:00000954       $pdata$_getenv_helper_nolock 0000000180053954     LIBCMT:getenv.obj
 0004:00000960       $pdata$getenv              0000000180053960     LIBCMT:getenv.obj
 0004:0000096c       $pdata$??8type_info@@QEBA_NAEBV0@@Z 000000018005396c     LIBCMT:typinfo.obj
 0004:00000978       $pdata$??_Gtype_info@@UEAAPEAXI@Z 0000000180053978     LIBCMT:typinfo.obj
 0004:00000984       $pdata$_vscprintf_helper   0000000180053984     LIBCMT:vsprintf.obj
 0004:00000990       $pdata$_fclose_nolock      0000000180053990     LIBCMT:fclose.obj
 0004:0000099c       $pdata$fclose              000000018005399c     LIBCMT:fclose.obj
 0004:000009a8       $pdata$??0_LocaleUpdate@@QEAA@PEAUlocaleinfo_struct@@@Z 00000001800539a8     LIBCMT:stricmp.obj
 0004:000009b4       $pdata$_stricmp            00000001800539b4     LIBCMT:stricmp.obj
 0004:000009c0       $pdata$_stricmp_l          00000001800539c0     LIBCMT:stricmp.obj
 0004:000009cc       $pdata$_CRT_INIT           00000001800539cc     LIBCMT:dllcrt0.obj
 0004:000009d8       $pdata$_DllMainCRTStartup  00000001800539d8     LIBCMT:dllcrt0.obj
 0004:000009e4       $pdata$__DllMainCRTStartup 00000001800539e4     LIBCMT:dllcrt0.obj
 0004:000009fc       $pdata$_CxxThrowException  00000001800539fc     LIBCMT:throw.obj
 0004:00000a08       $pdata$?_GetEstablisherFrame@@YAPEA_KPEA_KPEAU_xDISPATCHER_CONTEXT@@PEBU_s_FuncInfo@@0@Z 0000000180053a08     LIBCMT:trnsctrl.obj
 0004:00000a14       $pdata$?_GetRangeOfTrysToCheck@@YAPEBU_s_TryBlockMapEntry@@PEA_KPEBU_s_FuncInfo@@HHPEAI2PEAU_xDISPATCHER_CONTEXT@@@Z 0000000180053a14     LIBCMT:trnsctrl.obj
 0004:00000a20       $pdata$?__FrameUnwindToEmptyState@@YAXPEA_KPEAU_xDISPATCHER_CONTEXT@@PEBU_s_FuncInfo@@@Z 0000000180053a20     LIBCMT:trnsctrl.obj
 0004:00000a2c       $pdata$?__SehTransFilter@@YAHPEAU_EXCEPTION_POINTERS@@PEAUEHExceptionRecord@@PEA_KPEAU_CONTEXT@@PEAU_xDISPATCHER_CONTEXT@@PEBU_s_FuncInfo@@PEAH@Z 0000000180053a2c     LIBCMT:trnsctrl.obj
 0004:00000a38       $pdata$_CallSETranslator   0000000180053a38     LIBCMT:trnsctrl.obj
 0004:00000a44       $pdata$_CreateFrameInfo    0000000180053a44     LIBCMT:trnsctrl.obj
 0004:00000a50       $pdata$_FindAndUnlinkFrame 0000000180053a50     LIBCMT:trnsctrl.obj
 0004:00000a5c       $pdata$_GetImageBase       0000000180053a5c     LIBCMT:trnsctrl.obj
 0004:00000a68       $pdata$_GetThrowImageBase  0000000180053a68     LIBCMT:trnsctrl.obj
 0004:00000a74       $pdata$_IsExceptionObjectToBeDestroyed 0000000180053a74     LIBCMT:trnsctrl.obj
 0004:00000a80       $pdata$_SetImageBase       0000000180053a80     LIBCMT:trnsctrl.obj
 0004:00000a8c       $pdata$_SetThrowImageBase  0000000180053a8c     LIBCMT:trnsctrl.obj
 0004:00000a98       $pdata$_UnwindNestedFrames 0000000180053a98     LIBCMT:trnsctrl.obj
 0004:00000aa4       $pdata$__CxxFrameHandler3  0000000180053aa4     LIBCMT:trnsctrl.obj
 0004:00000ab0       $pdata$??0exception@std@@QEAA@AEBQEBD@Z 0000000180053ab0     LIBCMT:stdexcpt.obj
 0004:00000abc       $pdata$??0exception@std@@QEAA@AEBV01@@Z 0000000180053abc     LIBCMT:stdexcpt.obj
 0004:00000ac8       $pdata$??4exception@std@@QEAAAEAV01@AEBV01@@Z 0000000180053ac8     LIBCMT:stdexcpt.obj
 0004:00000ad4       $pdata$??_Gexception@std@@UEAAPEAXI@Z 0000000180053ad4     LIBCMT:stdexcpt.obj
 0004:00000ae0       $pdata$?_Copy_str@exception@std@@AEAAXPEBD@Z 0000000180053ae0     LIBCMT:stdexcpt.obj
 0004:00000aec       $pdata$?_Tidy@exception@std@@AEAAXXZ 0000000180053aec     LIBCMT:stdexcpt.obj
 0004:00000af8       $pdata$__raise_securityfailure 0000000180053af8     LIBCMT:gs_report.obj
 0004:00000b04       $pdata$__report_gsfailure  0000000180053b04     LIBCMT:gs_report.obj
 0004:00000b10       $pdata$__isa_available_init 0000000180053b10     LIBCMT:cpu_disp.obj
 0004:00000b1c       $pdata$?_inconsistency@@YAXXZ 0000000180053b1c     LIBCMT:hooks.obj
 0004:00000b28       $pdata$?terminate@@YAXXZ   0000000180053b28     LIBCMT:hooks.obj
 0004:00000b34       $pdata$_initp_eh_hooks     0000000180053b34     LIBCMT:hooks.obj
 0004:00000b40       $pdata$__C_specific_handler 0000000180053b40     LIBCMT:chandler.obj
 0004:00000b4c       $pdata$__copy_path_to_wide_string 0000000180053b4c     LIBCMT:crt0dat.obj
 0004:00000b58       $pdata$__crtCorExitProcess 0000000180053b58     LIBCMT:crt0dat.obj
 0004:00000b64       $pdata$__crtExitProcess    0000000180053b64     LIBCMT:crt0dat.obj
 0004:00000b70       $pdata$__freeCrtMemory     0000000180053b70     LIBCMT:crt0dat.obj
 0004:00000b7c       $pdata$_amsg_exit          0000000180053b7c     LIBCMT:crt0dat.obj
 0004:00000b88       $pdata$_cinit              0000000180053b88     LIBCMT:crt0dat.obj
 0004:00000b94       $pdata$_init_pointers      0000000180053b94     LIBCMT:crt0dat.obj
 0004:00000ba0       $pdata$_initterm           0000000180053ba0     LIBCMT:crt0dat.obj
 0004:00000bac       $pdata$_initterm_e         0000000180053bac     LIBCMT:crt0dat.obj
 0004:00000bb8       $pdata$doexit              0000000180053bb8     LIBCMT:crt0dat.obj
 0004:00000bc4       $pdata$_msize              0000000180053bc4     LIBCMT:msize.obj
 0004:00000bd0       $pdata$_calloc_crt         0000000180053bd0     LIBCMT:crtheap.obj
 0004:00000bdc       $pdata$_malloc_crt         0000000180053bdc     LIBCMT:crtheap.obj
 0004:00000be8       $pdata$_realloc_crt        0000000180053be8     LIBCMT:crtheap.obj
 0004:00000bf4       $pdata$_recalloc_crt       0000000180053bf4     LIBCMT:crtheap.obj
 0004:00000c00       $pdata$abort               0000000180053c00     LIBCMT:abort.obj
 0004:00000c0c       $pdata$free                0000000180053c0c     LIBCMT:free.obj
 0004:00000c18       $pdata$_clrfp              0000000180053c18     LIBCMT:fpctrl.obj
 0004:00000c24       $pdata$_ctrlfp             0000000180053c24     LIBCMT:fpctrl.obj
 0004:00000c30       $pdata$_set_statfp         0000000180053c30     LIBCMT:fpctrl.obj
 0004:00000c3c       $pdata$_statfp             0000000180053c3c     LIBCMT:fpctrl.obj
 0004:00000c48       $pdata$_call_matherr       0000000180053c48     LIBCMT:libm_error.obj
 0004:00000c54       $pdata$_exception_enabled  0000000180053c54     LIBCMT:libm_error.obj
 0004:00000c60       $pdata$_handle_error       0000000180053c60     LIBCMT:libm_error.obj
 0004:00000c6c       $pdata$_handle_errorf      0000000180053c6c     LIBCMT:libm_error.obj
 0004:00000c78       $pdata$malloc              0000000180053c78     LIBCMT:malloc.obj
 0004:00000c84       $pdata$_callnewh           0000000180053c84     LIBCMT:handler.obj
 0004:00000c90       $pdata$_call_reportfault   0000000180053c90     LIBCMT:invarg.obj
 0004:00000c9c       $pdata$_invalid_parameter  0000000180053c9c     LIBCMT:invarg.obj
 0004:00000ca8       $pdata$_invalid_parameter_noinfo 0000000180053ca8     LIBCMT:invarg.obj
 0004:00000cb4       $pdata$_invoke_watson      0000000180053cb4     LIBCMT:invarg.obj
 0004:00000cc0       $pdata$_flsbuf             0000000180053cc0     LIBCMT:_flsbuf.obj
 0004:00000ccc       $pdata$_output_l           0000000180053ccc     LIBCMT:output.obj
 0004:00000cd8       $pdata$_output_s_l         0000000180053cd8     LIBCMT:outputs.obj
 0004:00000ce4       $pdata$write_char          0000000180053ce4     LIBCMT:outputs.obj
 0004:00000ce4       $pdata$write_char          0000000180053ce4     LIBCMT:outputs.obj
 0004:00000cf0       $pdata$write_multi_char    0000000180053cf0     LIBCMT:outputs.obj
 0004:00000cf0       $pdata$write_multi_char    0000000180053cf0     LIBCMT:outputs.obj
 0004:00000cfc       $pdata$write_string        0000000180053cfc     LIBCMT:outputs.obj
 0004:00000cfc       $pdata$write_string        0000000180053cfc     LIBCMT:outputs.obj
 0004:00000d08       $pdata$__doserrno          0000000180053d08     LIBCMT:dosmap.obj
 0004:00000d14       $pdata$_dosmaperr          0000000180053d14     LIBCMT:dosmap.obj
 0004:00000d20       $pdata$_errno              0000000180053d20     LIBCMT:dosmap.obj
 0004:00000d38       $pdata$_fcloseall          0000000180053d38     LIBCMT:closeall.obj
 0004:00000d44       $pdata$_fflush_nolock      0000000180053d44     LIBCMT:fflush.obj
 0004:00000d50       $pdata$_flush              0000000180053d50     LIBCMT:fflush.obj
 0004:00000d5c       $pdata$fflush              0000000180053d5c     LIBCMT:fflush.obj
 0004:00000d68       $pdata$flsall              0000000180053d68     LIBCMT:fflush.obj
 0004:00000d74       $pdata$_lock               0000000180053d74     LIBCMT:mlock.obj
 0004:00000d80       $pdata$_mtdeletelocks      0000000180053d80     LIBCMT:mlock.obj
 0004:00000d8c       $pdata$_mtinitlocknum      0000000180053d8c     LIBCMT:mlock.obj
 0004:00000d98       $pdata$_mtinitlocks        0000000180053d98     LIBCMT:mlock.obj
 0004:00000da4       $pdata$_wremove            0000000180053da4     LIBCMT:wunlink.obj
 0004:00000db0       $pdata$memcpy_s            0000000180053db0     LIBCMT:memcpy_s.obj
 0004:00000dbc       $pdata$wcscat_s            0000000180053dbc     LIBCMT:wcscat_s.obj
 0004:00000dc8       $pdata$wcscpy_s            0000000180053dc8     LIBCMT:wcscpy_s.obj
 0004:00000dd4       $pdata$wcsncat_s           0000000180053dd4     LIBCMT:wcsncat_s.obj
 0004:00000de0       $pdata$_set_error_mode     0000000180053de0     LIBCMT:errmode.obj
 0004:00000dec       $pdata$_itow_s             0000000180053dec     LIBCMT:xtows.obj
 0004:00000df8       $pdata$xtow_s              0000000180053df8     LIBCMT:xtows.obj
 0004:00000e04       $pdata$setvbuf             0000000180053e04     LIBCMT:setvbuf.obj
 0004:00000e10       $pdata$fwprintf            0000000180053e10     LIBCMT:fwprintf.obj
 0004:00000e1c       $pdata$_vswprintf_c_l      0000000180053e1c     LIBCMT:vswprnc.obj
 0004:00000e28       $pdata$_vswprintf_helper   0000000180053e28     LIBCMT:vswprnc.obj
 0004:00000e34       $pdata$raise               0000000180053e34     LIBCMT:winsig.obj
 0004:00000e40       $pdata$__crtMessageBoxW    0000000180053e40     LIBCMT:crtmboxw.obj
 0004:00000e4c       $pdata$__GSHandlerCheck    0000000180053e4c     LIBCMT:gshandler.obj
 0004:00000e58       $pdata$__GSHandlerCheckCommon 0000000180053e58     LIBCMT:gshandler.obj
 0004:00000e64       $pdata$_FF_MSGBANNER       0000000180053e64     LIBCMT:crt0msg.obj
 0004:00000e70       $pdata$_NMSG_WRITE         0000000180053e70     LIBCMT:crt0msg.obj
 0004:00000e7c       $pdata$_getstream          0000000180053e7c     LIBCMT:stream.obj
 0004:00000e88       $pdata$_openfile           0000000180053e88     LIBCMT:_open.obj
 0004:00000ec4       $pdata$_fileno             0000000180053ec4     LIBCMT:fileno.obj
 0004:00000ed0       $pdata$_ftbuf              0000000180053ed0     LIBCMT:_sftbuf.obj
 0004:00000edc       $pdata$_stbuf              0000000180053edc     LIBCMT:_sftbuf.obj
 0004:00000ee8       $pdata$_ioinit             0000000180053ee8     LIBCMT:ioinit.obj
 0004:00000ef4       $pdata$_ioterm             0000000180053ef4     LIBCMT:ioinit.obj
 0004:00000f00       $pdata$_freefls            0000000180053f00     LIBCMT:tidtable.obj
 0004:00000f0c       $pdata$_freeptd            0000000180053f0c     LIBCMT:tidtable.obj
 0004:00000f18       $pdata$_getptd             0000000180053f18     LIBCMT:tidtable.obj
 0004:00000f24       $pdata$_getptd_noexit      0000000180053f24     LIBCMT:tidtable.obj
 0004:00000f30       $pdata$_initptd            0000000180053f30     LIBCMT:tidtable.obj
 0004:00000f3c       $pdata$_mtinit             0000000180053f3c     LIBCMT:tidtable.obj
 0004:00000f48       $pdata$_mtterm             0000000180053f48     LIBCMT:tidtable.obj
 0004:00000f54       $pdata$strcpy_s            0000000180053f54     LIBCMT:strcpy_s.obj
 0004:00000f60       $pdata$__wtomb_environ     0000000180053f60     LIBCMT:wtombenv.obj
 0004:00000f6c       $pdata$_mbsnbicoll_l       0000000180053f6c     LIBCMT:mbsnbico.obj
 0004:00000f84       $pdata$?_Type_info_dtor@type_info@@CAXPEAV1@@Z 0000000180053f84     LIBCMT:typname.obj
 0004:00000f90       $pdata$_close              0000000180053f90     LIBCMT:close.obj
 0004:00000f9c       $pdata$_close_nolock       0000000180053f9c     LIBCMT:close.obj
 0004:00000fa8       $pdata$_freebuf            0000000180053fa8     LIBCMT:_freebuf.obj
 0004:00000fb4       $pdata$__freetlocinfo      0000000180053fb4     LIBCMT:localref.obj
 0004:00000fc0       $pdata$__updatetlocinfo    0000000180053fc0     LIBCMT:localref.obj
 0004:00000fcc       $pdata$_updatetlocinfoEx_nolock 0000000180053fcc     LIBCMT:localref.obj
 0004:00000fd8       $pdata$__initmbctable      0000000180053fd8     LIBCMT:mbctype.obj
 0004:00000fe4       $pdata$?getSystemCP@@YAHH@Z 0000000180053fe4     LIBCMT:mbctype.obj
 0004:00000ff0       $pdata$?setSBCS@@YAXPEAUthreadmbcinfostruct@@@Z 0000000180053ff0     LIBCMT:mbctype.obj
 0004:00000ffc       $pdata$?setSBUpLow@@YAXPEAUthreadmbcinfostruct@@@Z 0000000180053ffc     LIBCMT:mbctype.obj
 0004:00001008       $pdata$__updatetmbcinfo    0000000180054008     LIBCMT:mbctype.obj
 0004:00001014       $pdata$_setmbcp            0000000180054014     LIBCMT:mbctype.obj
 0004:00001020       $pdata$_setmbcp_nolock     0000000180054020     LIBCMT:mbctype.obj
 0004:0000102c       $pdata$_tolower_l          000000018005402c     LIBCMT:tolower.obj
 0004:00001038       $pdata$_locterm            0000000180054038     LIBCMT:wsetloca.obj
 0004:00001044       $pdata$_XcptFilter         0000000180054044     LIBCMT:winxfltr.obj
 0004:00001050       $pdata$_heap_init          0000000180054050     LIBCMT:heapinit.obj
 0004:0000105c       $pdata$_setargv            000000018005405c     LIBCMT:stdargv.obj
 0004:00001068       $pdata$parse_cmdline       0000000180054068     LIBCMT:stdargv.obj
 0004:00001074       $pdata$_setenvp            0000000180054074     LIBCMT:stdenvp.obj
 0004:00001080       $pdata$__security_init_cookie 0000000180054080     LIBCMT:gs_support.obj
 0004:0000108c       $pdata$__crtGetEnvironmentStringsA 000000018005408c     LIBCMT:a_env.obj
 0004:00001098       $pdata$__crtCaptureCurrentContext 0000000180054098     LIBCMT:winapisupp.obj
 0004:000010a4       $pdata$__crtCapturePreviousContext 00000001800540a4     LIBCMT:winapisupp.obj
 0004:000010b0       $pdata$__crtInitializeCriticalSectionEx 00000001800540b0     LIBCMT:winapisupp.obj
 0004:000010bc       $pdata$__crtIsPackagedApp  00000001800540bc     LIBCMT:winapisupp.obj
 0004:000010c8       $pdata$__crtLoadWinApiPointers 00000001800540c8     LIBCMT:winapisupp.obj
 0004:000010d4       $pdata$__crtTerminateProcess 00000001800540d4     LIBCMT:winapisupp.obj
 0004:000010e0       $pdata$__crtUnhandledException 00000001800540e0     LIBCMT:winapisupp.obj
 0004:000010ec       $pdata$_RTC_Initialize     00000001800540ec     LIBCMT:initsect.obj
 0004:000010f8       $pdata$_RTC_Terminate      00000001800540f8     LIBCMT:initsect.obj
 0004:00001104       $pdata$__DestructExceptionObject 0000000180054104     LIBCMT:frame.obj
 0004:00001110       $pdata$??0bad_exception@std@@QEAA@AEBV01@@Z 0000000180054110     LIBCMT:frame.obj
 0004:0000111c       $pdata$??_Gbad_exception@std@@UEAAPEAXI@Z 000000018005411c     LIBCMT:frame.obj
 0004:00001128       $pdata$?CatchIt@@YAXPEAUEHExceptionRecord@@PEA_KPEAU_CONTEXT@@PEAU_xDISPATCHER_CONTEXT@@PEBU_s_FuncInfo@@PEBU_s_HandlerType@@PEBU_s_CatchableType@@PEBU_s_TryBlockMapEntry@@H1EE@Z 0000000180054128     LIBCMT:frame.obj
 0004:00001134       $pdata$?FindHandler@@YAXPEAUEHExceptionRecord@@PEA_KPEAU_CONTEXT@@PEAU_xDISPATCHER_CONTEXT@@PEBU_s_FuncInfo@@EH1@Z 0000000180054134     LIBCMT:frame.obj
 0004:00001140       $pdata$?FindHandlerForForeignException@@YAXPEAUEHExceptionRecord@@PEA_KPEAU_CONTEXT@@PEAU_xDISPATCHER_CONTEXT@@PEBU_s_FuncInfo@@HH1@Z 0000000180054140     LIBCMT:frame.obj
 0004:0000114c       $pdata$?IsInExceptionSpec@@YAEPEAUEHExceptionRecord@@PEBU_s_ESTypeList@@@Z 000000018005414c     LIBCMT:frame.obj
 0004:00001158       $pdata$__BuildCatchObject  0000000180054158     LIBCMT:frame.obj
 0004:00001164       $pdata$__BuildCatchObjectHelper 0000000180054164     LIBCMT:frame.obj
 0004:00001170       $pdata$__CxxCallCatchBlock 0000000180054170     LIBCMT:frame.obj
 0004:0000117c       $pdata$__FrameUnwindFilter 000000018005417c     LIBCMT:frame.obj
 0004:00001188       $pdata$__FrameUnwindToState 0000000180054188     LIBCMT:frame.obj
 0004:00001194       $pdata$__InternalCxxFrameHandler 0000000180054194     LIBCMT:frame.obj
 0004:000011a0       $pdata$__TypeMatch         00000001800541a0     LIBCMT:frame.obj
 0004:000011ac       $pdata$?__GetCurrentState@@YAHPEA_KPEAU_xDISPATCHER_CONTEXT@@PEBU_s_FuncInfo@@@Z 00000001800541ac     LIBCMT:ehstate.obj
 0004:000011b8       $pdata$?__GetUnwindTryBlock@@YAHPEA_KPEAU_xDISPATCHER_CONTEXT@@PEBU_s_FuncInfo@@@Z 00000001800541b8     LIBCMT:ehstate.obj
 0004:000011c4       $pdata$?__SetUnwindTryBlock@@YAXPEA_KPEAU_xDISPATCHER_CONTEXT@@PEBU_s_FuncInfo@@H@Z 00000001800541c4     LIBCMT:ehstate.obj
 0004:000011d0       $pdata$?__StateFromIp@@YAHPEBU_s_FuncInfo@@PEAU_xDISPATCHER_CONTEXT@@_J@Z 00000001800541d0     LIBCMT:ehstate.obj
 0004:000011dc       $pdata$_cfltcvt            00000001800541dc     LIBCMT:cvt.obj
 0004:000011e8       $pdata$_cfltcvt_l          00000001800541e8     LIBCMT:cvt.obj
 0004:000011f4       $pdata$_cftoa_l            00000001800541f4     LIBCMT:cvt.obj
 0004:00001200       $pdata$_cftoe2_l           0000000180054200     LIBCMT:cvt.obj
 0004:0000120c       $pdata$_cftoe_l            000000018005420c     LIBCMT:cvt.obj
 0004:00001218       $pdata$_cftof2_l           0000000180054218     LIBCMT:cvt.obj
 0004:00001224       $pdata$_cftof_l            0000000180054224     LIBCMT:cvt.obj
 0004:00001230       $pdata$_cftog_l            0000000180054230     LIBCMT:cvt.obj
 0004:0000123c       $pdata$_cropzeros_l        000000018005423c     LIBCMT:cvt.obj
 0004:00001248       $pdata$_fassign_l          0000000180054248     LIBCMT:cvt.obj
 0004:00001254       $pdata$_forcdecpt_l        0000000180054254     LIBCMT:cvt.obj
 0004:00001260       $pdata$_initp_misc_cfltcvt_tab 0000000180054260     LIBCMT:cmiscdat.obj
 0004:0000126c       $pdata$_IsNonwritableInCurrentImage 000000018005426c     LIBCMT:pesect.obj
 0004:00001278       $pdata$realloc             0000000180054278     LIBCMT:realloc.obj
 0004:00001284       $pdata$_recalloc           0000000180054284     LIBCMT:recalloc.obj
 0004:00001290       $pdata$_calloc_impl        0000000180054290     LIBCMT:calloc_impl.obj
 0004:0000129c       $pdata$GetTableIndexFromLocaleName 000000018005429c     LIBCMT:winapinls.obj
 0004:000012a8       $pdata$__crtCompareStringEx 00000001800542a8     LIBCMT:winapinls.obj
 0004:000012b4       $pdata$__crtDownlevelLocaleNameToLCID 00000001800542b4     LIBCMT:winapinls.obj
 0004:000012c0       $pdata$__crtLCMapStringEx  00000001800542c0     LIBCMT:winapinls.obj
 0004:000012d8       $pdata$_raise_exc          00000001800542d8     LIBCMT:fpexcept.obj
 0004:000012e4       $pdata$_raise_exc_ex       00000001800542e4     LIBCMT:fpexcept.obj
 0004:000012f0       $pdata$_raise_excf         00000001800542f0     LIBCMT:fpexcept.obj
 0004:000012fc       $pdata$_set_errno_from_matherr 00000001800542fc     LIBCMT:fpexcept.obj
 0004:00001308       $pdata$_isatty             0000000180054308     LIBCMT:isatty.obj
 0004:00001314       $pdata$_write              0000000180054314     LIBCMT:write.obj
 0004:00001320       $pdata$_write_nolock       0000000180054320     LIBCMT:write.obj
 0004:0000132c       $pdata$_lseeki64           000000018005432c     LIBCMT:lseeki64.obj
 0004:00001338       $pdata$_lseeki64_nolock    0000000180054338     LIBCMT:lseeki64.obj
 0004:00001344       $pdata$_getbuf             0000000180054344     LIBCMT:_getbuf.obj
 0004:00001350       $pdata$_isleadbyte_l       0000000180054350     LIBCMT:_wctype.obj
 0004:0000135c       $pdata$isleadbyte          000000018005435c     LIBCMT:_wctype.obj
 0004:00001368       $pdata$_wctomb_s_l         0000000180054368     LIBCMT:wctomb.obj
 0004:00001374       $pdata$wctomb_s            0000000180054374     LIBCMT:wctomb.obj
 0004:00001380       $pdata$_commit             0000000180054380     LIBCMT:commit.obj
 0004:0000138c       $pdata$_woutput_l          000000018005438c     LIBCMT:woutput.obj
 0004:00001398       $pdata$write_char          0000000180054398     LIBCMT:woutput.obj
 0004:000013a4       $pdata$write_multi_char    00000001800543a4     LIBCMT:woutput.obj
 0004:000013b0       $pdata$write_string        00000001800543b0     LIBCMT:woutput.obj
 0004:000013bc       $pdata$wcsncpy_s           00000001800543bc     LIBCMT:wcsncpy_s.obj
 0004:000013c8       $pdata$_sopen_helper       00000001800543c8     LIBCMT:open.obj
 0004:000013d4       $pdata$_sopen_nolock       00000001800543d4     LIBCMT:open.obj
 0004:000013e0       $pdata$_sopen_s            00000001800543e0     LIBCMT:open.obj
 0004:000013ec       $pdata$_mbsnbcmp_l         00000001800543ec     LIBCMT:mbsnbcmp.obj
 0004:000013f8       $pdata$_mbsnbicmp_l        00000001800543f8     LIBCMT:mbsnbicm.obj
 0004:00001404       $pdata$__crtsetenv         0000000180054404     LIBCMT:setenv.obj
 0004:00001410       $pdata$_strnicoll_l        0000000180054410     LIBCMT:strnicol.obj
 0004:0000141c       $pdata$?__crtCompareStringA_stat@@YAHPEAUlocaleinfo_struct@@PEB_WKPEBDH2HH@Z 000000018005441c     LIBCMT:a_cmp.obj
 0004:00001428       $pdata$__crtCompareStringA 0000000180054428     LIBCMT:a_cmp.obj
 0004:00001434       $pdata$__lock_fhandle      0000000180054434     LIBCMT:osfinfo.obj
 0004:00001440       $pdata$_alloc_osfhnd       0000000180054440     LIBCMT:osfinfo.obj
 0004:0000144c       $pdata$_free_osfhnd        000000018005444c     LIBCMT:osfinfo.obj
 0004:00001458       $pdata$_get_osfhandle      0000000180054458     LIBCMT:osfinfo.obj
 0004:00001464       $pdata$_set_osfhnd         0000000180054464     LIBCMT:osfinfo.obj
 0004:00001470       $pdata$__free_lconv_mon    0000000180054470     LIBCMT:initmon.obj
 0004:0000147c       $pdata$__free_lconv_num    000000018005447c     LIBCMT:initnum.obj
 0004:00001488       $pdata$__free_lc_time      0000000180054488     LIBCMT:inittime.obj
 0004:00001494       $pdata$?__crtLCMapStringA_stat@@YAHPEAUlocaleinfo_struct@@PEB_WKPEBDHPEADHHH@Z 0000000180054494     LIBCMT:a_map.obj
 0004:000014a0       $pdata$__crtLCMapStringA   00000001800544a0     LIBCMT:a_map.obj
 0004:000014ac       $pdata$?__crtGetStringTypeA_stat@@YAHPEAUlocaleinfo_struct@@KPEBDHPEAGHH@Z 00000001800544ac     LIBCMT:a_str.obj
 0004:000014b8       $pdata$__crtGetStringTypeA 00000001800544b8     LIBCMT:a_str.obj
 0004:000014c4       $pdata$_isctype_l          00000001800544c4     LIBCMT:isctype.obj
 0004:000014dc       $pdata$?x_ismbbtype_l@@YAHPEAUlocaleinfo_struct@@IHH@Z 00000001800544dc     LIBCMT:ismbbyte.obj
 0004:000014f4       $pdata$isdigit             00000001800544f4     LIBCMT:_ctype.obj
 0004:00001500       $pdata$strrchr             0000000180054500     LIBCMT:strrchr.obj
 0004:0000150c       $pdata$_fptostr            000000018005450c     LIBCMT:_fptostr.obj
 0004:00001518       $pdata$__crt_atoflt_l      0000000180054518     LIBCMT:atodbl.obj
 0004:00001524       $pdata$_atodbl_l           0000000180054524     LIBCMT:atodbl.obj
 0004:00001530       $pdata$__dtold             0000000180054530     LIBCMT:cfout.obj
 0004:0000153c       $pdata$_fltout2            000000018005453c     LIBCMT:cfout.obj
 0004:00001554       $pdata$_mbtowc_l           0000000180054554     LIBCMT:mbtowc.obj
 0004:00001560       $pdata$_putwch_nolock      0000000180054560     LIBCMT:putwch.obj
 0004:0000156c       $pdata$_fputwc_nolock      000000018005456c     LIBCMT:fputwc.obj
 0004:00001578       $pdata$__createFile        0000000180054578     LIBCMT:wopen.obj
 0004:00001584       $pdata$_wsopen_nolock      0000000180054584     LIBCMT:wopen.obj
 0004:0000159c       $pdata$_strnicmp           000000018005459c     LIBCMT:strnicmp.obj
 0004:000015a8       $pdata$_strnicmp_l         00000001800545a8     LIBCMT:strnicmp.obj
 0004:000015b4       $pdata$_strdup             00000001800545b4     LIBCMT:strdup.obj
 0004:000015c0       $pdata$_mbschr_l           00000001800545c0     LIBCMT:mbschr.obj
 0004:000015cc       $pdata$_ld12tod            00000001800545cc     LIBCMT:intrncvt.obj
 0004:000015d8       $pdata$_ld12tof            00000001800545d8     LIBCMT:intrncvt.obj
 0004:000015e4       $pdata$__strgtold12_l      00000001800545e4     LIBCMT:strgtold.obj
 0004:000015f0       $pdata$$I10_OUTPUT         00000001800545f0     LIBCMT:x10fout.obj
 0004:000015fc       $pdata$__termconout        00000001800545fc     LIBCMT:initcon.obj
 0004:00001608       $pdata$__initconout        0000000180054608     LIBCMT:initcon.obj
 0004:00001614       $pdata$_flswbuf            0000000180054614     LIBCMT:_flswbuf.obj
 0004:00001620       $pdata$_chsize_nolock      0000000180054620     LIBCMT:chsize.obj
 0004:0000162c       $pdata$_read_nolock        000000018005462c     LIBCMT:read.obj
 0004:00001638       $pdata$_get_fmode          0000000180054638     LIBCMT:setmode.obj
 0004:00001644       $pdata$_setmode_nolock     0000000180054644     LIBCMT:setmode.obj
 0004:00001650       $pdata$strchr              0000000180054650     LIBCMT:strchr.obj
 0004:0000165c       $pdata$__mtold12           000000018005465c     LIBCMT:mantold.obj
 0004:00001668       $pdata$__delayLoadHelper2  0000000180054668     DelayImp:delayhlp.obj
 0004:00001674       $pdata$__GSHandlerCheck_EH 0000000180054674     LIBCMT:gshandlereh.obj
 0004:000016a4       $pdata$floor               00000001800546a4     LIBCMT:floor.obj
 0004:000016d4       $pdata$__fma3_lib_init     00000001800546d4     LIBCMT:fma3_available.obj
 0004:00001710       $pdata$_sincos_special     0000000180054710     LIBCMT:sincos_special.obj
 0004:0000171c       $pdata$_sincosf_special    000000018005471c     LIBCMT:sincos_special.obj
 0004:00001734       $pdata$_expf_special       0000000180054734     LIBCMT:exp_special.obj
 0004:00001740       $pdata$_powf_special       0000000180054740     LIBCMT:pow_special.obj
 0004:00001758       $pdata$?dtor$0@?0??strbuffersize@cimg@cimg_library@@YAPEBDK@Z@4HA 0000000180054758     * CIL library *:* CIL module *
 0004:00001764       $pdata$?catch$0@?0???0?$CImg@D@cimg_library@@QEAA@IIII@Z@4HA 0000000180054764     * CIL library *:* CIL module *
 0004:00001770       $pdata$?catch$0@?0??assign@?$CImg@D@cimg_library@@QEAAAEAU12@IIII@Z@4HA 0000000180054770     * CIL library *:* CIL module *
 0004:0000177c       $pdata$?catch$0@?0???0?$CImg@E@cimg_library@@QEAA@QEBEIIII_N@Z@4HA 000000018005477c     * CIL library *:* CIL module *
 0004:00001788       $pdata$?catch$0@?0???0?$CImg@E@cimg_library@@QEAA@IIII@Z@4HA 0000000180054788     * CIL library *:* CIL module *
 0004:00001794       $pdata$?catch$0@?0???0?$CImg@E@cimg_library@@QEAA@AEBU01@@Z@4HA 0000000180054794     * CIL library *:* CIL module *
 0004:000017a0       $pdata$?catch$0@?0??Execute@ResizeWorker@@UEAAXXZ@4HA 00000001800547a0     * CIL library *:* CIL module *
 0004:000017ac       $pdata$?catch$0@?0???0?$CImg@K@cimg_library@@QEAA@IIII@Z@4HA 00000001800547ac     * CIL library *:* CIL module *
 0004:000017b8       $pdata$?dtor$0@?0??get_resize@?$CImg@E@cimg_library@@QEBA?AU12@HHHHHIMMMM@Z@4HA 00000001800547b8     * CIL library *:* CIL module *
 0004:000017c4       $pdata$?dtor$33@?0??get_resize@?$CImg@E@cimg_library@@QEBA?AU12@HHHHHIMMMM@Z@4HA 00000001800547c4     * CIL library *:* CIL module *
 0004:000017d0       $pdata$?dtor$34@?0??get_resize@?$CImg@E@cimg_library@@QEBA?AU12@HHHHHIMMMM@Z@4HA 00000001800547d0     * CIL library *:* CIL module *
 0004:000017dc       $pdata$?dtor$35@?0??get_resize@?$CImg@E@cimg_library@@QEBA?AU12@HHHHHIMMMM@Z@4HA 00000001800547dc     * CIL library *:* CIL module *
 0004:000017e8       $pdata$?dtor$36@?0??get_resize@?$CImg@E@cimg_library@@QEBA?AU12@HHHHHIMMMM@Z@4HA 00000001800547e8     * CIL library *:* CIL module *
 0004:000017f4       $pdata$?dtor$37@?0??get_resize@?$CImg@E@cimg_library@@QEBA?AU12@HHHHHIMMMM@Z@4HA 00000001800547f4     * CIL library *:* CIL module *
 0004:00001800       $pdata$?dtor$38@?0??get_resize@?$CImg@E@cimg_library@@QEBA?AU12@HHHHHIMMMM@Z@4HA 0000000180054800     * CIL library *:* CIL module *
 0004:0000180c       $pdata$?dtor$39@?0??get_resize@?$CImg@E@cimg_library@@QEBA?AU12@HHHHHIMMMM@Z@4HA 000000018005480c     * CIL library *:* CIL module *
 0004:00001818       $pdata$?dtor$40@?0??get_resize@?$CImg@E@cimg_library@@QEBA?AU12@HHHHHIMMMM@Z@4HA 0000000180054818     * CIL library *:* CIL module *
 0004:00001824       $pdata$?dtor$49@?0??get_resize@?$CImg@E@cimg_library@@QEBA?AU12@HHHHHIMMMM@Z@4HA 0000000180054824     * CIL library *:* CIL module *
 0004:00001830       $pdata$?dtor$50@?0??get_resize@?$CImg@E@cimg_library@@QEBA?AU12@HHHHHIMMMM@Z@4HA 0000000180054830     * CIL library *:* CIL module *
 0004:0000183c       $pdata$?dtor$51@?0??get_resize@?$CImg@E@cimg_library@@QEBA?AU12@HHHHHIMMMM@Z@4HA 000000018005483c     * CIL library *:* CIL module *
 0004:00001848       $pdata$?dtor$52@?0??get_resize@?$CImg@E@cimg_library@@QEBA?AU12@HHHHHIMMMM@Z@4HA 0000000180054848     * CIL library *:* CIL module *
 0004:00001854       $pdata$?dtor$53@?0??get_resize@?$CImg@E@cimg_library@@QEBA?AU12@HHHHHIMMMM@Z@4HA 0000000180054854     * CIL library *:* CIL module *
 0004:00001860       $pdata$?dtor$54@?0??get_resize@?$CImg@E@cimg_library@@QEBA?AU12@HHHHHIMMMM@Z@4HA 0000000180054860     * CIL library *:* CIL module *
 0004:0000186c       $pdata$?dtor$55@?0??get_resize@?$CImg@E@cimg_library@@QEBA?AU12@HHHHHIMMMM@Z@4HA 000000018005486c     * CIL library *:* CIL module *
 0004:00001878       $pdata$?dtor$56@?0??get_resize@?$CImg@E@cimg_library@@QEBA?AU12@HHHHHIMMMM@Z@4HA 0000000180054878     * CIL library *:* CIL module *
 0004:00001884       $pdata$?dtor$71@?0??get_resize@?$CImg@E@cimg_library@@QEBA?AU12@HHHHHIMMMM@Z@4HA 0000000180054884     * CIL library *:* CIL module *
 0004:00001890       $pdata$?dtor$72@?0??get_resize@?$CImg@E@cimg_library@@QEBA?AU12@HHHHHIMMMM@Z@4HA 0000000180054890     * CIL library *:* CIL module *
 0004:0000189c       $pdata$?dtor$73@?0??get_resize@?$CImg@E@cimg_library@@QEBA?AU12@HHHHHIMMMM@Z@4HA 000000018005489c     * CIL library *:* CIL module *
 0004:000018a8       $pdata$?dtor$74@?0??get_resize@?$CImg@E@cimg_library@@QEBA?AU12@HHHHHIMMMM@Z@4HA 00000001800548a8     * CIL library *:* CIL module *
 0004:000018b4       $pdata$?dtor$75@?0??get_resize@?$CImg@E@cimg_library@@QEBA?AU12@HHHHHIMMMM@Z@4HA 00000001800548b4     * CIL library *:* CIL module *
 0004:000018c0       $pdata$?dtor$76@?0??get_resize@?$CImg@E@cimg_library@@QEBA?AU12@HHHHHIMMMM@Z@4HA 00000001800548c0     * CIL library *:* CIL module *
 0004:000018cc       $pdata$?dtor$77@?0??get_resize@?$CImg@E@cimg_library@@QEBA?AU12@HHHHHIMMMM@Z@4HA 00000001800548cc     * CIL library *:* CIL module *
 0004:000018d8       $pdata$?dtor$78@?0??get_resize@?$CImg@E@cimg_library@@QEBA?AU12@HHHHHIMMMM@Z@4HA 00000001800548d8     * CIL library *:* CIL module *
 0004:000018e4       $pdata$?dtor$93@?0??get_resize@?$CImg@E@cimg_library@@QEBA?AU12@HHHHHIMMMM@Z@4HA 00000001800548e4     * CIL library *:* CIL module *
 0004:000018f0       $pdata$?dtor$94@?0??get_resize@?$CImg@E@cimg_library@@QEBA?AU12@HHHHHIMMMM@Z@4HA 00000001800548f0     * CIL library *:* CIL module *
 0004:000018fc       $pdata$?dtor$95@?0??get_resize@?$CImg@E@cimg_library@@QEBA?AU12@HHHHHIMMMM@Z@4HA 00000001800548fc     * CIL library *:* CIL module *
 0004:00001908       $pdata$?dtor$96@?0??get_resize@?$CImg@E@cimg_library@@QEBA?AU12@HHHHHIMMMM@Z@4HA 0000000180054908     * CIL library *:* CIL module *
 0004:00001914       $pdata$?dtor$97@?0??get_resize@?$CImg@E@cimg_library@@QEBA?AU12@HHHHHIMMMM@Z@4HA 0000000180054914     * CIL library *:* CIL module *
 0004:00001920       $pdata$?dtor$98@?0??get_resize@?$CImg@E@cimg_library@@QEBA?AU12@HHHHHIMMMM@Z@4HA 0000000180054920     * CIL library *:* CIL module *
 0004:0000192c       $pdata$?dtor$99@?0??get_resize@?$CImg@E@cimg_library@@QEBA?AU12@HHHHHIMMMM@Z@4HA 000000018005492c     * CIL library *:* CIL module *
 0004:00001938       $pdata$?dtor$100@?0??get_resize@?$CImg@E@cimg_library@@QEBA?AU12@HHHHHIMMMM@Z@4HA 0000000180054938     * CIL library *:* CIL module *
 0004:00001944       $pdata$?catch$0@?0???0?$CImg@M@cimg_library@@QEAA@IIII@Z@4HA 0000000180054944     * CIL library *:* CIL module *
 0004:00001950       $pdata$?catch$0@?0???0?$CImg@M@cimg_library@@QEAA@IIIIAEBM@Z@4HA 0000000180054950     * CIL library *:* CIL module *
 0004:0000195c       $pdata$?catch$0@?0???0?$CImg@E@cimg_library@@QEAA@IIIIAEBE@Z@4HA 000000018005495c     * CIL library *:* CIL module *
 0004:00001968       $pdata$?catch$0@?0??assign@?$CImg@E@cimg_library@@QEAAAEAU12@IIII@Z@4HA 0000000180054968     * CIL library *:* CIL module *
 0004:00001974       $pdata$?dtor$1@?0??get_crop@?$CImg@E@cimg_library@@QEBA?AU12@HHHHHHHH_N@Z@4HA 0000000180054974     * CIL library *:* CIL module *
 0004:00001980       $pdata$?catch$0@?0???0?$CImg@I@cimg_library@@QEAA@IIII@Z@4HA 0000000180054980     * CIL library *:* CIL module *
 0004:0000198c       $pdata$?catch$0@?0???0?$CImg@E@cimg_library@@QEAA@AEBU01@_N@Z@4HA 000000018005498c     * CIL library *:* CIL module *
 0004:00001998       $pdata$?catch$0@?0??assign@?$CImg@E@cimg_library@@QEAAAEAU12@QEBEIIII@Z@4HA 0000000180054998     * CIL library *:* CIL module *
 0004:000019a4       $pdata$?catch$1@?0??Execute@RotateWorker@@UEAAXXZ@4HA 00000001800549a4     * CIL library *:* CIL module *
 0004:000019b0       $pdata$?catch$0@?0??Execute@RotateWorker@@UEAAXXZ@4HA 00000001800549b0     * CIL library *:* CIL module *
 0004:000019bc       $pdata$?dtor$0@?0??get_rotate@?$CImg@E@cimg_library@@QEBA?AU12@MII@Z@4HA 00000001800549bc     * CIL library *:* CIL module *
 0004:000019c8       $pdata$?catch$0@?0??Execute@CropWorker@@UEAAXXZ@4HA 00000001800549c8     * CIL library *:* CIL module *
 0004:000019d4       $pdata$?catch$0@?0??Execute@MirrorWorker@@UEAAXXZ@4HA 00000001800549d4     * CIL library *:* CIL module *
 0004:000019e0       $pdata$?catch$0@?0??Execute@PadWorker@@UEAAXXZ@4HA 00000001800549e0     * CIL library *:* CIL module *
 0004:000019ec       $pdata$?catch$0@?0??Execute@SharpenWorker@@UEAAXXZ@4HA 00000001800549ec     * CIL library *:* CIL module *
 0004:000019f8       $pdata$?catch$0@?0??Execute@PasteWorker@@UEAAXXZ@4HA 00000001800549f8     * CIL library *:* CIL module *
 0004:00001a04       $pdata$_onexit$fin$0       0000000180054a04     LIBCMT:onexit.obj
 0004:00001a10       $pdata$_fsopen$fin$0       0000000180054a10     LIBCMT:fopen.obj
 0004:00001a10       $pdata$fwprintf$fin$0      0000000180054a10     LIBCMT:fopen.obj
 0004:00001a1c       $pdata$fprintf$fin$0       0000000180054a1c     LIBCMT:fprintf.obj
 0004:00001a28       $pdata$getenv$fin$0        0000000180054a28     LIBCMT:getenv.obj
 0004:00001a34       $pdata$fflush$fin$0        0000000180054a34     LIBCMT:fclose.obj
 0004:00001a34       $pdata$fclose$fin$0        0000000180054a34     LIBCMT:fclose.obj
 0004:00001a40       $pdata$_CRT_INIT$fin$0     0000000180054a40     LIBCMT:dllcrt0.obj
 0004:00001a4c       $pdata$__DllMainCRTStartup$filt$0 0000000180054a4c     LIBCMT:dllcrt0.obj
 0004:00001a58       $pdata$_CallSETranslator$filt$0 0000000180054a58     LIBCMT:trnsctrl.obj
 0004:00001a64       $pdata$doexit$fin$0        0000000180054a64     LIBCMT:crt0dat.obj
 0004:00001a70       $pdata$_ctrlfp$filt$0      0000000180054a70     LIBCMT:fpctrl.obj
 0004:00001a7c       $pdata$flsall$fin$0        0000000180054a7c     LIBCMT:fflush.obj
 0004:00001a88       $pdata$flsall$fin$1        0000000180054a88     LIBCMT:fflush.obj
 0004:00001a94       $pdata$_mtinitlocknum$fin$0 0000000180054a94     LIBCMT:mlock.obj
 0004:00001aa0       $pdata$setvbuf$fin$0       0000000180054aa0     LIBCMT:setvbuf.obj
 0004:00001aac       $pdata$raise$fin$0         0000000180054aac     LIBCMT:winsig.obj
 0004:00001ab8       $pdata$_getstream$fin$0    0000000180054ab8     LIBCMT:stream.obj
 0004:00001ab8       $pdata$_fcloseall$fin$0    0000000180054ab8     LIBCMT:stream.obj
 0004:00001ac4       $pdata$_ioinit$fin$0       0000000180054ac4     LIBCMT:ioinit.obj
 0004:00001ad0       $pdata$_initptd$fin$1      0000000180054ad0     LIBCMT:tidtable.obj
 0004:00001ad0       $pdata$_freefls$fin$1      0000000180054ad0     LIBCMT:tidtable.obj
 0004:00001adc       $pdata$_freefls$fin$0      0000000180054adc     LIBCMT:tidtable.obj
 0004:00001adc       $pdata$_initptd$fin$0      0000000180054adc     LIBCMT:tidtable.obj
 0004:00001ae8       $pdata$?fin$0@?0??_Type_info_dtor@type_info@@CAXPEAV1@@Z@4HA 0000000180054ae8     LIBCMT:typname.obj
 0004:00001af4       $pdata$_setmbcp$fin$0      0000000180054af4     LIBCMT:mbctype.obj
 0004:00001af4       $pdata$__updatetmbcinfo$fin$0 0000000180054af4     LIBCMT:mbctype.obj
 0004:00001b00       $pdata$_locterm$fin$0      0000000180054b00     LIBCMT:wsetloca.obj
 0004:00001b00       $pdata$__updatetlocinfo$fin$0 0000000180054b00     LIBCMT:wsetloca.obj
 0004:00001b0c       $pdata$__CxxCallCatchBlock$filt$0 0000000180054b0c     LIBCMT:frame.obj
 0004:00001b18       $pdata$__CxxCallCatchBlock$fin$1 0000000180054b18     LIBCMT:frame.obj
 0004:00001b24       $pdata$__DestructExceptionObject$filt$0 0000000180054b24     LIBCMT:frame.obj
 0004:00001b30       $pdata$__FrameUnwindToState$filt$0 0000000180054b30     LIBCMT:frame.obj
 0004:00001b3c       $pdata$__FrameUnwindToState$fin$1 0000000180054b3c     LIBCMT:frame.obj
 0004:00001b48       $pdata$_IsNonwritableInCurrentImage$filt$0 0000000180054b48     LIBCMT:pesect.obj
 0004:00001b54       $pdata$_lseeki64$fin$0     0000000180054b54     LIBCMT:write.obj
 0004:00001b54       $pdata$_write$fin$0        0000000180054b54     LIBCMT:write.obj
 0004:00001b60       $pdata$_commit$fin$0       0000000180054b60     LIBCMT:commit.obj
 0004:00001b60       $pdata$_close$fin$0        0000000180054b60     LIBCMT:commit.obj
 0004:00001b6c       $pdata$_sopen_helper$fin$0 0000000180054b6c     LIBCMT:open.obj
 0004:00001b78       $pdata$__lock_fhandle$fin$0 0000000180054b78     LIBCMT:osfinfo.obj
 0004:00001b84       $pdata$_alloc_osfhnd$fin$0 0000000180054b84     LIBCMT:osfinfo.obj
 0004:00001b90       $pdata$_alloc_osfhnd$fin$1 0000000180054b90     LIBCMT:osfinfo.obj
 0005:00000060       $R000000                   0000000180055060     * linker generated manifest res *

 Exports

  ordinal    name

        1    _register_lwip_image_
